; ModuleID = '/home/bqpd/workspace_sdsoc/MiniZedMM/src/gradient.cpp'
source_filename = "/home/bqpd/workspace_sdsoc/MiniZedMM/src/gradient.cpp"
target datalayout = "e-m:e-p:32:32-i64:64-v128:64:128-a:0:32-n32-S64"
target triple = "armv7-none--eabi"

%"class.std::ios_base::Init" = type { i8 }
%"class.std::vector" = type { %"struct.std::_Vector_base" }
%"struct.std::_Vector_base" = type { %"struct.std::_Vector_base<Dual, std::allocator<Dual> >::_Vector_impl" }
%"struct.std::_Vector_base<Dual, std::allocator<Dual> >::_Vector_impl" = type { %class.Dual*, %class.Dual*, %class.Dual* }
%class.Dual = type { double, double }
%"class.__gnu_cxx::__normal_iterator" = type { %class.Dual* }
%"class.std::allocator" = type { i8 }
%"class.__gnu_cxx::new_allocator" = type { i8 }
%"class.std::vector.0" = type { %"struct.std::_Vector_base.1" }
%"struct.std::_Vector_base.1" = type { %"struct.std::_Vector_base<std::vector<Dual, std::allocator<Dual> >, std::allocator<std::vector<Dual, std::allocator<Dual> > > >::_Vector_impl" }
%"struct.std::_Vector_base<std::vector<Dual, std::allocator<Dual> >, std::allocator<std::vector<Dual, std::allocator<Dual> > > >::_Vector_impl" = type { %"class.std::vector"*, %"class.std::vector"*, %"class.std::vector"* }
%"class.std::allocator.2" = type { i8 }
%"class.__gnu_cxx::new_allocator.3" = type { i8 }
%"class.__gnu_cxx::__normal_iterator.5" = type { %class.Dual* }

$_ZNSt6vectorI4DualSaIS0_EE5beginEv = comdat any

$_ZNSt6vectorI4DualSaIS0_EE3endEv = comdat any

$_ZN9__gnu_cxxneIP4DualSt6vectorIS1_SaIS1_EEEEbRKNS_17__normal_iteratorIT_T0_EESB_ = comdat any

$_ZNK9__gnu_cxx17__normal_iteratorIP4DualSt6vectorIS1_SaIS1_EEEdeEv = comdat any

$_ZN9__gnu_cxx17__normal_iteratorIP4DualSt6vectorIS1_SaIS1_EEEppEv = comdat any

$_ZNKSt6vectorI4DualSaIS0_EE4sizeEv = comdat any

$_ZNSaI4DualEC2Ev = comdat any

$_ZNSt6vectorI4DualSaIS0_EEC2EjRKS1_ = comdat any

$_ZNSaI4DualED2Ev = comdat any

$_ZNSt6vectorI4DualSaIS0_EEixEj = comdat any

$_ZNSt6vectorI4DualSaIS0_EED2Ev = comdat any

$_ZNSaISt6vectorI4DualSaIS0_EEEC2Ev = comdat any

$_ZNSt6vectorIS_I4DualSaIS0_EESaIS2_EEC2EjRKS2_RKS3_ = comdat any

$_ZNSaISt6vectorI4DualSaIS0_EEED2Ev = comdat any

$_ZNKSt6vectorIS_I4DualSaIS0_EESaIS2_EE4sizeEv = comdat any

$_ZNSt6vectorIS_I4DualSaIS0_EESaIS2_EEixEj = comdat any

$_ZNSt6vectorIS_I4DualSaIS0_EESaIS2_EED2Ev = comdat any

$_ZN9__gnu_cxx17__normal_iteratorIP4DualSt6vectorIS1_SaIS1_EEEC2ERKS2_ = comdat any

$_ZNK9__gnu_cxx17__normal_iteratorIP4DualSt6vectorIS1_SaIS1_EEE4baseEv = comdat any

$_ZN9__gnu_cxx13new_allocatorI4DualEC2Ev = comdat any

$_ZN9__gnu_cxx13new_allocatorI4DualED2Ev = comdat any

$_ZNSt12_Vector_baseI4DualSaIS0_EEC2EjRKS1_ = comdat any

$_ZNSt6vectorI4DualSaIS0_EE21_M_default_initializeEj = comdat any

$_ZNSt12_Vector_baseI4DualSaIS0_EED2Ev = comdat any

$_ZNSt12_Vector_baseI4DualSaIS0_EE12_Vector_implC2ERKS1_ = comdat any

$_ZNSt12_Vector_baseI4DualSaIS0_EE17_M_create_storageEj = comdat any

$_ZNSt12_Vector_baseI4DualSaIS0_EE12_Vector_implD2Ev = comdat any

$_ZN9__gnu_cxx13new_allocatorI4DualEC2ERKS2_ = comdat any

$_ZNSt12_Vector_baseI4DualSaIS0_EE11_M_allocateEj = comdat any

$_ZNSt16allocator_traitsISaI4DualEE8allocateERS1_j = comdat any

$_ZN9__gnu_cxx13new_allocatorI4DualE8allocateEjPKv = comdat any

$_ZNK9__gnu_cxx13new_allocatorI4DualE8max_sizeEv = comdat any

$_ZSt27__uninitialized_default_n_aIP4DualjS0_ET_S2_T0_RSaIT1_E = comdat any

$_ZNSt12_Vector_baseI4DualSaIS0_EE19_M_get_Tp_allocatorEv = comdat any

$_ZSt25__uninitialized_default_nIP4DualjET_S2_T0_ = comdat any

$_ZNSt27__uninitialized_default_n_1ILb0EE18__uninit_default_nIP4DualjEET_S4_T0_ = comdat any

$_ZSt10_ConstructI4DualJEEvPT_DpOT0_ = comdat any

$_ZSt11__addressofI4DualEPT_RS1_ = comdat any

$_ZSt8_DestroyIP4DualEvT_S2_ = comdat any

$__clang_call_terminate = comdat any

$_ZNSt12_Destroy_auxILb1EE9__destroyIP4DualEEvT_S4_ = comdat any

$_ZNSt12_Vector_baseI4DualSaIS0_EE13_M_deallocateEPS0_j = comdat any

$_ZNSt16allocator_traitsISaI4DualEE10deallocateERS1_PS0_j = comdat any

$_ZN9__gnu_cxx13new_allocatorI4DualE10deallocateEPS1_j = comdat any

$_ZSt8_DestroyIP4DualS0_EvT_S2_RSaIT0_E = comdat any

$_ZN9__gnu_cxx13new_allocatorISt6vectorI4DualSaIS2_EEEC2Ev = comdat any

$_ZN9__gnu_cxx13new_allocatorISt6vectorI4DualSaIS2_EEED2Ev = comdat any

$_ZNSt12_Vector_baseISt6vectorI4DualSaIS1_EESaIS3_EEC2EjRKS4_ = comdat any

$_ZNSt6vectorIS_I4DualSaIS0_EESaIS2_EE18_M_fill_initializeEjRKS2_ = comdat any

$_ZNSt12_Vector_baseISt6vectorI4DualSaIS1_EESaIS3_EED2Ev = comdat any

$_ZNSt12_Vector_baseISt6vectorI4DualSaIS1_EESaIS3_EE12_Vector_implC2ERKS4_ = comdat any

$_ZNSt12_Vector_baseISt6vectorI4DualSaIS1_EESaIS3_EE17_M_create_storageEj = comdat any

$_ZNSt12_Vector_baseISt6vectorI4DualSaIS1_EESaIS3_EE12_Vector_implD2Ev = comdat any

$_ZNSaISt6vectorI4DualSaIS0_EEEC2ERKS3_ = comdat any

$_ZN9__gnu_cxx13new_allocatorISt6vectorI4DualSaIS2_EEEC2ERKS5_ = comdat any

$_ZNSt12_Vector_baseISt6vectorI4DualSaIS1_EESaIS3_EE11_M_allocateEj = comdat any

$_ZNSt16allocator_traitsISaISt6vectorI4DualSaIS1_EEEE8allocateERS4_j = comdat any

$_ZN9__gnu_cxx13new_allocatorISt6vectorI4DualSaIS2_EEE8allocateEjPKv = comdat any

$_ZNK9__gnu_cxx13new_allocatorISt6vectorI4DualSaIS2_EEE8max_sizeEv = comdat any

$_ZSt24__uninitialized_fill_n_aIPSt6vectorI4DualSaIS1_EEjS3_S3_ET_S5_T0_RKT1_RSaIT2_E = comdat any

$_ZNSt12_Vector_baseISt6vectorI4DualSaIS1_EESaIS3_EE19_M_get_Tp_allocatorEv = comdat any

$_ZSt20uninitialized_fill_nIPSt6vectorI4DualSaIS1_EEjS3_ET_S5_T0_RKT1_ = comdat any

$_ZNSt22__uninitialized_fill_nILb0EE15__uninit_fill_nIPSt6vectorI4DualSaIS3_EEjS5_EET_S7_T0_RKT1_ = comdat any

$_ZSt10_ConstructISt6vectorI4DualSaIS1_EEJRKS3_EEvPT_DpOT0_ = comdat any

$_ZSt11__addressofISt6vectorI4DualSaIS1_EEEPT_RS4_ = comdat any

$_ZSt8_DestroyIPSt6vectorI4DualSaIS1_EEEvT_S5_ = comdat any

$_ZSt7forwardIRKSt6vectorI4DualSaIS1_EEEOT_RNSt16remove_referenceIS6_E4typeE = comdat any

$_ZNSt6vectorI4DualSaIS0_EEC2ERKS2_ = comdat any

$_ZN9__gnu_cxx14__alloc_traitsISaI4DualEE17_S_select_on_copyERKS2_ = comdat any

$_ZNKSt12_Vector_baseI4DualSaIS0_EE19_M_get_Tp_allocatorEv = comdat any

$_ZSt22__uninitialized_copy_aIN9__gnu_cxx17__normal_iteratorIPK4DualSt6vectorIS2_SaIS2_EEEEPS2_S2_ET0_T_SB_SA_RSaIT1_E = comdat any

$_ZNKSt6vectorI4DualSaIS0_EE5beginEv = comdat any

$_ZNKSt6vectorI4DualSaIS0_EE3endEv = comdat any

$_ZNSt16allocator_traitsISaI4DualEE37select_on_container_copy_constructionERKS1_ = comdat any

$_ZNSaI4DualEC2ERKS0_ = comdat any

$_ZSt18uninitialized_copyIN9__gnu_cxx17__normal_iteratorIPK4DualSt6vectorIS2_SaIS2_EEEEPS2_ET0_T_SB_SA_ = comdat any

$_ZNSt20__uninitialized_copyILb0EE13__uninit_copyIN9__gnu_cxx17__normal_iteratorIPK4DualSt6vectorIS4_SaIS4_EEEEPS4_EET0_T_SD_SC_ = comdat any

$_ZN9__gnu_cxxneIPK4DualSt6vectorIS1_SaIS1_EEEEbRKNS_17__normal_iteratorIT_T0_EESC_ = comdat any

$_ZSt10_ConstructI4DualJRKS0_EEvPT_DpOT0_ = comdat any

$_ZNK9__gnu_cxx17__normal_iteratorIPK4DualSt6vectorIS1_SaIS1_EEEdeEv = comdat any

$_ZN9__gnu_cxx17__normal_iteratorIPK4DualSt6vectorIS1_SaIS1_EEEppEv = comdat any

$_ZNK9__gnu_cxx17__normal_iteratorIPK4DualSt6vectorIS1_SaIS1_EEE4baseEv = comdat any

$_ZSt7forwardIRK4DualEOT_RNSt16remove_referenceIS3_E4typeE = comdat any

$_ZN9__gnu_cxx17__normal_iteratorIPK4DualSt6vectorIS1_SaIS1_EEEC2ERKS3_ = comdat any

$_ZNSt12_Destroy_auxILb0EE9__destroyIPSt6vectorI4DualSaIS3_EEEEvT_S7_ = comdat any

$_ZSt8_DestroyISt6vectorI4DualSaIS1_EEEvPT_ = comdat any

$_ZNSt12_Vector_baseISt6vectorI4DualSaIS1_EESaIS3_EE13_M_deallocateEPS3_j = comdat any

$_ZNSt16allocator_traitsISaISt6vectorI4DualSaIS1_EEEE10deallocateERS4_PS3_j = comdat any

$_ZN9__gnu_cxx13new_allocatorISt6vectorI4DualSaIS2_EEE10deallocateEPS4_j = comdat any

$_ZSt8_DestroyIPSt6vectorI4DualSaIS1_EES3_EvT_S5_RSaIT0_E = comdat any

@_ZStL8__ioinit = internal global %"class.std::ios_base::Init" zeroinitializer, align 1
@__dso_handle = external global i8
@llvm.global_ctors = appending global [1 x { i32, void ()*, i8* }] [{ i32, void ()*, i8* } { i32 65535, void ()* @_GLOBAL__sub_I_gradient.cpp, i8* null }]

define internal void @__cxx_global_var_init() #0 !dbg !1986 {
  %1 = call %"class.std::ios_base::Init"* @_ZNSt8ios_base4InitC1Ev(%"class.std::ios_base::Init"* @_ZStL8__ioinit), !dbg !1987
  %2 = call i32 @__cxa_atexit(void (i8*)* bitcast (%"class.std::ios_base::Init"* (%"class.std::ios_base::Init"*)* @_ZNSt8ios_base4InitD1Ev to void (i8*)*), i8* getelementptr inbounds (%"class.std::ios_base::Init", %"class.std::ios_base::Init"* @_ZStL8__ioinit, i32 0, i32 0), i8* @__dso_handle) #3, !dbg !1988
  ret void, !dbg !1987
}

declare !xidane.fname !1990 !xidane.function_declaration_type !1991 !xidane.function_declaration_filename !1992 %"class.std::ios_base::Init"* @_ZNSt8ios_base4InitC1Ev(%"class.std::ios_base::Init"* returned) unnamed_addr #1

; Function Attrs: nounwind
declare !xidane.fname !1993 !xidane.function_declaration_type !1991 !xidane.function_declaration_filename !1992 %"class.std::ios_base::Init"* @_ZNSt8ios_base4InitD1Ev(%"class.std::ios_base::Init"* returned) unnamed_addr #2

; Function Attrs: nounwind
declare i32 @__cxa_atexit(void (i8*)*, i8*, i8*) #3

define void @_ZN4dual16resetDerivativesERSt6vectorI4DualSaIS1_EE(%"class.std::vector"* dereferenceable(12)) #0 !dbg !1994 !xidane.fname !1999 !xidane.function_declaration_type !2000 !xidane.function_declaration_filename !2001 {
  %2 = alloca %"class.std::vector"*, align 4
  %3 = alloca %"class.std::vector"*, align 4
  %4 = alloca %"class.__gnu_cxx::__normal_iterator", align 4
  %5 = alloca %"class.__gnu_cxx::__normal_iterator", align 4
  %6 = alloca %class.Dual*, align 4
  store %"class.std::vector"* %0, %"class.std::vector"** %2, align 4
  call void @llvm.dbg.declare(metadata %"class.std::vector"** %2, metadata !2002, metadata !2003), !dbg !2004
  call void @llvm.dbg.declare(metadata %"class.std::vector"** %3, metadata !2005, metadata !2003), !dbg !2007
  %7 = load %"class.std::vector"*, %"class.std::vector"** %2, align 4, !dbg !2008
  store %"class.std::vector"* %7, %"class.std::vector"** %3, align 4, !dbg !2008
  call void @llvm.dbg.declare(metadata %"class.__gnu_cxx::__normal_iterator"* %4, metadata !2009, metadata !2003), !dbg !2007
  %8 = load %"class.std::vector"*, %"class.std::vector"** %3, align 4, !dbg !2010
  %9 = call i32 @_ZNSt6vectorI4DualSaIS0_EE5beginEv(%"class.std::vector"* %8) #3, !dbg !2010
  %10 = getelementptr inbounds %"class.__gnu_cxx::__normal_iterator", %"class.__gnu_cxx::__normal_iterator"* %4, i32 0, i32 0, !dbg !2010
  %11 = inttoptr i32 %9 to %class.Dual*, !dbg !2010
  store %class.Dual* %11, %class.Dual** %10, align 4, !dbg !2010
  call void @llvm.dbg.declare(metadata %"class.__gnu_cxx::__normal_iterator"* %5, metadata !2011, metadata !2003), !dbg !2007
  %12 = load %"class.std::vector"*, %"class.std::vector"** %3, align 4, !dbg !2010
  %13 = call i32 @_ZNSt6vectorI4DualSaIS0_EE3endEv(%"class.std::vector"* %12) #3, !dbg !2012
  %14 = getelementptr inbounds %"class.__gnu_cxx::__normal_iterator", %"class.__gnu_cxx::__normal_iterator"* %5, i32 0, i32 0, !dbg !2010
  %15 = inttoptr i32 %13 to %class.Dual*, !dbg !2010
  store %class.Dual* %15, %class.Dual** %14, align 4, !dbg !2010
  br label %16, !dbg !2010

; <label>:16:                                     ; preds = %21, %1
  %17 = call zeroext i1 @_ZN9__gnu_cxxneIP4DualSt6vectorIS1_SaIS1_EEEEbRKNS_17__normal_iteratorIT_T0_EESB_(%"class.__gnu_cxx::__normal_iterator"* dereferenceable(4) %4, %"class.__gnu_cxx::__normal_iterator"* dereferenceable(4) %5) #3, !dbg !2014
  br i1 %17, label %18, label %23, !dbg !2014

; <label>:18:                                     ; preds = %16
  call void @llvm.dbg.declare(metadata %class.Dual** %6, metadata !2016, metadata !2003), !dbg !2018
  %19 = call dereferenceable(16) %class.Dual* @_ZNK9__gnu_cxx17__normal_iteratorIP4DualSt6vectorIS1_SaIS1_EEEdeEv(%"class.__gnu_cxx::__normal_iterator"* %4) #3, !dbg !2019
  store %class.Dual* %19, %class.Dual** %6, align 4, !dbg !2021
  %20 = load %class.Dual*, %class.Dual** %6, align 4, !dbg !2022
  call void @_ZN4Dual13setDerivativeEd(%class.Dual* %20, double 0.000000e+00), !dbg !2024
  br label %21, !dbg !2025

; <label>:21:                                     ; preds = %18
  %22 = call dereferenceable(4) %"class.__gnu_cxx::__normal_iterator"* @_ZN9__gnu_cxx17__normal_iteratorIP4DualSt6vectorIS1_SaIS1_EEEppEv(%"class.__gnu_cxx::__normal_iterator"* %4) #3, !dbg !2026
  br label %16, !dbg !2026, !llvm.loop !2028

; <label>:23:                                     ; preds = %16
  ret void, !dbg !2030
}

; Function Attrs: nounwind readnone
declare void @llvm.dbg.declare(metadata, metadata, metadata) #4

; Function Attrs: nounwind
define linkonce_odr i32 @_ZNSt6vectorI4DualSaIS0_EE5beginEv(%"class.std::vector"*) #5 comdat align 2 !dbg !2031 !xidane.fname !2032 !xidane.function_declaration_type !2033 !xidane.function_declaration_filename !2034 {
  %2 = alloca %"class.__gnu_cxx::__normal_iterator", align 4
  %3 = alloca %"class.std::vector"*, align 4
  store %"class.std::vector"* %0, %"class.std::vector"** %3, align 4
  call void @llvm.dbg.declare(metadata %"class.std::vector"** %3, metadata !2035, metadata !2003), !dbg !2036
  %4 = load %"class.std::vector"*, %"class.std::vector"** %3, align 4
  %5 = bitcast %"class.std::vector"* %4 to %"struct.std::_Vector_base"*, !dbg !2037
  %6 = getelementptr inbounds %"struct.std::_Vector_base", %"struct.std::_Vector_base"* %5, i32 0, i32 0, !dbg !2037
  %7 = getelementptr inbounds %"struct.std::_Vector_base<Dual, std::allocator<Dual> >::_Vector_impl", %"struct.std::_Vector_base<Dual, std::allocator<Dual> >::_Vector_impl"* %6, i32 0, i32 0, !dbg !2038
  %8 = call %"class.__gnu_cxx::__normal_iterator"* @_ZN9__gnu_cxx17__normal_iteratorIP4DualSt6vectorIS1_SaIS1_EEEC2ERKS2_(%"class.__gnu_cxx::__normal_iterator"* %2, %class.Dual** dereferenceable(4) %7) #3, !dbg !2039
  %9 = getelementptr inbounds %"class.__gnu_cxx::__normal_iterator", %"class.__gnu_cxx::__normal_iterator"* %2, i32 0, i32 0, !dbg !2040
  %10 = load %class.Dual*, %class.Dual** %9, align 4, !dbg !2040
  %11 = ptrtoint %class.Dual* %10 to i32, !dbg !2040
  ret i32 %11, !dbg !2040
}

; Function Attrs: nounwind
define linkonce_odr i32 @_ZNSt6vectorI4DualSaIS0_EE3endEv(%"class.std::vector"*) #5 comdat align 2 !dbg !2041 !xidane.fname !2042 !xidane.function_declaration_type !2033 !xidane.function_declaration_filename !2034 {
  %2 = alloca %"class.__gnu_cxx::__normal_iterator", align 4
  %3 = alloca %"class.std::vector"*, align 4
  store %"class.std::vector"* %0, %"class.std::vector"** %3, align 4
  call void @llvm.dbg.declare(metadata %"class.std::vector"** %3, metadata !2043, metadata !2003), !dbg !2044
  %4 = load %"class.std::vector"*, %"class.std::vector"** %3, align 4
  %5 = bitcast %"class.std::vector"* %4 to %"struct.std::_Vector_base"*, !dbg !2045
  %6 = getelementptr inbounds %"struct.std::_Vector_base", %"struct.std::_Vector_base"* %5, i32 0, i32 0, !dbg !2045
  %7 = getelementptr inbounds %"struct.std::_Vector_base<Dual, std::allocator<Dual> >::_Vector_impl", %"struct.std::_Vector_base<Dual, std::allocator<Dual> >::_Vector_impl"* %6, i32 0, i32 1, !dbg !2046
  %8 = call %"class.__gnu_cxx::__normal_iterator"* @_ZN9__gnu_cxx17__normal_iteratorIP4DualSt6vectorIS1_SaIS1_EEEC2ERKS2_(%"class.__gnu_cxx::__normal_iterator"* %2, %class.Dual** dereferenceable(4) %7) #3, !dbg !2047
  %9 = getelementptr inbounds %"class.__gnu_cxx::__normal_iterator", %"class.__gnu_cxx::__normal_iterator"* %2, i32 0, i32 0, !dbg !2048
  %10 = load %class.Dual*, %class.Dual** %9, align 4, !dbg !2048
  %11 = ptrtoint %class.Dual* %10 to i32, !dbg !2048
  ret i32 %11, !dbg !2048
}

; Function Attrs: inlinehint nounwind
define linkonce_odr zeroext i1 @_ZN9__gnu_cxxneIP4DualSt6vectorIS1_SaIS1_EEEEbRKNS_17__normal_iteratorIT_T0_EESB_(%"class.__gnu_cxx::__normal_iterator"* dereferenceable(4), %"class.__gnu_cxx::__normal_iterator"* dereferenceable(4)) #6 comdat !dbg !2049 !xidane.fname !2053 !xidane.function_declaration_type !2054 !xidane.function_declaration_filename !2055 {
  %3 = alloca %"class.__gnu_cxx::__normal_iterator"*, align 4
  %4 = alloca %"class.__gnu_cxx::__normal_iterator"*, align 4
  store %"class.__gnu_cxx::__normal_iterator"* %0, %"class.__gnu_cxx::__normal_iterator"** %3, align 4
  call void @llvm.dbg.declare(metadata %"class.__gnu_cxx::__normal_iterator"** %3, metadata !2056, metadata !2003), !dbg !2057
  store %"class.__gnu_cxx::__normal_iterator"* %1, %"class.__gnu_cxx::__normal_iterator"** %4, align 4
  call void @llvm.dbg.declare(metadata %"class.__gnu_cxx::__normal_iterator"** %4, metadata !2058, metadata !2003), !dbg !2059
  %5 = load %"class.__gnu_cxx::__normal_iterator"*, %"class.__gnu_cxx::__normal_iterator"** %3, align 4, !dbg !2060
  %6 = call dereferenceable(4) %class.Dual** @_ZNK9__gnu_cxx17__normal_iteratorIP4DualSt6vectorIS1_SaIS1_EEE4baseEv(%"class.__gnu_cxx::__normal_iterator"* %5) #3, !dbg !2061
  %7 = load %class.Dual*, %class.Dual** %6, align 4, !dbg !2061
  %8 = load %"class.__gnu_cxx::__normal_iterator"*, %"class.__gnu_cxx::__normal_iterator"** %4, align 4, !dbg !2062
  %9 = call dereferenceable(4) %class.Dual** @_ZNK9__gnu_cxx17__normal_iteratorIP4DualSt6vectorIS1_SaIS1_EEE4baseEv(%"class.__gnu_cxx::__normal_iterator"* %8) #3, !dbg !2063
  %10 = load %class.Dual*, %class.Dual** %9, align 4, !dbg !2065
  %11 = icmp ne %class.Dual* %7, %10, !dbg !2066
  ret i1 %11, !dbg !2067
}

; Function Attrs: nounwind
define linkonce_odr dereferenceable(16) %class.Dual* @_ZNK9__gnu_cxx17__normal_iteratorIP4DualSt6vectorIS1_SaIS1_EEEdeEv(%"class.__gnu_cxx::__normal_iterator"*) #5 comdat align 2 !dbg !2068 !xidane.fname !2069 !xidane.function_declaration_type !2070 !xidane.function_declaration_filename !2055 {
  %2 = alloca %"class.__gnu_cxx::__normal_iterator"*, align 4
  store %"class.__gnu_cxx::__normal_iterator"* %0, %"class.__gnu_cxx::__normal_iterator"** %2, align 4
  call void @llvm.dbg.declare(metadata %"class.__gnu_cxx::__normal_iterator"** %2, metadata !2071, metadata !2003), !dbg !2073
  %3 = load %"class.__gnu_cxx::__normal_iterator"*, %"class.__gnu_cxx::__normal_iterator"** %2, align 4
  %4 = getelementptr inbounds %"class.__gnu_cxx::__normal_iterator", %"class.__gnu_cxx::__normal_iterator"* %3, i32 0, i32 0, !dbg !2074
  %5 = load %class.Dual*, %class.Dual** %4, align 4, !dbg !2074
  ret %class.Dual* %5, !dbg !2075
}

declare !xidane.fname !2076 !xidane.function_declaration_type !2077 !xidane.function_declaration_filename !2078 void @_ZN4Dual13setDerivativeEd(%class.Dual*, double) #1

; Function Attrs: nounwind
define linkonce_odr dereferenceable(4) %"class.__gnu_cxx::__normal_iterator"* @_ZN9__gnu_cxx17__normal_iteratorIP4DualSt6vectorIS1_SaIS1_EEEppEv(%"class.__gnu_cxx::__normal_iterator"*) #5 comdat align 2 !dbg !2079 !xidane.fname !2080 !xidane.function_declaration_type !2081 !xidane.function_declaration_filename !2055 {
  %2 = alloca %"class.__gnu_cxx::__normal_iterator"*, align 4
  store %"class.__gnu_cxx::__normal_iterator"* %0, %"class.__gnu_cxx::__normal_iterator"** %2, align 4
  call void @llvm.dbg.declare(metadata %"class.__gnu_cxx::__normal_iterator"** %2, metadata !2082, metadata !2003), !dbg !2084
  %3 = load %"class.__gnu_cxx::__normal_iterator"*, %"class.__gnu_cxx::__normal_iterator"** %2, align 4
  %4 = getelementptr inbounds %"class.__gnu_cxx::__normal_iterator", %"class.__gnu_cxx::__normal_iterator"* %3, i32 0, i32 0, !dbg !2085
  %5 = load %class.Dual*, %class.Dual** %4, align 4, !dbg !2086
  %6 = getelementptr inbounds %class.Dual, %class.Dual* %5, i32 1, !dbg !2086
  store %class.Dual* %6, %class.Dual** %4, align 4, !dbg !2086
  ret %"class.__gnu_cxx::__normal_iterator"* %3, !dbg !2087
}

define void @_ZN4dual8gradientEPF4DualRSt6vectorIS0_SaIS0_EEES4_(%"class.std::vector"* noalias sret, void (%class.Dual*, %"class.std::vector"*)*, %"class.std::vector"* dereferenceable(12)) #0 personality i8* bitcast (i32 (...)* @__gxx_personality_v0 to i8*) !dbg !2088 !xidane.fname !2094 !xidane.function_declaration_type !2095 !xidane.function_declaration_filename !2001 {
  %4 = alloca void (%class.Dual*, %"class.std::vector"*)*, align 4
  %5 = alloca %"class.std::vector"*, align 4
  %6 = alloca i1, align 1
  %7 = alloca %"class.std::allocator", align 1
  %8 = alloca i8*
  %9 = alloca i32
  %10 = alloca i32, align 4
  %11 = alloca %class.Dual, align 8
  %12 = alloca %class.Dual, align 8
  store void (%class.Dual*, %"class.std::vector"*)* %1, void (%class.Dual*, %"class.std::vector"*)** %4, align 4
  call void @llvm.dbg.declare(metadata void (%class.Dual*, %"class.std::vector"*)** %4, metadata !2096, metadata !2003), !dbg !2097
  store %"class.std::vector"* %2, %"class.std::vector"** %5, align 4
  call void @llvm.dbg.declare(metadata %"class.std::vector"** %5, metadata !2098, metadata !2003), !dbg !2099
  %13 = load %"class.std::vector"*, %"class.std::vector"** %5, align 4, !dbg !2100
  call void @_ZN4dual16resetDerivativesERSt6vectorI4DualSaIS1_EE(%"class.std::vector"* dereferenceable(12) %13), !dbg !2101
  store i1 false, i1* %6, align 1, !dbg !2102
  call void @llvm.dbg.declare(metadata %"class.std::vector"* %0, metadata !2103, metadata !2104), !dbg !2105
  %14 = load %"class.std::vector"*, %"class.std::vector"** %5, align 4, !dbg !2106
  %15 = call i32 @_ZNKSt6vectorI4DualSaIS0_EE4sizeEv(%"class.std::vector"* %14) #3, !dbg !2107
  %16 = call %"class.std::allocator"* @_ZNSaI4DualEC2Ev(%"class.std::allocator"* %7) #3, !dbg !2108
  %17 = invoke %"class.std::vector"* @_ZNSt6vectorI4DualSaIS0_EEC2EjRKS1_(%"class.std::vector"* %0, i32 %15, %"class.std::allocator"* dereferenceable(1) %7)
          to label %18 unwind label %47, !dbg !2105

; <label>:18:                                     ; preds = %3
  %19 = call %"class.std::allocator"* @_ZNSaI4DualED2Ev(%"class.std::allocator"* %7) #3, !dbg !2110
  call void @llvm.dbg.declare(metadata i32* %10, metadata !2112, metadata !2003), !dbg !2114
  store i32 0, i32* %10, align 4, !dbg !2114
  br label %20, !dbg !2115

; <label>:20:                                     ; preds = %44, %18
  %21 = load i32, i32* %10, align 4, !dbg !2116
  %22 = call i32 @_ZNKSt6vectorI4DualSaIS0_EE4sizeEv(%"class.std::vector"* %0) #3, !dbg !2119
  %23 = icmp ult i32 %21, %22, !dbg !2120
  br i1 %23, label %24, label %57, !dbg !2121

; <label>:24:                                     ; preds = %20
  %25 = load %"class.std::vector"*, %"class.std::vector"** %5, align 4, !dbg !2122
  %26 = load i32, i32* %10, align 4, !dbg !2124
  %27 = call dereferenceable(16) %class.Dual* @_ZNSt6vectorI4DualSaIS0_EEixEj(%"class.std::vector"* %25, i32 %26) #3, !dbg !2122
  invoke void @_ZN4Dual13setDerivativeEd(%class.Dual* %27, double 1.000000e+00)
          to label %28 unwind label %52, !dbg !2125

; <label>:28:                                     ; preds = %24
  %29 = load i32, i32* %10, align 4, !dbg !2126
  %30 = call dereferenceable(16) %class.Dual* @_ZNSt6vectorI4DualSaIS0_EEixEj(%"class.std::vector"* %0, i32 %29) #3, !dbg !2127
  %31 = load void (%class.Dual*, %"class.std::vector"*)*, void (%class.Dual*, %"class.std::vector"*)** %4, align 4, !dbg !2128
  %32 = load %"class.std::vector"*, %"class.std::vector"** %5, align 4, !dbg !2129
  invoke void %31(%class.Dual* sret %12, %"class.std::vector"* dereferenceable(12) %32)
          to label %33 unwind label %52, !dbg !2128

; <label>:33:                                     ; preds = %28
  %34 = invoke double @_ZNK4Dual13getDerivativeEv(%class.Dual* %12)
          to label %35 unwind label %52, !dbg !2130

; <label>:35:                                     ; preds = %33
  %36 = invoke %class.Dual* @_ZN4DualC1Ed(%class.Dual* %11, double %34)
          to label %37 unwind label %52, !dbg !2132

; <label>:37:                                     ; preds = %35
  %38 = bitcast %class.Dual* %30 to i8*, !dbg !2134
  %39 = bitcast %class.Dual* %11 to i8*, !dbg !2134
  call void @llvm.memcpy.p0i8.p0i8.i32(i8* %38, i8* %39, i32 16, i32 8, i1 false), !dbg !2134
  %40 = load %"class.std::vector"*, %"class.std::vector"** %5, align 4, !dbg !2136
  %41 = load i32, i32* %10, align 4, !dbg !2137
  %42 = call dereferenceable(16) %class.Dual* @_ZNSt6vectorI4DualSaIS0_EEixEj(%"class.std::vector"* %40, i32 %41) #3, !dbg !2136
  invoke void @_ZN4Dual13setDerivativeEd(%class.Dual* %42, double 0.000000e+00)
          to label %43 unwind label %52, !dbg !2138

; <label>:43:                                     ; preds = %37
  br label %44, !dbg !2139

; <label>:44:                                     ; preds = %43
  %45 = load i32, i32* %10, align 4, !dbg !2140
  %46 = add i32 %45, 1, !dbg !2140
  store i32 %46, i32* %10, align 4, !dbg !2140
  br label %20, !dbg !2142, !llvm.loop !2143

; <label>:47:                                     ; preds = %3
  %48 = landingpad { i8*, i32 }
          cleanup, !dbg !2145
  %49 = extractvalue { i8*, i32 } %48, 0, !dbg !2145
  store i8* %49, i8** %8, align 4, !dbg !2145
  %50 = extractvalue { i8*, i32 } %48, 1, !dbg !2145
  store i32 %50, i32* %9, align 4, !dbg !2145
  %51 = call %"class.std::allocator"* @_ZNSaI4DualED2Ev(%"class.std::allocator"* %7) #3, !dbg !2146
  br label %62, !dbg !2146

; <label>:52:                                     ; preds = %37, %35, %33, %28, %24
  %53 = landingpad { i8*, i32 }
          cleanup, !dbg !2148
  %54 = extractvalue { i8*, i32 } %53, 0, !dbg !2148
  store i8* %54, i8** %8, align 4, !dbg !2148
  %55 = extractvalue { i8*, i32 } %53, 1, !dbg !2148
  store i32 %55, i32* %9, align 4, !dbg !2148
  %56 = call %"class.std::vector"* @_ZNSt6vectorI4DualSaIS0_EED2Ev(%"class.std::vector"* %0) #3, !dbg !2148
  br label %62, !dbg !2148

; <label>:57:                                     ; preds = %20
  store i1 true, i1* %6, align 1, !dbg !2149
  %58 = load i1, i1* %6, align 1, !dbg !2150
  br i1 %58, label %61, label %59, !dbg !2150

; <label>:59:                                     ; preds = %57
  %60 = call %"class.std::vector"* @_ZNSt6vectorI4DualSaIS0_EED2Ev(%"class.std::vector"* %0) #3, !dbg !2151
  br label %61, !dbg !2151

; <label>:61:                                     ; preds = %59, %57
  ret void, !dbg !2153

; <label>:62:                                     ; preds = %52, %47
  %63 = load i8*, i8** %8, align 4, !dbg !2154
  %64 = load i32, i32* %9, align 4, !dbg !2154
  %65 = insertvalue { i8*, i32 } undef, i8* %63, 0, !dbg !2154
  %66 = insertvalue { i8*, i32 } %65, i32 %64, 1, !dbg !2154
  resume { i8*, i32 } %66, !dbg !2154
}

; Function Attrs: nounwind
define linkonce_odr i32 @_ZNKSt6vectorI4DualSaIS0_EE4sizeEv(%"class.std::vector"*) #5 comdat align 2 !dbg !2155 !xidane.fname !2156 !xidane.function_declaration_type !2157 !xidane.function_declaration_filename !2034 {
  %2 = alloca %"class.std::vector"*, align 4
  store %"class.std::vector"* %0, %"class.std::vector"** %2, align 4
  call void @llvm.dbg.declare(metadata %"class.std::vector"** %2, metadata !2158, metadata !2003), !dbg !2159
  %3 = load %"class.std::vector"*, %"class.std::vector"** %2, align 4
  %4 = bitcast %"class.std::vector"* %3 to %"struct.std::_Vector_base"*, !dbg !2160
  %5 = getelementptr inbounds %"struct.std::_Vector_base", %"struct.std::_Vector_base"* %4, i32 0, i32 0, !dbg !2160
  %6 = getelementptr inbounds %"struct.std::_Vector_base<Dual, std::allocator<Dual> >::_Vector_impl", %"struct.std::_Vector_base<Dual, std::allocator<Dual> >::_Vector_impl"* %5, i32 0, i32 1, !dbg !2161
  %7 = load %class.Dual*, %class.Dual** %6, align 4, !dbg !2161
  %8 = bitcast %"class.std::vector"* %3 to %"struct.std::_Vector_base"*, !dbg !2162
  %9 = getelementptr inbounds %"struct.std::_Vector_base", %"struct.std::_Vector_base"* %8, i32 0, i32 0, !dbg !2162
  %10 = getelementptr inbounds %"struct.std::_Vector_base<Dual, std::allocator<Dual> >::_Vector_impl", %"struct.std::_Vector_base<Dual, std::allocator<Dual> >::_Vector_impl"* %9, i32 0, i32 0, !dbg !2163
  %11 = load %class.Dual*, %class.Dual** %10, align 4, !dbg !2163
  %12 = ptrtoint %class.Dual* %7 to i32, !dbg !2164
  %13 = ptrtoint %class.Dual* %11 to i32, !dbg !2164
  %14 = sub i32 %12, %13, !dbg !2164
  %15 = sdiv exact i32 %14, 16, !dbg !2164
  ret i32 %15, !dbg !2165
}

; Function Attrs: nounwind
define linkonce_odr %"class.std::allocator"* @_ZNSaI4DualEC2Ev(%"class.std::allocator"* returned) unnamed_addr #5 comdat align 2 !dbg !2166 !xidane.fname !2167 !xidane.function_declaration_type !1991 !xidane.function_declaration_filename !2168 {
  %2 = alloca %"class.std::allocator"*, align 4
  store %"class.std::allocator"* %0, %"class.std::allocator"** %2, align 4
  call void @llvm.dbg.declare(metadata %"class.std::allocator"** %2, metadata !2169, metadata !2003), !dbg !2171
  %3 = load %"class.std::allocator"*, %"class.std::allocator"** %2, align 4
  %4 = bitcast %"class.std::allocator"* %3 to %"class.__gnu_cxx::new_allocator"*, !dbg !2172
  %5 = call %"class.__gnu_cxx::new_allocator"* @_ZN9__gnu_cxx13new_allocatorI4DualEC2Ev(%"class.__gnu_cxx::new_allocator"* %4) #3, !dbg !2173
  ret %"class.std::allocator"* %3, !dbg !2174
}

define linkonce_odr %"class.std::vector"* @_ZNSt6vectorI4DualSaIS0_EEC2EjRKS1_(%"class.std::vector"* returned, i32, %"class.std::allocator"* dereferenceable(1)) unnamed_addr #0 comdat align 2 personality i8* bitcast (i32 (...)* @__gxx_personality_v0 to i8*) !dbg !2175 !xidane.fname !2176 !xidane.function_declaration_type !2177 !xidane.function_declaration_filename !2034 {
  %4 = alloca %"class.std::vector"*, align 4
  %5 = alloca i32, align 4
  %6 = alloca %"class.std::allocator"*, align 4
  %7 = alloca i8*
  %8 = alloca i32
  store %"class.std::vector"* %0, %"class.std::vector"** %4, align 4
  call void @llvm.dbg.declare(metadata %"class.std::vector"** %4, metadata !2178, metadata !2003), !dbg !2179
  store i32 %1, i32* %5, align 4
  call void @llvm.dbg.declare(metadata i32* %5, metadata !2180, metadata !2003), !dbg !2181
  store %"class.std::allocator"* %2, %"class.std::allocator"** %6, align 4
  call void @llvm.dbg.declare(metadata %"class.std::allocator"** %6, metadata !2182, metadata !2003), !dbg !2183
  %9 = load %"class.std::vector"*, %"class.std::vector"** %4, align 4
  %10 = bitcast %"class.std::vector"* %9 to %"struct.std::_Vector_base"*, !dbg !2184
  %11 = load i32, i32* %5, align 4, !dbg !2185
  %12 = load %"class.std::allocator"*, %"class.std::allocator"** %6, align 4, !dbg !2186
  %13 = call %"struct.std::_Vector_base"* @_ZNSt12_Vector_baseI4DualSaIS0_EEC2EjRKS1_(%"struct.std::_Vector_base"* %10, i32 %11, %"class.std::allocator"* dereferenceable(1) %12), !dbg !2187
  %14 = load i32, i32* %5, align 4, !dbg !2188
  invoke void @_ZNSt6vectorI4DualSaIS0_EE21_M_default_initializeEj(%"class.std::vector"* %9, i32 %14)
          to label %15 unwind label %16, !dbg !2190

; <label>:15:                                     ; preds = %3
  ret %"class.std::vector"* %9, !dbg !2191

; <label>:16:                                     ; preds = %3
  %17 = landingpad { i8*, i32 }
          cleanup, !dbg !2193
  %18 = extractvalue { i8*, i32 } %17, 0, !dbg !2193
  store i8* %18, i8** %7, align 4, !dbg !2193
  %19 = extractvalue { i8*, i32 } %17, 1, !dbg !2193
  store i32 %19, i32* %8, align 4, !dbg !2193
  %20 = bitcast %"class.std::vector"* %9 to %"struct.std::_Vector_base"*, !dbg !2193
  %21 = call %"struct.std::_Vector_base"* @_ZNSt12_Vector_baseI4DualSaIS0_EED2Ev(%"struct.std::_Vector_base"* %20) #3, !dbg !2193
  br label %22, !dbg !2193

; <label>:22:                                     ; preds = %16
  %23 = load i8*, i8** %7, align 4, !dbg !2195
  %24 = load i32, i32* %8, align 4, !dbg !2195
  %25 = insertvalue { i8*, i32 } undef, i8* %23, 0, !dbg !2195
  %26 = insertvalue { i8*, i32 } %25, i32 %24, 1, !dbg !2195
  resume { i8*, i32 } %26, !dbg !2195
}

declare i32 @__gxx_personality_v0(...)

; Function Attrs: nounwind
define linkonce_odr %"class.std::allocator"* @_ZNSaI4DualED2Ev(%"class.std::allocator"* returned) unnamed_addr #5 comdat align 2 !dbg !2197 !xidane.fname !2198 !xidane.function_declaration_type !1991 !xidane.function_declaration_filename !2168 {
  %2 = alloca %"class.std::allocator"*, align 4
  store %"class.std::allocator"* %0, %"class.std::allocator"** %2, align 4
  call void @llvm.dbg.declare(metadata %"class.std::allocator"** %2, metadata !2199, metadata !2003), !dbg !2200
  %3 = load %"class.std::allocator"*, %"class.std::allocator"** %2, align 4
  %4 = bitcast %"class.std::allocator"* %3 to %"class.__gnu_cxx::new_allocator"*, !dbg !2201
  %5 = call %"class.__gnu_cxx::new_allocator"* @_ZN9__gnu_cxx13new_allocatorI4DualED2Ev(%"class.__gnu_cxx::new_allocator"* %4) #3, !dbg !2201
  ret %"class.std::allocator"* %3, !dbg !2203
}

; Function Attrs: nounwind
define linkonce_odr dereferenceable(16) %class.Dual* @_ZNSt6vectorI4DualSaIS0_EEixEj(%"class.std::vector"*, i32) #5 comdat align 2 !dbg !2204 !xidane.fname !2205 !xidane.function_declaration_type !2206 !xidane.function_declaration_filename !2034 {
  %3 = alloca %"class.std::vector"*, align 4
  %4 = alloca i32, align 4
  store %"class.std::vector"* %0, %"class.std::vector"** %3, align 4
  call void @llvm.dbg.declare(metadata %"class.std::vector"** %3, metadata !2207, metadata !2003), !dbg !2208
  store i32 %1, i32* %4, align 4
  call void @llvm.dbg.declare(metadata i32* %4, metadata !2209, metadata !2003), !dbg !2210
  %5 = load %"class.std::vector"*, %"class.std::vector"** %3, align 4
  %6 = bitcast %"class.std::vector"* %5 to %"struct.std::_Vector_base"*, !dbg !2211
  %7 = getelementptr inbounds %"struct.std::_Vector_base", %"struct.std::_Vector_base"* %6, i32 0, i32 0, !dbg !2211
  %8 = getelementptr inbounds %"struct.std::_Vector_base<Dual, std::allocator<Dual> >::_Vector_impl", %"struct.std::_Vector_base<Dual, std::allocator<Dual> >::_Vector_impl"* %7, i32 0, i32 0, !dbg !2212
  %9 = load %class.Dual*, %class.Dual** %8, align 4, !dbg !2212
  %10 = load i32, i32* %4, align 4, !dbg !2213
  %11 = getelementptr inbounds %class.Dual, %class.Dual* %9, i32 %10, !dbg !2214
  ret %class.Dual* %11, !dbg !2215
}

declare !xidane.fname !2216 !xidane.function_declaration_type !2217 !xidane.function_declaration_filename !2078 double @_ZNK4Dual13getDerivativeEv(%class.Dual*) #1

declare !xidane.fname !2218 !xidane.function_declaration_type !2077 !xidane.function_declaration_filename !2078 %class.Dual* @_ZN4DualC1Ed(%class.Dual* returned, double) unnamed_addr #1

; Function Attrs: argmemonly nounwind
declare void @llvm.memcpy.p0i8.p0i8.i32(i8* nocapture writeonly, i8* nocapture readonly, i32, i32, i1) #7

; Function Attrs: nounwind
define linkonce_odr %"class.std::vector"* @_ZNSt6vectorI4DualSaIS0_EED2Ev(%"class.std::vector"* returned) unnamed_addr #5 comdat align 2 personality i8* bitcast (i32 (...)* @__gxx_personality_v0 to i8*) !dbg !2219 !xidane.fname !2220 !xidane.function_declaration_type !1991 !xidane.function_declaration_filename !2034 {
  %2 = alloca %"class.std::vector"*, align 4
  %3 = alloca i8*
  %4 = alloca i32
  store %"class.std::vector"* %0, %"class.std::vector"** %2, align 4
  call void @llvm.dbg.declare(metadata %"class.std::vector"** %2, metadata !2221, metadata !2003), !dbg !2222
  %5 = load %"class.std::vector"*, %"class.std::vector"** %2, align 4
  %6 = bitcast %"class.std::vector"* %5 to %"struct.std::_Vector_base"*, !dbg !2223
  %7 = getelementptr inbounds %"struct.std::_Vector_base", %"struct.std::_Vector_base"* %6, i32 0, i32 0, !dbg !2223
  %8 = getelementptr inbounds %"struct.std::_Vector_base<Dual, std::allocator<Dual> >::_Vector_impl", %"struct.std::_Vector_base<Dual, std::allocator<Dual> >::_Vector_impl"* %7, i32 0, i32 0, !dbg !2225
  %9 = load %class.Dual*, %class.Dual** %8, align 4, !dbg !2225
  %10 = bitcast %"class.std::vector"* %5 to %"struct.std::_Vector_base"*, !dbg !2226
  %11 = getelementptr inbounds %"struct.std::_Vector_base", %"struct.std::_Vector_base"* %10, i32 0, i32 0, !dbg !2226
  %12 = getelementptr inbounds %"struct.std::_Vector_base<Dual, std::allocator<Dual> >::_Vector_impl", %"struct.std::_Vector_base<Dual, std::allocator<Dual> >::_Vector_impl"* %11, i32 0, i32 1, !dbg !2227
  %13 = load %class.Dual*, %class.Dual** %12, align 4, !dbg !2227
  %14 = bitcast %"class.std::vector"* %5 to %"struct.std::_Vector_base"*, !dbg !2228
  %15 = call dereferenceable(1) %"class.std::allocator"* @_ZNSt12_Vector_baseI4DualSaIS0_EE19_M_get_Tp_allocatorEv(%"struct.std::_Vector_base"* %14) #3, !dbg !2228
  invoke void @_ZSt8_DestroyIP4DualS0_EvT_S2_RSaIT0_E(%class.Dual* %9, %class.Dual* %13, %"class.std::allocator"* dereferenceable(1) %15)
          to label %16 unwind label %19, !dbg !2229

; <label>:16:                                     ; preds = %1
  %17 = bitcast %"class.std::vector"* %5 to %"struct.std::_Vector_base"*, !dbg !2230
  %18 = call %"struct.std::_Vector_base"* @_ZNSt12_Vector_baseI4DualSaIS0_EED2Ev(%"struct.std::_Vector_base"* %17) #3, !dbg !2230
  ret %"class.std::vector"* %5, !dbg !2230

; <label>:19:                                     ; preds = %1
  %20 = landingpad { i8*, i32 }
          catch i8* null, !dbg !2232
  %21 = extractvalue { i8*, i32 } %20, 0, !dbg !2232
  store i8* %21, i8** %3, align 4, !dbg !2232
  %22 = extractvalue { i8*, i32 } %20, 1, !dbg !2232
  store i32 %22, i32* %4, align 4, !dbg !2232
  %23 = bitcast %"class.std::vector"* %5 to %"struct.std::_Vector_base"*, !dbg !2232
  %24 = call %"struct.std::_Vector_base"* @_ZNSt12_Vector_baseI4DualSaIS0_EED2Ev(%"struct.std::_Vector_base"* %23) #3, !dbg !2232
  br label %25, !dbg !2232

; <label>:25:                                     ; preds = %19
  %26 = load i8*, i8** %3, align 4, !dbg !2234
  call void @__clang_call_terminate(i8* %26) #12, !dbg !2234
  unreachable, !dbg !2234
}

define void @_ZN4dual8jacobianEPFSt6vectorI4DualSaIS1_EERS3_ES4_(%"class.std::vector.0"* noalias sret, void (%"class.std::vector"*, %"class.std::vector"*)*, %"class.std::vector"* dereferenceable(12)) #0 personality i8* bitcast (i32 (...)* @__gxx_personality_v0 to i8*) !dbg !2236 !xidane.fname !2440 !xidane.function_declaration_type !2441 !xidane.function_declaration_filename !2001 {
  %4 = alloca void (%"class.std::vector"*, %"class.std::vector"*)*, align 4
  %5 = alloca %"class.std::vector"*, align 4
  %6 = alloca i1, align 1
  %7 = alloca %"class.std::vector", align 4
  %8 = alloca %"class.std::vector", align 4
  %9 = alloca %"class.std::allocator", align 1
  %10 = alloca i8*
  %11 = alloca i32
  %12 = alloca %"class.std::allocator.2", align 1
  %13 = alloca i32, align 4
  %14 = alloca i32, align 4
  %15 = alloca %class.Dual, align 8
  %16 = alloca %"class.std::vector", align 4
  store void (%"class.std::vector"*, %"class.std::vector"*)* %1, void (%"class.std::vector"*, %"class.std::vector"*)** %4, align 4
  call void @llvm.dbg.declare(metadata void (%"class.std::vector"*, %"class.std::vector"*)** %4, metadata !2442, metadata !2003), !dbg !2443
  store %"class.std::vector"* %2, %"class.std::vector"** %5, align 4
  call void @llvm.dbg.declare(metadata %"class.std::vector"** %5, metadata !2444, metadata !2003), !dbg !2445
  %17 = load %"class.std::vector"*, %"class.std::vector"** %5, align 4, !dbg !2446
  call void @_ZN4dual16resetDerivativesERSt6vectorI4DualSaIS1_EE(%"class.std::vector"* dereferenceable(12) %17), !dbg !2447
  store i1 false, i1* %6, align 1, !dbg !2448
  call void @llvm.dbg.declare(metadata %"class.std::vector.0"* %0, metadata !2449, metadata !2104), !dbg !2450
  %18 = load void (%"class.std::vector"*, %"class.std::vector"*)*, void (%"class.std::vector"*, %"class.std::vector"*)** %4, align 4, !dbg !2451
  %19 = load %"class.std::vector"*, %"class.std::vector"** %5, align 4, !dbg !2452
  call void %18(%"class.std::vector"* sret %7, %"class.std::vector"* dereferenceable(12) %19), !dbg !2451
  %20 = call i32 @_ZNKSt6vectorI4DualSaIS0_EE4sizeEv(%"class.std::vector"* %7) #3, !dbg !2453
  %21 = load %"class.std::vector"*, %"class.std::vector"** %5, align 4, !dbg !2455
  %22 = call i32 @_ZNKSt6vectorI4DualSaIS0_EE4sizeEv(%"class.std::vector"* %21) #3, !dbg !2456
  %23 = call %"class.std::allocator"* @_ZNSaI4DualEC2Ev(%"class.std::allocator"* %9) #3, !dbg !2458
  %24 = invoke %"class.std::vector"* @_ZNSt6vectorI4DualSaIS0_EEC2EjRKS1_(%"class.std::vector"* %8, i32 %22, %"class.std::allocator"* dereferenceable(1) %9)
          to label %25 unwind label %72, !dbg !2460

; <label>:25:                                     ; preds = %3
  %26 = call %"class.std::allocator.2"* @_ZNSaISt6vectorI4DualSaIS0_EEEC2Ev(%"class.std::allocator.2"* %12) #3, !dbg !2461
  %27 = invoke %"class.std::vector.0"* @_ZNSt6vectorIS_I4DualSaIS0_EESaIS2_EEC2EjRKS2_RKS3_(%"class.std::vector.0"* %0, i32 %20, %"class.std::vector"* dereferenceable(12) %8, %"class.std::allocator.2"* dereferenceable(1) %12)
          to label %28 unwind label %76, !dbg !2461

; <label>:28:                                     ; preds = %25
  %29 = call %"class.std::allocator.2"* @_ZNSaISt6vectorI4DualSaIS0_EEED2Ev(%"class.std::allocator.2"* %12) #3, !dbg !2463
  %30 = call %"class.std::vector"* @_ZNSt6vectorI4DualSaIS0_EED2Ev(%"class.std::vector"* %8) #3, !dbg !2465
  %31 = call %"class.std::allocator"* @_ZNSaI4DualED2Ev(%"class.std::allocator"* %9) #3, !dbg !2467
  %32 = call %"class.std::vector"* @_ZNSt6vectorI4DualSaIS0_EED2Ev(%"class.std::vector"* %7) #3, !dbg !2469
  call void @llvm.dbg.declare(metadata i32* %13, metadata !2471, metadata !2003), !dbg !2473
  store i32 0, i32* %13, align 4, !dbg !2473
  br label %33, !dbg !2474

; <label>:33:                                     ; preds = %95, %28
  %34 = load i32, i32* %13, align 4, !dbg !2475
  %35 = call i32 @_ZNKSt6vectorIS_I4DualSaIS0_EESaIS2_EE4sizeEv(%"class.std::vector.0"* %0) #3, !dbg !2478
  %36 = icmp ult i32 %34, %35, !dbg !2479
  br i1 %36, label %37, label %98, !dbg !2480

; <label>:37:                                     ; preds = %33
  call void @llvm.dbg.declare(metadata i32* %14, metadata !2481, metadata !2003), !dbg !2484
  store i32 0, i32* %14, align 4, !dbg !2484
  br label %38, !dbg !2485

; <label>:38:                                     ; preds = %69, %37
  %39 = load i32, i32* %14, align 4, !dbg !2486
  %40 = load i32, i32* %13, align 4, !dbg !2489
  %41 = call dereferenceable(12) %"class.std::vector"* @_ZNSt6vectorIS_I4DualSaIS0_EESaIS2_EEixEj(%"class.std::vector.0"* %0, i32 %40) #3, !dbg !2490
  %42 = call i32 @_ZNKSt6vectorI4DualSaIS0_EE4sizeEv(%"class.std::vector"* %41) #3, !dbg !2491
  %43 = icmp ult i32 %39, %42, !dbg !2493
  br i1 %43, label %44, label %94, !dbg !2494

; <label>:44:                                     ; preds = %38
  %45 = load %"class.std::vector"*, %"class.std::vector"** %5, align 4, !dbg !2495
  %46 = load i32, i32* %14, align 4, !dbg !2497
  %47 = call dereferenceable(16) %class.Dual* @_ZNSt6vectorI4DualSaIS0_EEixEj(%"class.std::vector"* %45, i32 %46) #3, !dbg !2495
  invoke void @_ZN4Dual13setDerivativeEd(%class.Dual* %47, double 1.000000e+00)
          to label %48 unwind label %85, !dbg !2498

; <label>:48:                                     ; preds = %44
  %49 = load i32, i32* %13, align 4, !dbg !2499
  %50 = call dereferenceable(12) %"class.std::vector"* @_ZNSt6vectorIS_I4DualSaIS0_EESaIS2_EEixEj(%"class.std::vector.0"* %0, i32 %49) #3, !dbg !2500
  %51 = load i32, i32* %14, align 4, !dbg !2501
  %52 = call dereferenceable(16) %class.Dual* @_ZNSt6vectorI4DualSaIS0_EEixEj(%"class.std::vector"* %50, i32 %51) #3, !dbg !2502
  %53 = load void (%"class.std::vector"*, %"class.std::vector"*)*, void (%"class.std::vector"*, %"class.std::vector"*)** %4, align 4, !dbg !2504
  %54 = load %"class.std::vector"*, %"class.std::vector"** %5, align 4, !dbg !2505
  invoke void %53(%"class.std::vector"* sret %16, %"class.std::vector"* dereferenceable(12) %54)
          to label %55 unwind label %85, !dbg !2504

; <label>:55:                                     ; preds = %48
  %56 = load i32, i32* %13, align 4, !dbg !2506
  %57 = call dereferenceable(16) %class.Dual* @_ZNSt6vectorI4DualSaIS0_EEixEj(%"class.std::vector"* %16, i32 %56) #3, !dbg !2508
  %58 = invoke double @_ZNK4Dual13getDerivativeEv(%class.Dual* %57)
          to label %59 unwind label %89, !dbg !2509

; <label>:59:                                     ; preds = %55
  %60 = invoke %class.Dual* @_ZN4DualC1Ed(%class.Dual* %15, double %58)
          to label %61 unwind label %89, !dbg !2510

; <label>:61:                                     ; preds = %59
  %62 = bitcast %class.Dual* %52 to i8*, !dbg !2512
  %63 = bitcast %class.Dual* %15 to i8*, !dbg !2512
  call void @llvm.memcpy.p0i8.p0i8.i32(i8* %62, i8* %63, i32 16, i32 8, i1 false), !dbg !2512
  %64 = call %"class.std::vector"* @_ZNSt6vectorI4DualSaIS0_EED2Ev(%"class.std::vector"* %16) #3, !dbg !2514
  %65 = load %"class.std::vector"*, %"class.std::vector"** %5, align 4, !dbg !2516
  %66 = load i32, i32* %14, align 4, !dbg !2517
  %67 = call dereferenceable(16) %class.Dual* @_ZNSt6vectorI4DualSaIS0_EEixEj(%"class.std::vector"* %65, i32 %66) #3, !dbg !2516
  invoke void @_ZN4Dual13setDerivativeEd(%class.Dual* %67, double 0.000000e+00)
          to label %68 unwind label %85, !dbg !2518

; <label>:68:                                     ; preds = %61
  br label %69, !dbg !2519

; <label>:69:                                     ; preds = %68
  %70 = load i32, i32* %14, align 4, !dbg !2520
  %71 = add i32 %70, 1, !dbg !2520
  store i32 %71, i32* %14, align 4, !dbg !2520
  br label %38, !dbg !2522, !llvm.loop !2523

; <label>:72:                                     ; preds = %3
  %73 = landingpad { i8*, i32 }
          cleanup, !dbg !2525
  %74 = extractvalue { i8*, i32 } %73, 0, !dbg !2525
  store i8* %74, i8** %10, align 4, !dbg !2525
  %75 = extractvalue { i8*, i32 } %73, 1, !dbg !2525
  store i32 %75, i32* %11, align 4, !dbg !2525
  br label %82, !dbg !2525

; <label>:76:                                     ; preds = %25
  %77 = landingpad { i8*, i32 }
          cleanup, !dbg !2526
  %78 = extractvalue { i8*, i32 } %77, 0, !dbg !2526
  store i8* %78, i8** %10, align 4, !dbg !2526
  %79 = extractvalue { i8*, i32 } %77, 1, !dbg !2526
  store i32 %79, i32* %11, align 4, !dbg !2526
  %80 = call %"class.std::allocator.2"* @_ZNSaISt6vectorI4DualSaIS0_EEED2Ev(%"class.std::allocator.2"* %12) #3, !dbg !2527
  %81 = call %"class.std::vector"* @_ZNSt6vectorI4DualSaIS0_EED2Ev(%"class.std::vector"* %8) #3, !dbg !2529
  br label %82, !dbg !2527

; <label>:82:                                     ; preds = %76, %72
  %83 = call %"class.std::allocator"* @_ZNSaI4DualED2Ev(%"class.std::allocator"* %9) #3, !dbg !2531
  %84 = call %"class.std::vector"* @_ZNSt6vectorI4DualSaIS0_EED2Ev(%"class.std::vector"* %7) #3, !dbg !2533
  br label %105, !dbg !2531

; <label>:85:                                     ; preds = %61, %48, %44
  %86 = landingpad { i8*, i32 }
          cleanup, !dbg !2535
  %87 = extractvalue { i8*, i32 } %86, 0, !dbg !2535
  store i8* %87, i8** %10, align 4, !dbg !2535
  %88 = extractvalue { i8*, i32 } %86, 1, !dbg !2535
  store i32 %88, i32* %11, align 4, !dbg !2535
  br label %103, !dbg !2535

; <label>:89:                                     ; preds = %59, %55
  %90 = landingpad { i8*, i32 }
          cleanup, !dbg !2536
  %91 = extractvalue { i8*, i32 } %90, 0, !dbg !2536
  store i8* %91, i8** %10, align 4, !dbg !2536
  %92 = extractvalue { i8*, i32 } %90, 1, !dbg !2536
  store i32 %92, i32* %11, align 4, !dbg !2536
  %93 = call %"class.std::vector"* @_ZNSt6vectorI4DualSaIS0_EED2Ev(%"class.std::vector"* %16) #3, !dbg !2537
  br label %103, !dbg !2537

; <label>:94:                                     ; preds = %38
  br label %95, !dbg !2539

; <label>:95:                                     ; preds = %94
  %96 = load i32, i32* %13, align 4, !dbg !2540
  %97 = add i32 %96, 1, !dbg !2540
  store i32 %97, i32* %13, align 4, !dbg !2540
  br label %33, !dbg !2542, !llvm.loop !2543

; <label>:98:                                     ; preds = %33
  store i1 true, i1* %6, align 1, !dbg !2545
  %99 = load i1, i1* %6, align 1, !dbg !2546
  br i1 %99, label %102, label %100, !dbg !2546

; <label>:100:                                    ; preds = %98
  %101 = call %"class.std::vector.0"* @_ZNSt6vectorIS_I4DualSaIS0_EESaIS2_EED2Ev(%"class.std::vector.0"* %0) #3, !dbg !2547
  br label %102, !dbg !2547

; <label>:102:                                    ; preds = %100, %98
  ret void, !dbg !2549

; <label>:103:                                    ; preds = %89, %85
  %104 = call %"class.std::vector.0"* @_ZNSt6vectorIS_I4DualSaIS0_EESaIS2_EED2Ev(%"class.std::vector.0"* %0) #3, !dbg !2550
  br label %105, !dbg !2550

; <label>:105:                                    ; preds = %103, %82
  %106 = load i8*, i8** %10, align 4, !dbg !2551
  %107 = load i32, i32* %11, align 4, !dbg !2551
  %108 = insertvalue { i8*, i32 } undef, i8* %106, 0, !dbg !2551
  %109 = insertvalue { i8*, i32 } %108, i32 %107, 1, !dbg !2551
  resume { i8*, i32 } %109, !dbg !2551
}

; Function Attrs: nounwind
define linkonce_odr %"class.std::allocator.2"* @_ZNSaISt6vectorI4DualSaIS0_EEEC2Ev(%"class.std::allocator.2"* returned) unnamed_addr #5 comdat align 2 !dbg !2552 !xidane.fname !2167 !xidane.function_declaration_type !1991 !xidane.function_declaration_filename !2168 {
  %2 = alloca %"class.std::allocator.2"*, align 4
  store %"class.std::allocator.2"* %0, %"class.std::allocator.2"** %2, align 4
  call void @llvm.dbg.declare(metadata %"class.std::allocator.2"** %2, metadata !2553, metadata !2003), !dbg !2555
  %3 = load %"class.std::allocator.2"*, %"class.std::allocator.2"** %2, align 4
  %4 = bitcast %"class.std::allocator.2"* %3 to %"class.__gnu_cxx::new_allocator.3"*, !dbg !2556
  %5 = call %"class.__gnu_cxx::new_allocator.3"* @_ZN9__gnu_cxx13new_allocatorISt6vectorI4DualSaIS2_EEEC2Ev(%"class.__gnu_cxx::new_allocator.3"* %4) #3, !dbg !2557
  ret %"class.std::allocator.2"* %3, !dbg !2558
}

define linkonce_odr %"class.std::vector.0"* @_ZNSt6vectorIS_I4DualSaIS0_EESaIS2_EEC2EjRKS2_RKS3_(%"class.std::vector.0"* returned, i32, %"class.std::vector"* dereferenceable(12), %"class.std::allocator.2"* dereferenceable(1)) unnamed_addr #0 comdat align 2 personality i8* bitcast (i32 (...)* @__gxx_personality_v0 to i8*) !dbg !2559 !xidane.fname !2176 !xidane.function_declaration_type !2560 !xidane.function_declaration_filename !2034 {
  %5 = alloca %"class.std::vector.0"*, align 4
  %6 = alloca i32, align 4
  %7 = alloca %"class.std::vector"*, align 4
  %8 = alloca %"class.std::allocator.2"*, align 4
  %9 = alloca i8*
  %10 = alloca i32
  store %"class.std::vector.0"* %0, %"class.std::vector.0"** %5, align 4
  call void @llvm.dbg.declare(metadata %"class.std::vector.0"** %5, metadata !2561, metadata !2003), !dbg !2563
  store i32 %1, i32* %6, align 4
  call void @llvm.dbg.declare(metadata i32* %6, metadata !2564, metadata !2003), !dbg !2565
  store %"class.std::vector"* %2, %"class.std::vector"** %7, align 4
  call void @llvm.dbg.declare(metadata %"class.std::vector"** %7, metadata !2566, metadata !2003), !dbg !2567
  store %"class.std::allocator.2"* %3, %"class.std::allocator.2"** %8, align 4
  call void @llvm.dbg.declare(metadata %"class.std::allocator.2"** %8, metadata !2568, metadata !2003), !dbg !2569
  %11 = load %"class.std::vector.0"*, %"class.std::vector.0"** %5, align 4
  %12 = bitcast %"class.std::vector.0"* %11 to %"struct.std::_Vector_base.1"*, !dbg !2570
  %13 = load i32, i32* %6, align 4, !dbg !2571
  %14 = load %"class.std::allocator.2"*, %"class.std::allocator.2"** %8, align 4, !dbg !2572
  %15 = call %"struct.std::_Vector_base.1"* @_ZNSt12_Vector_baseISt6vectorI4DualSaIS1_EESaIS3_EEC2EjRKS4_(%"struct.std::_Vector_base.1"* %12, i32 %13, %"class.std::allocator.2"* dereferenceable(1) %14), !dbg !2573
  %16 = load i32, i32* %6, align 4, !dbg !2574
  %17 = load %"class.std::vector"*, %"class.std::vector"** %7, align 4, !dbg !2576
  invoke void @_ZNSt6vectorIS_I4DualSaIS0_EESaIS2_EE18_M_fill_initializeEjRKS2_(%"class.std::vector.0"* %11, i32 %16, %"class.std::vector"* dereferenceable(12) %17)
          to label %18 unwind label %19, !dbg !2577

; <label>:18:                                     ; preds = %4
  ret %"class.std::vector.0"* %11, !dbg !2578

; <label>:19:                                     ; preds = %4
  %20 = landingpad { i8*, i32 }
          cleanup, !dbg !2580
  %21 = extractvalue { i8*, i32 } %20, 0, !dbg !2580
  store i8* %21, i8** %9, align 4, !dbg !2580
  %22 = extractvalue { i8*, i32 } %20, 1, !dbg !2580
  store i32 %22, i32* %10, align 4, !dbg !2580
  %23 = bitcast %"class.std::vector.0"* %11 to %"struct.std::_Vector_base.1"*, !dbg !2580
  %24 = call %"struct.std::_Vector_base.1"* @_ZNSt12_Vector_baseISt6vectorI4DualSaIS1_EESaIS3_EED2Ev(%"struct.std::_Vector_base.1"* %23) #3, !dbg !2580
  br label %25, !dbg !2580

; <label>:25:                                     ; preds = %19
  %26 = load i8*, i8** %9, align 4, !dbg !2582
  %27 = load i32, i32* %10, align 4, !dbg !2582
  %28 = insertvalue { i8*, i32 } undef, i8* %26, 0, !dbg !2582
  %29 = insertvalue { i8*, i32 } %28, i32 %27, 1, !dbg !2582
  resume { i8*, i32 } %29, !dbg !2582
}

; Function Attrs: nounwind
define linkonce_odr %"class.std::allocator.2"* @_ZNSaISt6vectorI4DualSaIS0_EEED2Ev(%"class.std::allocator.2"* returned) unnamed_addr #5 comdat align 2 !dbg !2584 !xidane.fname !2198 !xidane.function_declaration_type !1991 !xidane.function_declaration_filename !2168 {
  %2 = alloca %"class.std::allocator.2"*, align 4
  store %"class.std::allocator.2"* %0, %"class.std::allocator.2"** %2, align 4
  call void @llvm.dbg.declare(metadata %"class.std::allocator.2"** %2, metadata !2585, metadata !2003), !dbg !2586
  %3 = load %"class.std::allocator.2"*, %"class.std::allocator.2"** %2, align 4
  %4 = bitcast %"class.std::allocator.2"* %3 to %"class.__gnu_cxx::new_allocator.3"*, !dbg !2587
  %5 = call %"class.__gnu_cxx::new_allocator.3"* @_ZN9__gnu_cxx13new_allocatorISt6vectorI4DualSaIS2_EEED2Ev(%"class.__gnu_cxx::new_allocator.3"* %4) #3, !dbg !2587
  ret %"class.std::allocator.2"* %3, !dbg !2589
}

; Function Attrs: nounwind
define linkonce_odr i32 @_ZNKSt6vectorIS_I4DualSaIS0_EESaIS2_EE4sizeEv(%"class.std::vector.0"*) #5 comdat align 2 !dbg !2590 !xidane.fname !2156 !xidane.function_declaration_type !2157 !xidane.function_declaration_filename !2034 {
  %2 = alloca %"class.std::vector.0"*, align 4
  store %"class.std::vector.0"* %0, %"class.std::vector.0"** %2, align 4
  call void @llvm.dbg.declare(metadata %"class.std::vector.0"** %2, metadata !2591, metadata !2003), !dbg !2593
  %3 = load %"class.std::vector.0"*, %"class.std::vector.0"** %2, align 4
  %4 = bitcast %"class.std::vector.0"* %3 to %"struct.std::_Vector_base.1"*, !dbg !2594
  %5 = getelementptr inbounds %"struct.std::_Vector_base.1", %"struct.std::_Vector_base.1"* %4, i32 0, i32 0, !dbg !2594
  %6 = getelementptr inbounds %"struct.std::_Vector_base<std::vector<Dual, std::allocator<Dual> >, std::allocator<std::vector<Dual, std::allocator<Dual> > > >::_Vector_impl", %"struct.std::_Vector_base<std::vector<Dual, std::allocator<Dual> >, std::allocator<std::vector<Dual, std::allocator<Dual> > > >::_Vector_impl"* %5, i32 0, i32 1, !dbg !2595
  %7 = load %"class.std::vector"*, %"class.std::vector"** %6, align 4, !dbg !2595
  %8 = bitcast %"class.std::vector.0"* %3 to %"struct.std::_Vector_base.1"*, !dbg !2596
  %9 = getelementptr inbounds %"struct.std::_Vector_base.1", %"struct.std::_Vector_base.1"* %8, i32 0, i32 0, !dbg !2596
  %10 = getelementptr inbounds %"struct.std::_Vector_base<std::vector<Dual, std::allocator<Dual> >, std::allocator<std::vector<Dual, std::allocator<Dual> > > >::_Vector_impl", %"struct.std::_Vector_base<std::vector<Dual, std::allocator<Dual> >, std::allocator<std::vector<Dual, std::allocator<Dual> > > >::_Vector_impl"* %9, i32 0, i32 0, !dbg !2597
  %11 = load %"class.std::vector"*, %"class.std::vector"** %10, align 4, !dbg !2597
  %12 = ptrtoint %"class.std::vector"* %7 to i32, !dbg !2598
  %13 = ptrtoint %"class.std::vector"* %11 to i32, !dbg !2598
  %14 = sub i32 %12, %13, !dbg !2598
  %15 = sdiv exact i32 %14, 12, !dbg !2598
  ret i32 %15, !dbg !2599
}

; Function Attrs: nounwind
define linkonce_odr dereferenceable(12) %"class.std::vector"* @_ZNSt6vectorIS_I4DualSaIS0_EESaIS2_EEixEj(%"class.std::vector.0"*, i32) #5 comdat align 2 !dbg !2600 !xidane.fname !2205 !xidane.function_declaration_type !2206 !xidane.function_declaration_filename !2034 {
  %3 = alloca %"class.std::vector.0"*, align 4
  %4 = alloca i32, align 4
  store %"class.std::vector.0"* %0, %"class.std::vector.0"** %3, align 4
  call void @llvm.dbg.declare(metadata %"class.std::vector.0"** %3, metadata !2601, metadata !2003), !dbg !2602
  store i32 %1, i32* %4, align 4
  call void @llvm.dbg.declare(metadata i32* %4, metadata !2603, metadata !2003), !dbg !2604
  %5 = load %"class.std::vector.0"*, %"class.std::vector.0"** %3, align 4
  %6 = bitcast %"class.std::vector.0"* %5 to %"struct.std::_Vector_base.1"*, !dbg !2605
  %7 = getelementptr inbounds %"struct.std::_Vector_base.1", %"struct.std::_Vector_base.1"* %6, i32 0, i32 0, !dbg !2605
  %8 = getelementptr inbounds %"struct.std::_Vector_base<std::vector<Dual, std::allocator<Dual> >, std::allocator<std::vector<Dual, std::allocator<Dual> > > >::_Vector_impl", %"struct.std::_Vector_base<std::vector<Dual, std::allocator<Dual> >, std::allocator<std::vector<Dual, std::allocator<Dual> > > >::_Vector_impl"* %7, i32 0, i32 0, !dbg !2606
  %9 = load %"class.std::vector"*, %"class.std::vector"** %8, align 4, !dbg !2606
  %10 = load i32, i32* %4, align 4, !dbg !2607
  %11 = getelementptr inbounds %"class.std::vector", %"class.std::vector"* %9, i32 %10, !dbg !2608
  ret %"class.std::vector"* %11, !dbg !2609
}

; Function Attrs: nounwind
define linkonce_odr %"class.std::vector.0"* @_ZNSt6vectorIS_I4DualSaIS0_EESaIS2_EED2Ev(%"class.std::vector.0"* returned) unnamed_addr #5 comdat align 2 personality i8* bitcast (i32 (...)* @__gxx_personality_v0 to i8*) !dbg !2610 !xidane.fname !2220 !xidane.function_declaration_type !1991 !xidane.function_declaration_filename !2034 {
  %2 = alloca %"class.std::vector.0"*, align 4
  %3 = alloca i8*
  %4 = alloca i32
  store %"class.std::vector.0"* %0, %"class.std::vector.0"** %2, align 4
  call void @llvm.dbg.declare(metadata %"class.std::vector.0"** %2, metadata !2611, metadata !2003), !dbg !2612
  %5 = load %"class.std::vector.0"*, %"class.std::vector.0"** %2, align 4
  %6 = bitcast %"class.std::vector.0"* %5 to %"struct.std::_Vector_base.1"*, !dbg !2613
  %7 = getelementptr inbounds %"struct.std::_Vector_base.1", %"struct.std::_Vector_base.1"* %6, i32 0, i32 0, !dbg !2613
  %8 = getelementptr inbounds %"struct.std::_Vector_base<std::vector<Dual, std::allocator<Dual> >, std::allocator<std::vector<Dual, std::allocator<Dual> > > >::_Vector_impl", %"struct.std::_Vector_base<std::vector<Dual, std::allocator<Dual> >, std::allocator<std::vector<Dual, std::allocator<Dual> > > >::_Vector_impl"* %7, i32 0, i32 0, !dbg !2615
  %9 = load %"class.std::vector"*, %"class.std::vector"** %8, align 4, !dbg !2615
  %10 = bitcast %"class.std::vector.0"* %5 to %"struct.std::_Vector_base.1"*, !dbg !2616
  %11 = getelementptr inbounds %"struct.std::_Vector_base.1", %"struct.std::_Vector_base.1"* %10, i32 0, i32 0, !dbg !2616
  %12 = getelementptr inbounds %"struct.std::_Vector_base<std::vector<Dual, std::allocator<Dual> >, std::allocator<std::vector<Dual, std::allocator<Dual> > > >::_Vector_impl", %"struct.std::_Vector_base<std::vector<Dual, std::allocator<Dual> >, std::allocator<std::vector<Dual, std::allocator<Dual> > > >::_Vector_impl"* %11, i32 0, i32 1, !dbg !2617
  %13 = load %"class.std::vector"*, %"class.std::vector"** %12, align 4, !dbg !2617
  %14 = bitcast %"class.std::vector.0"* %5 to %"struct.std::_Vector_base.1"*, !dbg !2618
  %15 = call dereferenceable(1) %"class.std::allocator.2"* @_ZNSt12_Vector_baseISt6vectorI4DualSaIS1_EESaIS3_EE19_M_get_Tp_allocatorEv(%"struct.std::_Vector_base.1"* %14) #3, !dbg !2618
  invoke void @_ZSt8_DestroyIPSt6vectorI4DualSaIS1_EES3_EvT_S5_RSaIT0_E(%"class.std::vector"* %9, %"class.std::vector"* %13, %"class.std::allocator.2"* dereferenceable(1) %15)
          to label %16 unwind label %19, !dbg !2619

; <label>:16:                                     ; preds = %1
  %17 = bitcast %"class.std::vector.0"* %5 to %"struct.std::_Vector_base.1"*, !dbg !2620
  %18 = call %"struct.std::_Vector_base.1"* @_ZNSt12_Vector_baseISt6vectorI4DualSaIS1_EESaIS3_EED2Ev(%"struct.std::_Vector_base.1"* %17) #3, !dbg !2620
  ret %"class.std::vector.0"* %5, !dbg !2620

; <label>:19:                                     ; preds = %1
  %20 = landingpad { i8*, i32 }
          catch i8* null, !dbg !2622
  %21 = extractvalue { i8*, i32 } %20, 0, !dbg !2622
  store i8* %21, i8** %3, align 4, !dbg !2622
  %22 = extractvalue { i8*, i32 } %20, 1, !dbg !2622
  store i32 %22, i32* %4, align 4, !dbg !2622
  %23 = bitcast %"class.std::vector.0"* %5 to %"struct.std::_Vector_base.1"*, !dbg !2622
  %24 = call %"struct.std::_Vector_base.1"* @_ZNSt12_Vector_baseISt6vectorI4DualSaIS1_EESaIS3_EED2Ev(%"struct.std::_Vector_base.1"* %23) #3, !dbg !2622
  br label %25, !dbg !2622

; <label>:25:                                     ; preds = %19
  %26 = load i8*, i8** %3, align 4, !dbg !2624
  call void @__clang_call_terminate(i8* %26) #12, !dbg !2624
  unreachable, !dbg !2624
}

; Function Attrs: nounwind
define linkonce_odr %"class.__gnu_cxx::__normal_iterator"* @_ZN9__gnu_cxx17__normal_iteratorIP4DualSt6vectorIS1_SaIS1_EEEC2ERKS2_(%"class.__gnu_cxx::__normal_iterator"* returned, %class.Dual** dereferenceable(4)) unnamed_addr #5 comdat align 2 !dbg !2626 !xidane.fname !2627 !xidane.function_declaration_type !2628 !xidane.function_declaration_filename !2055 {
  %3 = alloca %"class.__gnu_cxx::__normal_iterator"*, align 4
  %4 = alloca %class.Dual**, align 4
  store %"class.__gnu_cxx::__normal_iterator"* %0, %"class.__gnu_cxx::__normal_iterator"** %3, align 4
  call void @llvm.dbg.declare(metadata %"class.__gnu_cxx::__normal_iterator"** %3, metadata !2629, metadata !2003), !dbg !2630
  store %class.Dual** %1, %class.Dual*** %4, align 4
  call void @llvm.dbg.declare(metadata %class.Dual*** %4, metadata !2631, metadata !2003), !dbg !2632
  %5 = load %"class.__gnu_cxx::__normal_iterator"*, %"class.__gnu_cxx::__normal_iterator"** %3, align 4
  %6 = getelementptr inbounds %"class.__gnu_cxx::__normal_iterator", %"class.__gnu_cxx::__normal_iterator"* %5, i32 0, i32 0, !dbg !2633
  %7 = load %class.Dual**, %class.Dual*** %4, align 4, !dbg !2634
  %8 = load %class.Dual*, %class.Dual** %7, align 4, !dbg !2634
  store %class.Dual* %8, %class.Dual** %6, align 4, !dbg !2633
  ret %"class.__gnu_cxx::__normal_iterator"* %5, !dbg !2635
}

; Function Attrs: nounwind
define linkonce_odr dereferenceable(4) %class.Dual** @_ZNK9__gnu_cxx17__normal_iteratorIP4DualSt6vectorIS1_SaIS1_EEE4baseEv(%"class.__gnu_cxx::__normal_iterator"*) #5 comdat align 2 !dbg !2636 !xidane.fname !2637 !xidane.function_declaration_type !2638 !xidane.function_declaration_filename !2055 {
  %2 = alloca %"class.__gnu_cxx::__normal_iterator"*, align 4
  store %"class.__gnu_cxx::__normal_iterator"* %0, %"class.__gnu_cxx::__normal_iterator"** %2, align 4
  call void @llvm.dbg.declare(metadata %"class.__gnu_cxx::__normal_iterator"** %2, metadata !2639, metadata !2003), !dbg !2640
  %3 = load %"class.__gnu_cxx::__normal_iterator"*, %"class.__gnu_cxx::__normal_iterator"** %2, align 4
  %4 = getelementptr inbounds %"class.__gnu_cxx::__normal_iterator", %"class.__gnu_cxx::__normal_iterator"* %3, i32 0, i32 0, !dbg !2641
  ret %class.Dual** %4, !dbg !2642
}

; Function Attrs: nounwind
define linkonce_odr %"class.__gnu_cxx::new_allocator"* @_ZN9__gnu_cxx13new_allocatorI4DualEC2Ev(%"class.__gnu_cxx::new_allocator"* returned) unnamed_addr #5 comdat align 2 !dbg !2643 !xidane.fname !2644 !xidane.function_declaration_type !1991 !xidane.function_declaration_filename !2645 {
  %2 = alloca %"class.__gnu_cxx::new_allocator"*, align 4
  store %"class.__gnu_cxx::new_allocator"* %0, %"class.__gnu_cxx::new_allocator"** %2, align 4
  call void @llvm.dbg.declare(metadata %"class.__gnu_cxx::new_allocator"** %2, metadata !2646, metadata !2003), !dbg !2648
  %3 = load %"class.__gnu_cxx::new_allocator"*, %"class.__gnu_cxx::new_allocator"** %2, align 4
  ret %"class.__gnu_cxx::new_allocator"* %3, !dbg !2649
}

; Function Attrs: nounwind
define linkonce_odr %"class.__gnu_cxx::new_allocator"* @_ZN9__gnu_cxx13new_allocatorI4DualED2Ev(%"class.__gnu_cxx::new_allocator"* returned) unnamed_addr #5 comdat align 2 !dbg !2650 !xidane.fname !2651 !xidane.function_declaration_type !1991 !xidane.function_declaration_filename !2645 {
  %2 = alloca %"class.__gnu_cxx::new_allocator"*, align 4
  store %"class.__gnu_cxx::new_allocator"* %0, %"class.__gnu_cxx::new_allocator"** %2, align 4
  call void @llvm.dbg.declare(metadata %"class.__gnu_cxx::new_allocator"** %2, metadata !2652, metadata !2003), !dbg !2653
  %3 = load %"class.__gnu_cxx::new_allocator"*, %"class.__gnu_cxx::new_allocator"** %2, align 4
  ret %"class.__gnu_cxx::new_allocator"* %3, !dbg !2654
}

define linkonce_odr %"struct.std::_Vector_base"* @_ZNSt12_Vector_baseI4DualSaIS0_EEC2EjRKS1_(%"struct.std::_Vector_base"* returned, i32, %"class.std::allocator"* dereferenceable(1)) unnamed_addr #0 comdat align 2 personality i8* bitcast (i32 (...)* @__gxx_personality_v0 to i8*) !dbg !2655 !xidane.fname !2656 !xidane.function_declaration_type !2657 !xidane.function_declaration_filename !2034 {
  %4 = alloca %"struct.std::_Vector_base"*, align 4
  %5 = alloca i32, align 4
  %6 = alloca %"class.std::allocator"*, align 4
  %7 = alloca i8*
  %8 = alloca i32
  store %"struct.std::_Vector_base"* %0, %"struct.std::_Vector_base"** %4, align 4
  call void @llvm.dbg.declare(metadata %"struct.std::_Vector_base"** %4, metadata !2658, metadata !2003), !dbg !2660
  store i32 %1, i32* %5, align 4
  call void @llvm.dbg.declare(metadata i32* %5, metadata !2661, metadata !2003), !dbg !2662
  store %"class.std::allocator"* %2, %"class.std::allocator"** %6, align 4
  call void @llvm.dbg.declare(metadata %"class.std::allocator"** %6, metadata !2663, metadata !2003), !dbg !2664
  %9 = load %"struct.std::_Vector_base"*, %"struct.std::_Vector_base"** %4, align 4
  %10 = getelementptr inbounds %"struct.std::_Vector_base", %"struct.std::_Vector_base"* %9, i32 0, i32 0, !dbg !2665
  %11 = load %"class.std::allocator"*, %"class.std::allocator"** %6, align 4, !dbg !2666
  %12 = call %"struct.std::_Vector_base<Dual, std::allocator<Dual> >::_Vector_impl"* @_ZNSt12_Vector_baseI4DualSaIS0_EE12_Vector_implC2ERKS1_(%"struct.std::_Vector_base<Dual, std::allocator<Dual> >::_Vector_impl"* %10, %"class.std::allocator"* dereferenceable(1) %11) #3, !dbg !2665
  %13 = load i32, i32* %5, align 4, !dbg !2667
  invoke void @_ZNSt12_Vector_baseI4DualSaIS0_EE17_M_create_storageEj(%"struct.std::_Vector_base"* %9, i32 %13)
          to label %14 unwind label %15, !dbg !2669

; <label>:14:                                     ; preds = %3
  ret %"struct.std::_Vector_base"* %9, !dbg !2670

; <label>:15:                                     ; preds = %3
  %16 = landingpad { i8*, i32 }
          cleanup, !dbg !2672
  %17 = extractvalue { i8*, i32 } %16, 0, !dbg !2672
  store i8* %17, i8** %7, align 4, !dbg !2672
  %18 = extractvalue { i8*, i32 } %16, 1, !dbg !2672
  store i32 %18, i32* %8, align 4, !dbg !2672
  %19 = call %"struct.std::_Vector_base<Dual, std::allocator<Dual> >::_Vector_impl"* @_ZNSt12_Vector_baseI4DualSaIS0_EE12_Vector_implD2Ev(%"struct.std::_Vector_base<Dual, std::allocator<Dual> >::_Vector_impl"* %10) #3, !dbg !2672
  br label %20, !dbg !2672

; <label>:20:                                     ; preds = %15
  %21 = load i8*, i8** %7, align 4, !dbg !2674
  %22 = load i32, i32* %8, align 4, !dbg !2674
  %23 = insertvalue { i8*, i32 } undef, i8* %21, 0, !dbg !2674
  %24 = insertvalue { i8*, i32 } %23, i32 %22, 1, !dbg !2674
  resume { i8*, i32 } %24, !dbg !2674
}

define linkonce_odr void @_ZNSt6vectorI4DualSaIS0_EE21_M_default_initializeEj(%"class.std::vector"*, i32) #0 comdat align 2 !dbg !2676 !xidane.fname !2677 !xidane.function_declaration_type !2678 !xidane.function_declaration_filename !2034 {
  %3 = alloca %"class.std::vector"*, align 4
  %4 = alloca i32, align 4
  store %"class.std::vector"* %0, %"class.std::vector"** %3, align 4
  call void @llvm.dbg.declare(metadata %"class.std::vector"** %3, metadata !2679, metadata !2003), !dbg !2680
  store i32 %1, i32* %4, align 4
  call void @llvm.dbg.declare(metadata i32* %4, metadata !2681, metadata !2003), !dbg !2682
  %5 = load %"class.std::vector"*, %"class.std::vector"** %3, align 4
  %6 = bitcast %"class.std::vector"* %5 to %"struct.std::_Vector_base"*, !dbg !2683
  %7 = getelementptr inbounds %"struct.std::_Vector_base", %"struct.std::_Vector_base"* %6, i32 0, i32 0, !dbg !2683
  %8 = getelementptr inbounds %"struct.std::_Vector_base<Dual, std::allocator<Dual> >::_Vector_impl", %"struct.std::_Vector_base<Dual, std::allocator<Dual> >::_Vector_impl"* %7, i32 0, i32 0, !dbg !2684
  %9 = load %class.Dual*, %class.Dual** %8, align 4, !dbg !2684
  %10 = load i32, i32* %4, align 4, !dbg !2685
  %11 = bitcast %"class.std::vector"* %5 to %"struct.std::_Vector_base"*, !dbg !2686
  %12 = call dereferenceable(1) %"class.std::allocator"* @_ZNSt12_Vector_baseI4DualSaIS0_EE19_M_get_Tp_allocatorEv(%"struct.std::_Vector_base"* %11) #3, !dbg !2686
  %13 = call %class.Dual* @_ZSt27__uninitialized_default_n_aIP4DualjS0_ET_S2_T0_RSaIT1_E(%class.Dual* %9, i32 %10, %"class.std::allocator"* dereferenceable(1) %12), !dbg !2687
  %14 = bitcast %"class.std::vector"* %5 to %"struct.std::_Vector_base"*, !dbg !2688
  %15 = getelementptr inbounds %"struct.std::_Vector_base", %"struct.std::_Vector_base"* %14, i32 0, i32 0, !dbg !2688
  %16 = getelementptr inbounds %"struct.std::_Vector_base<Dual, std::allocator<Dual> >::_Vector_impl", %"struct.std::_Vector_base<Dual, std::allocator<Dual> >::_Vector_impl"* %15, i32 0, i32 1, !dbg !2689
  store %class.Dual* %13, %class.Dual** %16, align 4, !dbg !2690
  ret void, !dbg !2691
}

; Function Attrs: nounwind
define linkonce_odr %"struct.std::_Vector_base"* @_ZNSt12_Vector_baseI4DualSaIS0_EED2Ev(%"struct.std::_Vector_base"* returned) unnamed_addr #5 comdat align 2 personality i8* bitcast (i32 (...)* @__gxx_personality_v0 to i8*) !dbg !2692 !xidane.fname !2693 !xidane.function_declaration_type !1991 !xidane.function_declaration_filename !2034 {
  %2 = alloca %"struct.std::_Vector_base"*, align 4
  %3 = alloca i8*
  %4 = alloca i32
  store %"struct.std::_Vector_base"* %0, %"struct.std::_Vector_base"** %2, align 4
  call void @llvm.dbg.declare(metadata %"struct.std::_Vector_base"** %2, metadata !2694, metadata !2003), !dbg !2695
  %5 = load %"struct.std::_Vector_base"*, %"struct.std::_Vector_base"** %2, align 4
  %6 = getelementptr inbounds %"struct.std::_Vector_base", %"struct.std::_Vector_base"* %5, i32 0, i32 0, !dbg !2696
  %7 = getelementptr inbounds %"struct.std::_Vector_base<Dual, std::allocator<Dual> >::_Vector_impl", %"struct.std::_Vector_base<Dual, std::allocator<Dual> >::_Vector_impl"* %6, i32 0, i32 0, !dbg !2698
  %8 = load %class.Dual*, %class.Dual** %7, align 4, !dbg !2698
  %9 = getelementptr inbounds %"struct.std::_Vector_base", %"struct.std::_Vector_base"* %5, i32 0, i32 0, !dbg !2699
  %10 = getelementptr inbounds %"struct.std::_Vector_base<Dual, std::allocator<Dual> >::_Vector_impl", %"struct.std::_Vector_base<Dual, std::allocator<Dual> >::_Vector_impl"* %9, i32 0, i32 2, !dbg !2700
  %11 = load %class.Dual*, %class.Dual** %10, align 4, !dbg !2700
  %12 = getelementptr inbounds %"struct.std::_Vector_base", %"struct.std::_Vector_base"* %5, i32 0, i32 0, !dbg !2701
  %13 = getelementptr inbounds %"struct.std::_Vector_base<Dual, std::allocator<Dual> >::_Vector_impl", %"struct.std::_Vector_base<Dual, std::allocator<Dual> >::_Vector_impl"* %12, i32 0, i32 0, !dbg !2702
  %14 = load %class.Dual*, %class.Dual** %13, align 4, !dbg !2702
  %15 = ptrtoint %class.Dual* %11 to i32, !dbg !2703
  %16 = ptrtoint %class.Dual* %14 to i32, !dbg !2703
  %17 = sub i32 %15, %16, !dbg !2703
  %18 = sdiv exact i32 %17, 16, !dbg !2703
  invoke void @_ZNSt12_Vector_baseI4DualSaIS0_EE13_M_deallocateEPS0_j(%"struct.std::_Vector_base"* %5, %class.Dual* %8, i32 %18)
          to label %19 unwind label %22, !dbg !2704

; <label>:19:                                     ; preds = %1
  %20 = getelementptr inbounds %"struct.std::_Vector_base", %"struct.std::_Vector_base"* %5, i32 0, i32 0, !dbg !2705
  %21 = call %"struct.std::_Vector_base<Dual, std::allocator<Dual> >::_Vector_impl"* @_ZNSt12_Vector_baseI4DualSaIS0_EE12_Vector_implD2Ev(%"struct.std::_Vector_base<Dual, std::allocator<Dual> >::_Vector_impl"* %20) #3, !dbg !2705
  ret %"struct.std::_Vector_base"* %5, !dbg !2705

; <label>:22:                                     ; preds = %1
  %23 = landingpad { i8*, i32 }
          catch i8* null, !dbg !2707
  %24 = extractvalue { i8*, i32 } %23, 0, !dbg !2707
  store i8* %24, i8** %3, align 4, !dbg !2707
  %25 = extractvalue { i8*, i32 } %23, 1, !dbg !2707
  store i32 %25, i32* %4, align 4, !dbg !2707
  %26 = getelementptr inbounds %"struct.std::_Vector_base", %"struct.std::_Vector_base"* %5, i32 0, i32 0, !dbg !2707
  %27 = call %"struct.std::_Vector_base<Dual, std::allocator<Dual> >::_Vector_impl"* @_ZNSt12_Vector_baseI4DualSaIS0_EE12_Vector_implD2Ev(%"struct.std::_Vector_base<Dual, std::allocator<Dual> >::_Vector_impl"* %26) #3, !dbg !2707
  br label %28, !dbg !2707

; <label>:28:                                     ; preds = %22
  %29 = load i8*, i8** %3, align 4, !dbg !2709
  call void @__clang_call_terminate(i8* %29) #12, !dbg !2709
  unreachable, !dbg !2709
}

; Function Attrs: nounwind
define linkonce_odr %"struct.std::_Vector_base<Dual, std::allocator<Dual> >::_Vector_impl"* @_ZNSt12_Vector_baseI4DualSaIS0_EE12_Vector_implC2ERKS1_(%"struct.std::_Vector_base<Dual, std::allocator<Dual> >::_Vector_impl"* returned, %"class.std::allocator"* dereferenceable(1)) unnamed_addr #5 comdat align 2 !dbg !2711 !xidane.fname !2712 !xidane.function_declaration_type !2713 !xidane.function_declaration_filename !2034 {
  %3 = alloca %"struct.std::_Vector_base<Dual, std::allocator<Dual> >::_Vector_impl"*, align 4
  %4 = alloca %"class.std::allocator"*, align 4
  store %"struct.std::_Vector_base<Dual, std::allocator<Dual> >::_Vector_impl"* %0, %"struct.std::_Vector_base<Dual, std::allocator<Dual> >::_Vector_impl"** %3, align 4
  call void @llvm.dbg.declare(metadata %"struct.std::_Vector_base<Dual, std::allocator<Dual> >::_Vector_impl"** %3, metadata !2714, metadata !2003), !dbg !2716
  store %"class.std::allocator"* %1, %"class.std::allocator"** %4, align 4
  call void @llvm.dbg.declare(metadata %"class.std::allocator"** %4, metadata !2717, metadata !2003), !dbg !2718
  %5 = load %"struct.std::_Vector_base<Dual, std::allocator<Dual> >::_Vector_impl"*, %"struct.std::_Vector_base<Dual, std::allocator<Dual> >::_Vector_impl"** %3, align 4
  %6 = bitcast %"struct.std::_Vector_base<Dual, std::allocator<Dual> >::_Vector_impl"* %5 to %"class.std::allocator"*, !dbg !2719
  %7 = load %"class.std::allocator"*, %"class.std::allocator"** %4, align 4, !dbg !2720
  %8 = call %"class.std::allocator"* @_ZNSaI4DualEC2ERKS0_(%"class.std::allocator"* %6, %"class.std::allocator"* dereferenceable(1) %7) #3, !dbg !2721
  %9 = getelementptr inbounds %"struct.std::_Vector_base<Dual, std::allocator<Dual> >::_Vector_impl", %"struct.std::_Vector_base<Dual, std::allocator<Dual> >::_Vector_impl"* %5, i32 0, i32 0, !dbg !2722
  store %class.Dual* null, %class.Dual** %9, align 4, !dbg !2722
  %10 = getelementptr inbounds %"struct.std::_Vector_base<Dual, std::allocator<Dual> >::_Vector_impl", %"struct.std::_Vector_base<Dual, std::allocator<Dual> >::_Vector_impl"* %5, i32 0, i32 1, !dbg !2723
  store %class.Dual* null, %class.Dual** %10, align 4, !dbg !2723
  %11 = getelementptr inbounds %"struct.std::_Vector_base<Dual, std::allocator<Dual> >::_Vector_impl", %"struct.std::_Vector_base<Dual, std::allocator<Dual> >::_Vector_impl"* %5, i32 0, i32 2, !dbg !2724
  store %class.Dual* null, %class.Dual** %11, align 4, !dbg !2724
  ret %"struct.std::_Vector_base<Dual, std::allocator<Dual> >::_Vector_impl"* %5, !dbg !2725
}

define linkonce_odr void @_ZNSt12_Vector_baseI4DualSaIS0_EE17_M_create_storageEj(%"struct.std::_Vector_base"*, i32) #0 comdat align 2 !dbg !2726 !xidane.fname !2727 !xidane.function_declaration_type !2728 !xidane.function_declaration_filename !2034 {
  %3 = alloca %"struct.std::_Vector_base"*, align 4
  %4 = alloca i32, align 4
  store %"struct.std::_Vector_base"* %0, %"struct.std::_Vector_base"** %3, align 4
  call void @llvm.dbg.declare(metadata %"struct.std::_Vector_base"** %3, metadata !2729, metadata !2003), !dbg !2730
  store i32 %1, i32* %4, align 4
  call void @llvm.dbg.declare(metadata i32* %4, metadata !2731, metadata !2003), !dbg !2732
  %5 = load %"struct.std::_Vector_base"*, %"struct.std::_Vector_base"** %3, align 4
  %6 = load i32, i32* %4, align 4, !dbg !2733
  %7 = call %class.Dual* @_ZNSt12_Vector_baseI4DualSaIS0_EE11_M_allocateEj(%"struct.std::_Vector_base"* %5, i32 %6), !dbg !2734
  %8 = getelementptr inbounds %"struct.std::_Vector_base", %"struct.std::_Vector_base"* %5, i32 0, i32 0, !dbg !2735
  %9 = getelementptr inbounds %"struct.std::_Vector_base<Dual, std::allocator<Dual> >::_Vector_impl", %"struct.std::_Vector_base<Dual, std::allocator<Dual> >::_Vector_impl"* %8, i32 0, i32 0, !dbg !2736
  store %class.Dual* %7, %class.Dual** %9, align 4, !dbg !2737
  %10 = getelementptr inbounds %"struct.std::_Vector_base", %"struct.std::_Vector_base"* %5, i32 0, i32 0, !dbg !2738
  %11 = getelementptr inbounds %"struct.std::_Vector_base<Dual, std::allocator<Dual> >::_Vector_impl", %"struct.std::_Vector_base<Dual, std::allocator<Dual> >::_Vector_impl"* %10, i32 0, i32 0, !dbg !2739
  %12 = load %class.Dual*, %class.Dual** %11, align 4, !dbg !2739
  %13 = getelementptr inbounds %"struct.std::_Vector_base", %"struct.std::_Vector_base"* %5, i32 0, i32 0, !dbg !2740
  %14 = getelementptr inbounds %"struct.std::_Vector_base<Dual, std::allocator<Dual> >::_Vector_impl", %"struct.std::_Vector_base<Dual, std::allocator<Dual> >::_Vector_impl"* %13, i32 0, i32 1, !dbg !2741
  store %class.Dual* %12, %class.Dual** %14, align 4, !dbg !2742
  %15 = getelementptr inbounds %"struct.std::_Vector_base", %"struct.std::_Vector_base"* %5, i32 0, i32 0, !dbg !2743
  %16 = getelementptr inbounds %"struct.std::_Vector_base<Dual, std::allocator<Dual> >::_Vector_impl", %"struct.std::_Vector_base<Dual, std::allocator<Dual> >::_Vector_impl"* %15, i32 0, i32 0, !dbg !2744
  %17 = load %class.Dual*, %class.Dual** %16, align 4, !dbg !2744
  %18 = load i32, i32* %4, align 4, !dbg !2745
  %19 = getelementptr inbounds %class.Dual, %class.Dual* %17, i32 %18, !dbg !2746
  %20 = getelementptr inbounds %"struct.std::_Vector_base", %"struct.std::_Vector_base"* %5, i32 0, i32 0, !dbg !2747
  %21 = getelementptr inbounds %"struct.std::_Vector_base<Dual, std::allocator<Dual> >::_Vector_impl", %"struct.std::_Vector_base<Dual, std::allocator<Dual> >::_Vector_impl"* %20, i32 0, i32 2, !dbg !2748
  store %class.Dual* %19, %class.Dual** %21, align 4, !dbg !2749
  ret void, !dbg !2750
}

; Function Attrs: inlinehint nounwind
define linkonce_odr %"struct.std::_Vector_base<Dual, std::allocator<Dual> >::_Vector_impl"* @_ZNSt12_Vector_baseI4DualSaIS0_EE12_Vector_implD2Ev(%"struct.std::_Vector_base<Dual, std::allocator<Dual> >::_Vector_impl"* returned) unnamed_addr #6 comdat align 2 !dbg !2751 !xidane.fname !2753 !xidane.function_declaration_type !1991 !xidane.function_declaration_filename !2034 {
  %2 = alloca %"struct.std::_Vector_base<Dual, std::allocator<Dual> >::_Vector_impl"*, align 4
  store %"struct.std::_Vector_base<Dual, std::allocator<Dual> >::_Vector_impl"* %0, %"struct.std::_Vector_base<Dual, std::allocator<Dual> >::_Vector_impl"** %2, align 4
  call void @llvm.dbg.declare(metadata %"struct.std::_Vector_base<Dual, std::allocator<Dual> >::_Vector_impl"** %2, metadata !2754, metadata !2003), !dbg !2755
  %3 = load %"struct.std::_Vector_base<Dual, std::allocator<Dual> >::_Vector_impl"*, %"struct.std::_Vector_base<Dual, std::allocator<Dual> >::_Vector_impl"** %2, align 4
  %4 = bitcast %"struct.std::_Vector_base<Dual, std::allocator<Dual> >::_Vector_impl"* %3 to %"class.std::allocator"*, !dbg !2756
  %5 = call %"class.std::allocator"* @_ZNSaI4DualED2Ev(%"class.std::allocator"* %4) #3, !dbg !2756
  ret %"struct.std::_Vector_base<Dual, std::allocator<Dual> >::_Vector_impl"* %3, !dbg !2758
}

; Function Attrs: nounwind
define linkonce_odr %"class.__gnu_cxx::new_allocator"* @_ZN9__gnu_cxx13new_allocatorI4DualEC2ERKS2_(%"class.__gnu_cxx::new_allocator"* returned, %"class.__gnu_cxx::new_allocator"* dereferenceable(1)) unnamed_addr #5 comdat align 2 !dbg !2759 !xidane.fname !2644 !xidane.function_declaration_type !2760 !xidane.function_declaration_filename !2645 {
  %3 = alloca %"class.__gnu_cxx::new_allocator"*, align 4
  %4 = alloca %"class.__gnu_cxx::new_allocator"*, align 4
  store %"class.__gnu_cxx::new_allocator"* %0, %"class.__gnu_cxx::new_allocator"** %3, align 4
  call void @llvm.dbg.declare(metadata %"class.__gnu_cxx::new_allocator"** %3, metadata !2761, metadata !2003), !dbg !2762
  store %"class.__gnu_cxx::new_allocator"* %1, %"class.__gnu_cxx::new_allocator"** %4, align 4
  call void @llvm.dbg.declare(metadata %"class.__gnu_cxx::new_allocator"** %4, metadata !2763, metadata !2003), !dbg !2764
  %5 = load %"class.__gnu_cxx::new_allocator"*, %"class.__gnu_cxx::new_allocator"** %3, align 4
  ret %"class.__gnu_cxx::new_allocator"* %5, !dbg !2765
}

define linkonce_odr %class.Dual* @_ZNSt12_Vector_baseI4DualSaIS0_EE11_M_allocateEj(%"struct.std::_Vector_base"*, i32) #0 comdat align 2 !dbg !2766 !xidane.fname !2767 !xidane.function_declaration_type !2768 !xidane.function_declaration_filename !2034 {
  %3 = alloca %"struct.std::_Vector_base"*, align 4
  %4 = alloca i32, align 4
  store %"struct.std::_Vector_base"* %0, %"struct.std::_Vector_base"** %3, align 4
  call void @llvm.dbg.declare(metadata %"struct.std::_Vector_base"** %3, metadata !2769, metadata !2003), !dbg !2770
  store i32 %1, i32* %4, align 4
  call void @llvm.dbg.declare(metadata i32* %4, metadata !2771, metadata !2003), !dbg !2772
  %5 = load %"struct.std::_Vector_base"*, %"struct.std::_Vector_base"** %3, align 4
  %6 = load i32, i32* %4, align 4, !dbg !2773
  %7 = icmp ne i32 %6, 0, !dbg !2774
  br i1 %7, label %8, label %13, !dbg !2773

; <label>:8:                                      ; preds = %2
  %9 = getelementptr inbounds %"struct.std::_Vector_base", %"struct.std::_Vector_base"* %5, i32 0, i32 0, !dbg !2775
  %10 = bitcast %"struct.std::_Vector_base<Dual, std::allocator<Dual> >::_Vector_impl"* %9 to %"class.std::allocator"*, !dbg !2775
  %11 = load i32, i32* %4, align 4, !dbg !2777
  %12 = call %class.Dual* @_ZNSt16allocator_traitsISaI4DualEE8allocateERS1_j(%"class.std::allocator"* dereferenceable(1) %10, i32 %11), !dbg !2778
  br label %14, !dbg !2779

; <label>:13:                                     ; preds = %2
  br label %14, !dbg !2780

; <label>:14:                                     ; preds = %13, %8
  %15 = phi %class.Dual* [ %12, %8 ], [ null, %13 ], !dbg !2782
  ret %class.Dual* %15, !dbg !2784
}

define linkonce_odr %class.Dual* @_ZNSt16allocator_traitsISaI4DualEE8allocateERS1_j(%"class.std::allocator"* dereferenceable(1), i32) #0 comdat align 2 !dbg !2785 !xidane.fname !2786 !xidane.function_declaration_type !2787 !xidane.function_declaration_filename !2788 {
  %3 = alloca %"class.std::allocator"*, align 4
  %4 = alloca i32, align 4
  store %"class.std::allocator"* %0, %"class.std::allocator"** %3, align 4
  call void @llvm.dbg.declare(metadata %"class.std::allocator"** %3, metadata !2789, metadata !2003), !dbg !2790
  store i32 %1, i32* %4, align 4
  call void @llvm.dbg.declare(metadata i32* %4, metadata !2791, metadata !2003), !dbg !2792
  %5 = load %"class.std::allocator"*, %"class.std::allocator"** %3, align 4, !dbg !2793
  %6 = bitcast %"class.std::allocator"* %5 to %"class.__gnu_cxx::new_allocator"*, !dbg !2793
  %7 = load i32, i32* %4, align 4, !dbg !2794
  %8 = call %class.Dual* @_ZN9__gnu_cxx13new_allocatorI4DualE8allocateEjPKv(%"class.__gnu_cxx::new_allocator"* %6, i32 %7, i8* null), !dbg !2795
  ret %class.Dual* %8, !dbg !2796
}

define linkonce_odr %class.Dual* @_ZN9__gnu_cxx13new_allocatorI4DualE8allocateEjPKv(%"class.__gnu_cxx::new_allocator"*, i32, i8*) #0 comdat align 2 !dbg !2797 !xidane.fname !2786 !xidane.function_declaration_type !2798 !xidane.function_declaration_filename !2645 {
  %4 = alloca %"class.__gnu_cxx::new_allocator"*, align 4
  %5 = alloca i32, align 4
  %6 = alloca i8*, align 4
  store %"class.__gnu_cxx::new_allocator"* %0, %"class.__gnu_cxx::new_allocator"** %4, align 4
  call void @llvm.dbg.declare(metadata %"class.__gnu_cxx::new_allocator"** %4, metadata !2799, metadata !2003), !dbg !2800
  store i32 %1, i32* %5, align 4
  call void @llvm.dbg.declare(metadata i32* %5, metadata !2801, metadata !2003), !dbg !2802
  store i8* %2, i8** %6, align 4
  call void @llvm.dbg.declare(metadata i8** %6, metadata !2803, metadata !2003), !dbg !2804
  %7 = load %"class.__gnu_cxx::new_allocator"*, %"class.__gnu_cxx::new_allocator"** %4, align 4
  %8 = load i32, i32* %5, align 4, !dbg !2805
  %9 = call i32 @_ZNK9__gnu_cxx13new_allocatorI4DualE8max_sizeEv(%"class.__gnu_cxx::new_allocator"* %7) #3, !dbg !2807
  %10 = icmp ugt i32 %8, %9, !dbg !2808
  br i1 %10, label %11, label %12, !dbg !2809

; <label>:11:                                     ; preds = %3
  call void @_ZSt17__throw_bad_allocv() #14, !dbg !2810
  unreachable, !dbg !2810

; <label>:12:                                     ; preds = %3
  %13 = load i32, i32* %5, align 4, !dbg !2811
  %14 = mul i32 %13, 16, !dbg !2812
  %15 = call i8* @_Znwj(i32 %14), !dbg !2813
  %16 = bitcast i8* %15 to %class.Dual*, !dbg !2814
  ret %class.Dual* %16, !dbg !2815
}

; Function Attrs: nounwind
define linkonce_odr i32 @_ZNK9__gnu_cxx13new_allocatorI4DualE8max_sizeEv(%"class.__gnu_cxx::new_allocator"*) #5 comdat align 2 !dbg !2816 !xidane.fname !2817 !xidane.function_declaration_type !2157 !xidane.function_declaration_filename !2645 {
  %2 = alloca %"class.__gnu_cxx::new_allocator"*, align 4
  store %"class.__gnu_cxx::new_allocator"* %0, %"class.__gnu_cxx::new_allocator"** %2, align 4
  call void @llvm.dbg.declare(metadata %"class.__gnu_cxx::new_allocator"** %2, metadata !2818, metadata !2003), !dbg !2820
  %3 = load %"class.__gnu_cxx::new_allocator"*, %"class.__gnu_cxx::new_allocator"** %2, align 4
  ret i32 268435455, !dbg !2821
}

; Function Attrs: noreturn
declare !xidane.fname !2822 !xidane.function_declaration_type !1991 !xidane.function_declaration_filename !2823 void @_ZSt17__throw_bad_allocv() #8

; Function Attrs: nobuiltin
declare !xidane.fname !2824 !xidane.function_declaration_type !2825 noalias i8* @_Znwj(i32) #9

; Function Attrs: inlinehint
define linkonce_odr %class.Dual* @_ZSt27__uninitialized_default_n_aIP4DualjS0_ET_S2_T0_RSaIT1_E(%class.Dual*, i32, %"class.std::allocator"* dereferenceable(1)) #10 comdat !dbg !2826 !xidane.fname !2833 !xidane.function_declaration_type !2834 !xidane.function_declaration_filename !2835 {
  %4 = alloca %class.Dual*, align 4
  %5 = alloca i32, align 4
  %6 = alloca %"class.std::allocator"*, align 4
  store %class.Dual* %0, %class.Dual** %4, align 4
  call void @llvm.dbg.declare(metadata %class.Dual** %4, metadata !2836, metadata !2003), !dbg !2837
  store i32 %1, i32* %5, align 4
  call void @llvm.dbg.declare(metadata i32* %5, metadata !2838, metadata !2003), !dbg !2839
  store %"class.std::allocator"* %2, %"class.std::allocator"** %6, align 4
  call void @llvm.dbg.declare(metadata %"class.std::allocator"** %6, metadata !2840, metadata !2003), !dbg !2841
  %7 = load %class.Dual*, %class.Dual** %4, align 4, !dbg !2842
  %8 = load i32, i32* %5, align 4, !dbg !2843
  %9 = call %class.Dual* @_ZSt25__uninitialized_default_nIP4DualjET_S2_T0_(%class.Dual* %7, i32 %8), !dbg !2844
  ret %class.Dual* %9, !dbg !2845
}

; Function Attrs: nounwind
define linkonce_odr dereferenceable(1) %"class.std::allocator"* @_ZNSt12_Vector_baseI4DualSaIS0_EE19_M_get_Tp_allocatorEv(%"struct.std::_Vector_base"*) #5 comdat align 2 !dbg !2846 !xidane.fname !2847 !xidane.function_declaration_type !2848 !xidane.function_declaration_filename !2034 {
  %2 = alloca %"struct.std::_Vector_base"*, align 4
  store %"struct.std::_Vector_base"* %0, %"struct.std::_Vector_base"** %2, align 4
  call void @llvm.dbg.declare(metadata %"struct.std::_Vector_base"** %2, metadata !2849, metadata !2003), !dbg !2850
  %3 = load %"struct.std::_Vector_base"*, %"struct.std::_Vector_base"** %2, align 4
  %4 = getelementptr inbounds %"struct.std::_Vector_base", %"struct.std::_Vector_base"* %3, i32 0, i32 0, !dbg !2851
  %5 = bitcast %"struct.std::_Vector_base<Dual, std::allocator<Dual> >::_Vector_impl"* %4 to %"class.std::allocator"*, !dbg !2852
  ret %"class.std::allocator"* %5, !dbg !2853
}

; Function Attrs: inlinehint
define linkonce_odr %class.Dual* @_ZSt25__uninitialized_default_nIP4DualjET_S2_T0_(%class.Dual*, i32) #10 comdat !dbg !2854 !xidane.fname !2858 !xidane.function_declaration_type !2859 !xidane.function_declaration_filename !2835 {
  %3 = alloca %class.Dual*, align 4
  %4 = alloca i32, align 4
  %5 = alloca i8, align 1
  store %class.Dual* %0, %class.Dual** %3, align 4
  call void @llvm.dbg.declare(metadata %class.Dual** %3, metadata !2860, metadata !2003), !dbg !2861
  store i32 %1, i32* %4, align 4
  call void @llvm.dbg.declare(metadata i32* %4, metadata !2862, metadata !2003), !dbg !2863
  call void @llvm.dbg.declare(metadata i8* %5, metadata !2864, metadata !2003), !dbg !2865
  store i8 1, i8* %5, align 1, !dbg !2865
  %6 = load %class.Dual*, %class.Dual** %3, align 4, !dbg !2866
  %7 = load i32, i32* %4, align 4, !dbg !2867
  %8 = call %class.Dual* @_ZNSt27__uninitialized_default_n_1ILb0EE18__uninit_default_nIP4DualjEET_S4_T0_(%class.Dual* %6, i32 %7), !dbg !2868
  ret %class.Dual* %8, !dbg !2869
}

define linkonce_odr %class.Dual* @_ZNSt27__uninitialized_default_n_1ILb0EE18__uninit_default_nIP4DualjEET_S4_T0_(%class.Dual*, i32) #0 comdat align 2 personality i8* bitcast (i32 (...)* @__gxx_personality_v0 to i8*) !dbg !2870 !xidane.fname !2875 !xidane.function_declaration_type !2859 !xidane.function_declaration_filename !2835 {
  %3 = alloca %class.Dual*, align 4
  %4 = alloca i32, align 4
  %5 = alloca %class.Dual*, align 4
  %6 = alloca i8*
  %7 = alloca i32
  store %class.Dual* %0, %class.Dual** %3, align 4
  call void @llvm.dbg.declare(metadata %class.Dual** %3, metadata !2876, metadata !2003), !dbg !2877
  store i32 %1, i32* %4, align 4
  call void @llvm.dbg.declare(metadata i32* %4, metadata !2878, metadata !2003), !dbg !2879
  call void @llvm.dbg.declare(metadata %class.Dual** %5, metadata !2880, metadata !2003), !dbg !2881
  %8 = load %class.Dual*, %class.Dual** %3, align 4, !dbg !2882
  store %class.Dual* %8, %class.Dual** %5, align 4, !dbg !2881
  br label %9, !dbg !2883

; <label>:9:                                      ; preds = %16, %2
  %10 = load i32, i32* %4, align 4, !dbg !2885
  %11 = icmp ugt i32 %10, 0, !dbg !2889
  br i1 %11, label %12, label %31, !dbg !2890

; <label>:12:                                     ; preds = %9
  %13 = load %class.Dual*, %class.Dual** %5, align 4, !dbg !2891
  %14 = call %class.Dual* @_ZSt11__addressofI4DualEPT_RS1_(%class.Dual* dereferenceable(16) %13) #3, !dbg !2892
  invoke void @_ZSt10_ConstructI4DualJEEvPT_DpOT0_(%class.Dual* %14)
          to label %15 unwind label %21, !dbg !2893

; <label>:15:                                     ; preds = %12
  br label %16, !dbg !2894

; <label>:16:                                     ; preds = %15
  %17 = load i32, i32* %4, align 4, !dbg !2895
  %18 = add i32 %17, -1, !dbg !2895
  store i32 %18, i32* %4, align 4, !dbg !2895
  %19 = load %class.Dual*, %class.Dual** %5, align 4, !dbg !2897
  %20 = getelementptr inbounds %class.Dual, %class.Dual* %19, i32 1, !dbg !2897
  store %class.Dual* %20, %class.Dual** %5, align 4, !dbg !2897
  br label %9, !dbg !2898, !llvm.loop !2899

; <label>:21:                                     ; preds = %12
  %22 = landingpad { i8*, i32 }
          catch i8* null, !dbg !2900
  %23 = extractvalue { i8*, i32 } %22, 0, !dbg !2900
  store i8* %23, i8** %6, align 4, !dbg !2900
  %24 = extractvalue { i8*, i32 } %22, 1, !dbg !2900
  store i32 %24, i32* %7, align 4, !dbg !2900
  br label %25, !dbg !2900

; <label>:25:                                     ; preds = %21
  %26 = load i8*, i8** %6, align 4, !dbg !2901
  %27 = call i8* @__cxa_begin_catch(i8* %26) #3, !dbg !2901
  %28 = load %class.Dual*, %class.Dual** %3, align 4, !dbg !2902
  %29 = load %class.Dual*, %class.Dual** %5, align 4, !dbg !2904
  invoke void @_ZSt8_DestroyIP4DualEvT_S2_(%class.Dual* %28, %class.Dual* %29)
          to label %30 unwind label %33, !dbg !2905

; <label>:30:                                     ; preds = %25
  invoke void @__cxa_rethrow() #14
          to label %47 unwind label %33, !dbg !2906

; <label>:31:                                     ; preds = %9
  %32 = load %class.Dual*, %class.Dual** %5, align 4, !dbg !2907
  ret %class.Dual* %32, !dbg !2908

; <label>:33:                                     ; preds = %30, %25
  %34 = landingpad { i8*, i32 }
          cleanup, !dbg !2909
  %35 = extractvalue { i8*, i32 } %34, 0, !dbg !2909
  store i8* %35, i8** %6, align 4, !dbg !2909
  %36 = extractvalue { i8*, i32 } %34, 1, !dbg !2909
  store i32 %36, i32* %7, align 4, !dbg !2909
  invoke void @__cxa_end_catch()
          to label %37 unwind label %44, !dbg !2911

; <label>:37:                                     ; preds = %33
  br label %39, !dbg !2912
                                                  ; No predecessors!
  call void @llvm.trap(), !dbg !2913
  unreachable, !dbg !2913

; <label>:39:                                     ; preds = %37
  %40 = load i8*, i8** %6, align 4, !dbg !2915
  %41 = load i32, i32* %7, align 4, !dbg !2915
  %42 = insertvalue { i8*, i32 } undef, i8* %40, 0, !dbg !2915
  %43 = insertvalue { i8*, i32 } %42, i32 %41, 1, !dbg !2915
  resume { i8*, i32 } %43, !dbg !2915

; <label>:44:                                     ; preds = %33
  %45 = landingpad { i8*, i32 }
          catch i8* null, !dbg !2917
  %46 = extractvalue { i8*, i32 } %45, 0, !dbg !2917
  call void @__clang_call_terminate(i8* %46) #12, !dbg !2917
  unreachable, !dbg !2917

; <label>:47:                                     ; preds = %30
  unreachable
}

; Function Attrs: inlinehint
define linkonce_odr void @_ZSt10_ConstructI4DualJEEvPT_DpOT0_(%class.Dual*) #10 comdat !dbg !2919 !xidane.fname !2926 !xidane.function_declaration_type !2927 !xidane.function_declaration_filename !2928 {
  %2 = alloca %class.Dual*, align 4
  store %class.Dual* %0, %class.Dual** %2, align 4
  call void @llvm.dbg.declare(metadata %class.Dual** %2, metadata !2929, metadata !2003), !dbg !2930
  %3 = load %class.Dual*, %class.Dual** %2, align 4, !dbg !2931
  %4 = bitcast %class.Dual* %3 to i8*, !dbg !2931
  %5 = bitcast i8* %4 to %class.Dual*, !dbg !2932
  %6 = call %class.Dual* @_ZN4DualC1Ev(%class.Dual* %5), !dbg !2933
  ret void, !dbg !2934
}

; Function Attrs: inlinehint nounwind
define linkonce_odr %class.Dual* @_ZSt11__addressofI4DualEPT_RS1_(%class.Dual* dereferenceable(16)) #6 comdat !dbg !2935 !xidane.fname !2939 !xidane.function_declaration_type !2940 !xidane.function_declaration_filename !2941 {
  %2 = alloca %class.Dual*, align 4
  store %class.Dual* %0, %class.Dual** %2, align 4
  call void @llvm.dbg.declare(metadata %class.Dual** %2, metadata !2942, metadata !2003), !dbg !2943
  %3 = load %class.Dual*, %class.Dual** %2, align 4, !dbg !2944
  ret %class.Dual* %3, !dbg !2945
}

declare i8* @__cxa_begin_catch(i8*)

; Function Attrs: inlinehint
define linkonce_odr void @_ZSt8_DestroyIP4DualEvT_S2_(%class.Dual*, %class.Dual*) #10 comdat !dbg !2946 !xidane.fname !2950 !xidane.function_declaration_type !2951 !xidane.function_declaration_filename !2928 {
  %3 = alloca %class.Dual*, align 4
  %4 = alloca %class.Dual*, align 4
  store %class.Dual* %0, %class.Dual** %3, align 4
  call void @llvm.dbg.declare(metadata %class.Dual** %3, metadata !2952, metadata !2003), !dbg !2953
  store %class.Dual* %1, %class.Dual** %4, align 4
  call void @llvm.dbg.declare(metadata %class.Dual** %4, metadata !2954, metadata !2003), !dbg !2955
  %5 = load %class.Dual*, %class.Dual** %3, align 4, !dbg !2956
  %6 = load %class.Dual*, %class.Dual** %4, align 4, !dbg !2957
  call void @_ZNSt12_Destroy_auxILb1EE9__destroyIP4DualEEvT_S4_(%class.Dual* %5, %class.Dual* %6), !dbg !2958
  ret void, !dbg !2959
}

declare void @__cxa_rethrow()

declare void @__cxa_end_catch()

; Function Attrs: noinline noreturn nounwind
define linkonce_odr hidden void @__clang_call_terminate(i8*) #11 comdat {
  %2 = call i8* @__cxa_begin_catch(i8* %0) #3
  call void @_ZSt9terminatev() #12
  unreachable
}

declare void @_ZSt9terminatev()

; Function Attrs: noreturn nounwind
declare void @llvm.trap() #12

declare !xidane.fname !2218 !xidane.function_declaration_type !1991 !xidane.function_declaration_filename !2078 %class.Dual* @_ZN4DualC1Ev(%class.Dual* returned) unnamed_addr #1

; Function Attrs: nounwind
define linkonce_odr void @_ZNSt12_Destroy_auxILb1EE9__destroyIP4DualEEvT_S4_(%class.Dual*, %class.Dual*) #5 comdat align 2 !dbg !2960 !xidane.fname !2965 !xidane.function_declaration_type !2951 !xidane.function_declaration_filename !2928 {
  %3 = alloca %class.Dual*, align 4
  %4 = alloca %class.Dual*, align 4
  store %class.Dual* %0, %class.Dual** %3, align 4
  call void @llvm.dbg.declare(metadata %class.Dual** %3, metadata !2966, metadata !2003), !dbg !2967
  store %class.Dual* %1, %class.Dual** %4, align 4
  call void @llvm.dbg.declare(metadata %class.Dual** %4, metadata !2968, metadata !2003), !dbg !2969
  ret void, !dbg !2970
}

define linkonce_odr void @_ZNSt12_Vector_baseI4DualSaIS0_EE13_M_deallocateEPS0_j(%"struct.std::_Vector_base"*, %class.Dual*, i32) #0 comdat align 2 !dbg !2971 !xidane.fname !2972 !xidane.function_declaration_type !2973 !xidane.function_declaration_filename !2034 {
  %4 = alloca %"struct.std::_Vector_base"*, align 4
  %5 = alloca %class.Dual*, align 4
  %6 = alloca i32, align 4
  store %"struct.std::_Vector_base"* %0, %"struct.std::_Vector_base"** %4, align 4
  call void @llvm.dbg.declare(metadata %"struct.std::_Vector_base"** %4, metadata !2974, metadata !2003), !dbg !2975
  store %class.Dual* %1, %class.Dual** %5, align 4
  call void @llvm.dbg.declare(metadata %class.Dual** %5, metadata !2976, metadata !2003), !dbg !2977
  store i32 %2, i32* %6, align 4
  call void @llvm.dbg.declare(metadata i32* %6, metadata !2978, metadata !2003), !dbg !2979
  %7 = load %"struct.std::_Vector_base"*, %"struct.std::_Vector_base"** %4, align 4
  %8 = load %class.Dual*, %class.Dual** %5, align 4, !dbg !2980
  %9 = icmp ne %class.Dual* %8, null, !dbg !2980
  br i1 %9, label %10, label %15, !dbg !2982

; <label>:10:                                     ; preds = %3
  %11 = getelementptr inbounds %"struct.std::_Vector_base", %"struct.std::_Vector_base"* %7, i32 0, i32 0, !dbg !2983
  %12 = bitcast %"struct.std::_Vector_base<Dual, std::allocator<Dual> >::_Vector_impl"* %11 to %"class.std::allocator"*, !dbg !2983
  %13 = load %class.Dual*, %class.Dual** %5, align 4, !dbg !2984
  %14 = load i32, i32* %6, align 4, !dbg !2985
  call void @_ZNSt16allocator_traitsISaI4DualEE10deallocateERS1_PS0_j(%"class.std::allocator"* dereferenceable(1) %12, %class.Dual* %13, i32 %14), !dbg !2986
  br label %15, !dbg !2986

; <label>:15:                                     ; preds = %10, %3
  ret void, !dbg !2987
}

define linkonce_odr void @_ZNSt16allocator_traitsISaI4DualEE10deallocateERS1_PS0_j(%"class.std::allocator"* dereferenceable(1), %class.Dual*, i32) #0 comdat align 2 !dbg !2988 !xidane.fname !2989 !xidane.function_declaration_type !2990 !xidane.function_declaration_filename !2788 {
  %4 = alloca %"class.std::allocator"*, align 4
  %5 = alloca %class.Dual*, align 4
  %6 = alloca i32, align 4
  store %"class.std::allocator"* %0, %"class.std::allocator"** %4, align 4
  call void @llvm.dbg.declare(metadata %"class.std::allocator"** %4, metadata !2991, metadata !2003), !dbg !2992
  store %class.Dual* %1, %class.Dual** %5, align 4
  call void @llvm.dbg.declare(metadata %class.Dual** %5, metadata !2993, metadata !2003), !dbg !2994
  store i32 %2, i32* %6, align 4
  call void @llvm.dbg.declare(metadata i32* %6, metadata !2995, metadata !2003), !dbg !2996
  %7 = load %"class.std::allocator"*, %"class.std::allocator"** %4, align 4, !dbg !2997
  %8 = bitcast %"class.std::allocator"* %7 to %"class.__gnu_cxx::new_allocator"*, !dbg !2997
  %9 = load %class.Dual*, %class.Dual** %5, align 4, !dbg !2998
  %10 = load i32, i32* %6, align 4, !dbg !2999
  call void @_ZN9__gnu_cxx13new_allocatorI4DualE10deallocateEPS1_j(%"class.__gnu_cxx::new_allocator"* %8, %class.Dual* %9, i32 %10), !dbg !3000
  ret void, !dbg !3001
}

; Function Attrs: nounwind
define linkonce_odr void @_ZN9__gnu_cxx13new_allocatorI4DualE10deallocateEPS1_j(%"class.__gnu_cxx::new_allocator"*, %class.Dual*, i32) #5 comdat align 2 !dbg !3002 !xidane.fname !2989 !xidane.function_declaration_type !3003 !xidane.function_declaration_filename !2645 {
  %4 = alloca %"class.__gnu_cxx::new_allocator"*, align 4
  %5 = alloca %class.Dual*, align 4
  %6 = alloca i32, align 4
  store %"class.__gnu_cxx::new_allocator"* %0, %"class.__gnu_cxx::new_allocator"** %4, align 4
  call void @llvm.dbg.declare(metadata %"class.__gnu_cxx::new_allocator"** %4, metadata !3004, metadata !2003), !dbg !3005
  store %class.Dual* %1, %class.Dual** %5, align 4
  call void @llvm.dbg.declare(metadata %class.Dual** %5, metadata !3006, metadata !2003), !dbg !3007
  store i32 %2, i32* %6, align 4
  call void @llvm.dbg.declare(metadata i32* %6, metadata !3008, metadata !2003), !dbg !3009
  %7 = load %"class.__gnu_cxx::new_allocator"*, %"class.__gnu_cxx::new_allocator"** %4, align 4
  %8 = load %class.Dual*, %class.Dual** %5, align 4, !dbg !3010
  %9 = bitcast %class.Dual* %8 to i8*, !dbg !3010
  call void @_ZdlPv(i8* %9) #3, !dbg !3011
  ret void, !dbg !3012
}

; Function Attrs: nobuiltin nounwind
declare !xidane.fname !3013 !xidane.function_declaration_type !3014 void @_ZdlPv(i8*) #13

; Function Attrs: inlinehint
define linkonce_odr void @_ZSt8_DestroyIP4DualS0_EvT_S2_RSaIT0_E(%class.Dual*, %class.Dual*, %"class.std::allocator"* dereferenceable(1)) #10 comdat !dbg !3015 !xidane.fname !2950 !xidane.function_declaration_type !3019 !xidane.function_declaration_filename !2928 {
  %4 = alloca %class.Dual*, align 4
  %5 = alloca %class.Dual*, align 4
  %6 = alloca %"class.std::allocator"*, align 4
  store %class.Dual* %0, %class.Dual** %4, align 4
  call void @llvm.dbg.declare(metadata %class.Dual** %4, metadata !3020, metadata !2003), !dbg !3021
  store %class.Dual* %1, %class.Dual** %5, align 4
  call void @llvm.dbg.declare(metadata %class.Dual** %5, metadata !3022, metadata !2003), !dbg !3023
  store %"class.std::allocator"* %2, %"class.std::allocator"** %6, align 4
  call void @llvm.dbg.declare(metadata %"class.std::allocator"** %6, metadata !3024, metadata !2003), !dbg !3025
  %7 = load %class.Dual*, %class.Dual** %4, align 4, !dbg !3026
  %8 = load %class.Dual*, %class.Dual** %5, align 4, !dbg !3027
  call void @_ZSt8_DestroyIP4DualEvT_S2_(%class.Dual* %7, %class.Dual* %8), !dbg !3028
  ret void, !dbg !3029
}

; Function Attrs: nounwind
define linkonce_odr %"class.__gnu_cxx::new_allocator.3"* @_ZN9__gnu_cxx13new_allocatorISt6vectorI4DualSaIS2_EEEC2Ev(%"class.__gnu_cxx::new_allocator.3"* returned) unnamed_addr #5 comdat align 2 !dbg !3030 !xidane.fname !2644 !xidane.function_declaration_type !1991 !xidane.function_declaration_filename !2645 {
  %2 = alloca %"class.__gnu_cxx::new_allocator.3"*, align 4
  store %"class.__gnu_cxx::new_allocator.3"* %0, %"class.__gnu_cxx::new_allocator.3"** %2, align 4
  call void @llvm.dbg.declare(metadata %"class.__gnu_cxx::new_allocator.3"** %2, metadata !3031, metadata !2003), !dbg !3033
  %3 = load %"class.__gnu_cxx::new_allocator.3"*, %"class.__gnu_cxx::new_allocator.3"** %2, align 4
  ret %"class.__gnu_cxx::new_allocator.3"* %3, !dbg !3034
}

; Function Attrs: nounwind
define linkonce_odr %"class.__gnu_cxx::new_allocator.3"* @_ZN9__gnu_cxx13new_allocatorISt6vectorI4DualSaIS2_EEED2Ev(%"class.__gnu_cxx::new_allocator.3"* returned) unnamed_addr #5 comdat align 2 !dbg !3035 !xidane.fname !2651 !xidane.function_declaration_type !1991 !xidane.function_declaration_filename !2645 {
  %2 = alloca %"class.__gnu_cxx::new_allocator.3"*, align 4
  store %"class.__gnu_cxx::new_allocator.3"* %0, %"class.__gnu_cxx::new_allocator.3"** %2, align 4
  call void @llvm.dbg.declare(metadata %"class.__gnu_cxx::new_allocator.3"** %2, metadata !3036, metadata !2003), !dbg !3037
  %3 = load %"class.__gnu_cxx::new_allocator.3"*, %"class.__gnu_cxx::new_allocator.3"** %2, align 4
  ret %"class.__gnu_cxx::new_allocator.3"* %3, !dbg !3038
}

define linkonce_odr %"struct.std::_Vector_base.1"* @_ZNSt12_Vector_baseISt6vectorI4DualSaIS1_EESaIS3_EEC2EjRKS4_(%"struct.std::_Vector_base.1"* returned, i32, %"class.std::allocator.2"* dereferenceable(1)) unnamed_addr #0 comdat align 2 personality i8* bitcast (i32 (...)* @__gxx_personality_v0 to i8*) !dbg !3039 !xidane.fname !2656 !xidane.function_declaration_type !2657 !xidane.function_declaration_filename !2034 {
  %4 = alloca %"struct.std::_Vector_base.1"*, align 4
  %5 = alloca i32, align 4
  %6 = alloca %"class.std::allocator.2"*, align 4
  %7 = alloca i8*
  %8 = alloca i32
  store %"struct.std::_Vector_base.1"* %0, %"struct.std::_Vector_base.1"** %4, align 4
  call void @llvm.dbg.declare(metadata %"struct.std::_Vector_base.1"** %4, metadata !3040, metadata !2003), !dbg !3042
  store i32 %1, i32* %5, align 4
  call void @llvm.dbg.declare(metadata i32* %5, metadata !3043, metadata !2003), !dbg !3044
  store %"class.std::allocator.2"* %2, %"class.std::allocator.2"** %6, align 4
  call void @llvm.dbg.declare(metadata %"class.std::allocator.2"** %6, metadata !3045, metadata !2003), !dbg !3046
  %9 = load %"struct.std::_Vector_base.1"*, %"struct.std::_Vector_base.1"** %4, align 4
  %10 = getelementptr inbounds %"struct.std::_Vector_base.1", %"struct.std::_Vector_base.1"* %9, i32 0, i32 0, !dbg !3047
  %11 = load %"class.std::allocator.2"*, %"class.std::allocator.2"** %6, align 4, !dbg !3048
  %12 = call %"struct.std::_Vector_base<std::vector<Dual, std::allocator<Dual> >, std::allocator<std::vector<Dual, std::allocator<Dual> > > >::_Vector_impl"* @_ZNSt12_Vector_baseISt6vectorI4DualSaIS1_EESaIS3_EE12_Vector_implC2ERKS4_(%"struct.std::_Vector_base<std::vector<Dual, std::allocator<Dual> >, std::allocator<std::vector<Dual, std::allocator<Dual> > > >::_Vector_impl"* %10, %"class.std::allocator.2"* dereferenceable(1) %11) #3, !dbg !3047
  %13 = load i32, i32* %5, align 4, !dbg !3049
  invoke void @_ZNSt12_Vector_baseISt6vectorI4DualSaIS1_EESaIS3_EE17_M_create_storageEj(%"struct.std::_Vector_base.1"* %9, i32 %13)
          to label %14 unwind label %15, !dbg !3051

; <label>:14:                                     ; preds = %3
  ret %"struct.std::_Vector_base.1"* %9, !dbg !3052

; <label>:15:                                     ; preds = %3
  %16 = landingpad { i8*, i32 }
          cleanup, !dbg !3054
  %17 = extractvalue { i8*, i32 } %16, 0, !dbg !3054
  store i8* %17, i8** %7, align 4, !dbg !3054
  %18 = extractvalue { i8*, i32 } %16, 1, !dbg !3054
  store i32 %18, i32* %8, align 4, !dbg !3054
  %19 = call %"struct.std::_Vector_base<std::vector<Dual, std::allocator<Dual> >, std::allocator<std::vector<Dual, std::allocator<Dual> > > >::_Vector_impl"* @_ZNSt12_Vector_baseISt6vectorI4DualSaIS1_EESaIS3_EE12_Vector_implD2Ev(%"struct.std::_Vector_base<std::vector<Dual, std::allocator<Dual> >, std::allocator<std::vector<Dual, std::allocator<Dual> > > >::_Vector_impl"* %10) #3, !dbg !3054
  br label %20, !dbg !3054

; <label>:20:                                     ; preds = %15
  %21 = load i8*, i8** %7, align 4, !dbg !3056
  %22 = load i32, i32* %8, align 4, !dbg !3056
  %23 = insertvalue { i8*, i32 } undef, i8* %21, 0, !dbg !3056
  %24 = insertvalue { i8*, i32 } %23, i32 %22, 1, !dbg !3056
  resume { i8*, i32 } %24, !dbg !3056
}

define linkonce_odr void @_ZNSt6vectorIS_I4DualSaIS0_EESaIS2_EE18_M_fill_initializeEjRKS2_(%"class.std::vector.0"*, i32, %"class.std::vector"* dereferenceable(12)) #0 comdat align 2 !dbg !3058 !xidane.fname !3059 !xidane.function_declaration_type !3060 !xidane.function_declaration_filename !2034 {
  %4 = alloca %"class.std::vector.0"*, align 4
  %5 = alloca i32, align 4
  %6 = alloca %"class.std::vector"*, align 4
  store %"class.std::vector.0"* %0, %"class.std::vector.0"** %4, align 4
  call void @llvm.dbg.declare(metadata %"class.std::vector.0"** %4, metadata !3061, metadata !2003), !dbg !3062
  store i32 %1, i32* %5, align 4
  call void @llvm.dbg.declare(metadata i32* %5, metadata !3063, metadata !2003), !dbg !3064
  store %"class.std::vector"* %2, %"class.std::vector"** %6, align 4
  call void @llvm.dbg.declare(metadata %"class.std::vector"** %6, metadata !3065, metadata !2003), !dbg !3066
  %7 = load %"class.std::vector.0"*, %"class.std::vector.0"** %4, align 4
  %8 = bitcast %"class.std::vector.0"* %7 to %"struct.std::_Vector_base.1"*, !dbg !3067
  %9 = getelementptr inbounds %"struct.std::_Vector_base.1", %"struct.std::_Vector_base.1"* %8, i32 0, i32 0, !dbg !3067
  %10 = getelementptr inbounds %"struct.std::_Vector_base<std::vector<Dual, std::allocator<Dual> >, std::allocator<std::vector<Dual, std::allocator<Dual> > > >::_Vector_impl", %"struct.std::_Vector_base<std::vector<Dual, std::allocator<Dual> >, std::allocator<std::vector<Dual, std::allocator<Dual> > > >::_Vector_impl"* %9, i32 0, i32 0, !dbg !3068
  %11 = load %"class.std::vector"*, %"class.std::vector"** %10, align 4, !dbg !3068
  %12 = load i32, i32* %5, align 4, !dbg !3069
  %13 = load %"class.std::vector"*, %"class.std::vector"** %6, align 4, !dbg !3070
  %14 = bitcast %"class.std::vector.0"* %7 to %"struct.std::_Vector_base.1"*, !dbg !3071
  %15 = call dereferenceable(1) %"class.std::allocator.2"* @_ZNSt12_Vector_baseISt6vectorI4DualSaIS1_EESaIS3_EE19_M_get_Tp_allocatorEv(%"struct.std::_Vector_base.1"* %14) #3, !dbg !3071
  %16 = call %"class.std::vector"* @_ZSt24__uninitialized_fill_n_aIPSt6vectorI4DualSaIS1_EEjS3_S3_ET_S5_T0_RKT1_RSaIT2_E(%"class.std::vector"* %11, i32 %12, %"class.std::vector"* dereferenceable(12) %13, %"class.std::allocator.2"* dereferenceable(1) %15), !dbg !3072
  %17 = bitcast %"class.std::vector.0"* %7 to %"struct.std::_Vector_base.1"*, !dbg !3073
  %18 = getelementptr inbounds %"struct.std::_Vector_base.1", %"struct.std::_Vector_base.1"* %17, i32 0, i32 0, !dbg !3073
  %19 = getelementptr inbounds %"struct.std::_Vector_base<std::vector<Dual, std::allocator<Dual> >, std::allocator<std::vector<Dual, std::allocator<Dual> > > >::_Vector_impl", %"struct.std::_Vector_base<std::vector<Dual, std::allocator<Dual> >, std::allocator<std::vector<Dual, std::allocator<Dual> > > >::_Vector_impl"* %18, i32 0, i32 1, !dbg !3074
  store %"class.std::vector"* %16, %"class.std::vector"** %19, align 4, !dbg !3075
  ret void, !dbg !3076
}

; Function Attrs: nounwind
define linkonce_odr %"struct.std::_Vector_base.1"* @_ZNSt12_Vector_baseISt6vectorI4DualSaIS1_EESaIS3_EED2Ev(%"struct.std::_Vector_base.1"* returned) unnamed_addr #5 comdat align 2 personality i8* bitcast (i32 (...)* @__gxx_personality_v0 to i8*) !dbg !3077 !xidane.fname !2693 !xidane.function_declaration_type !1991 !xidane.function_declaration_filename !2034 {
  %2 = alloca %"struct.std::_Vector_base.1"*, align 4
  %3 = alloca i8*
  %4 = alloca i32
  store %"struct.std::_Vector_base.1"* %0, %"struct.std::_Vector_base.1"** %2, align 4
  call void @llvm.dbg.declare(metadata %"struct.std::_Vector_base.1"** %2, metadata !3078, metadata !2003), !dbg !3079
  %5 = load %"struct.std::_Vector_base.1"*, %"struct.std::_Vector_base.1"** %2, align 4
  %6 = getelementptr inbounds %"struct.std::_Vector_base.1", %"struct.std::_Vector_base.1"* %5, i32 0, i32 0, !dbg !3080
  %7 = getelementptr inbounds %"struct.std::_Vector_base<std::vector<Dual, std::allocator<Dual> >, std::allocator<std::vector<Dual, std::allocator<Dual> > > >::_Vector_impl", %"struct.std::_Vector_base<std::vector<Dual, std::allocator<Dual> >, std::allocator<std::vector<Dual, std::allocator<Dual> > > >::_Vector_impl"* %6, i32 0, i32 0, !dbg !3082
  %8 = load %"class.std::vector"*, %"class.std::vector"** %7, align 4, !dbg !3082
  %9 = getelementptr inbounds %"struct.std::_Vector_base.1", %"struct.std::_Vector_base.1"* %5, i32 0, i32 0, !dbg !3083
  %10 = getelementptr inbounds %"struct.std::_Vector_base<std::vector<Dual, std::allocator<Dual> >, std::allocator<std::vector<Dual, std::allocator<Dual> > > >::_Vector_impl", %"struct.std::_Vector_base<std::vector<Dual, std::allocator<Dual> >, std::allocator<std::vector<Dual, std::allocator<Dual> > > >::_Vector_impl"* %9, i32 0, i32 2, !dbg !3084
  %11 = load %"class.std::vector"*, %"class.std::vector"** %10, align 4, !dbg !3084
  %12 = getelementptr inbounds %"struct.std::_Vector_base.1", %"struct.std::_Vector_base.1"* %5, i32 0, i32 0, !dbg !3085
  %13 = getelementptr inbounds %"struct.std::_Vector_base<std::vector<Dual, std::allocator<Dual> >, std::allocator<std::vector<Dual, std::allocator<Dual> > > >::_Vector_impl", %"struct.std::_Vector_base<std::vector<Dual, std::allocator<Dual> >, std::allocator<std::vector<Dual, std::allocator<Dual> > > >::_Vector_impl"* %12, i32 0, i32 0, !dbg !3086
  %14 = load %"class.std::vector"*, %"class.std::vector"** %13, align 4, !dbg !3086
  %15 = ptrtoint %"class.std::vector"* %11 to i32, !dbg !3087
  %16 = ptrtoint %"class.std::vector"* %14 to i32, !dbg !3087
  %17 = sub i32 %15, %16, !dbg !3087
  %18 = sdiv exact i32 %17, 12, !dbg !3087
  invoke void @_ZNSt12_Vector_baseISt6vectorI4DualSaIS1_EESaIS3_EE13_M_deallocateEPS3_j(%"struct.std::_Vector_base.1"* %5, %"class.std::vector"* %8, i32 %18)
          to label %19 unwind label %22, !dbg !3088

; <label>:19:                                     ; preds = %1
  %20 = getelementptr inbounds %"struct.std::_Vector_base.1", %"struct.std::_Vector_base.1"* %5, i32 0, i32 0, !dbg !3089
  %21 = call %"struct.std::_Vector_base<std::vector<Dual, std::allocator<Dual> >, std::allocator<std::vector<Dual, std::allocator<Dual> > > >::_Vector_impl"* @_ZNSt12_Vector_baseISt6vectorI4DualSaIS1_EESaIS3_EE12_Vector_implD2Ev(%"struct.std::_Vector_base<std::vector<Dual, std::allocator<Dual> >, std::allocator<std::vector<Dual, std::allocator<Dual> > > >::_Vector_impl"* %20) #3, !dbg !3089
  ret %"struct.std::_Vector_base.1"* %5, !dbg !3089

; <label>:22:                                     ; preds = %1
  %23 = landingpad { i8*, i32 }
          catch i8* null, !dbg !3091
  %24 = extractvalue { i8*, i32 } %23, 0, !dbg !3091
  store i8* %24, i8** %3, align 4, !dbg !3091
  %25 = extractvalue { i8*, i32 } %23, 1, !dbg !3091
  store i32 %25, i32* %4, align 4, !dbg !3091
  %26 = getelementptr inbounds %"struct.std::_Vector_base.1", %"struct.std::_Vector_base.1"* %5, i32 0, i32 0, !dbg !3091
  %27 = call %"struct.std::_Vector_base<std::vector<Dual, std::allocator<Dual> >, std::allocator<std::vector<Dual, std::allocator<Dual> > > >::_Vector_impl"* @_ZNSt12_Vector_baseISt6vectorI4DualSaIS1_EESaIS3_EE12_Vector_implD2Ev(%"struct.std::_Vector_base<std::vector<Dual, std::allocator<Dual> >, std::allocator<std::vector<Dual, std::allocator<Dual> > > >::_Vector_impl"* %26) #3, !dbg !3091
  br label %28, !dbg !3091

; <label>:28:                                     ; preds = %22
  %29 = load i8*, i8** %3, align 4, !dbg !3093
  call void @__clang_call_terminate(i8* %29) #12, !dbg !3093
  unreachable, !dbg !3093
}

; Function Attrs: nounwind
define linkonce_odr %"struct.std::_Vector_base<std::vector<Dual, std::allocator<Dual> >, std::allocator<std::vector<Dual, std::allocator<Dual> > > >::_Vector_impl"* @_ZNSt12_Vector_baseISt6vectorI4DualSaIS1_EESaIS3_EE12_Vector_implC2ERKS4_(%"struct.std::_Vector_base<std::vector<Dual, std::allocator<Dual> >, std::allocator<std::vector<Dual, std::allocator<Dual> > > >::_Vector_impl"* returned, %"class.std::allocator.2"* dereferenceable(1)) unnamed_addr #5 comdat align 2 !dbg !3095 !xidane.fname !2712 !xidane.function_declaration_type !2713 !xidane.function_declaration_filename !2034 {
  %3 = alloca %"struct.std::_Vector_base<std::vector<Dual, std::allocator<Dual> >, std::allocator<std::vector<Dual, std::allocator<Dual> > > >::_Vector_impl"*, align 4
  %4 = alloca %"class.std::allocator.2"*, align 4
  store %"struct.std::_Vector_base<std::vector<Dual, std::allocator<Dual> >, std::allocator<std::vector<Dual, std::allocator<Dual> > > >::_Vector_impl"* %0, %"struct.std::_Vector_base<std::vector<Dual, std::allocator<Dual> >, std::allocator<std::vector<Dual, std::allocator<Dual> > > >::_Vector_impl"** %3, align 4
  call void @llvm.dbg.declare(metadata %"struct.std::_Vector_base<std::vector<Dual, std::allocator<Dual> >, std::allocator<std::vector<Dual, std::allocator<Dual> > > >::_Vector_impl"** %3, metadata !3096, metadata !2003), !dbg !3098
  store %"class.std::allocator.2"* %1, %"class.std::allocator.2"** %4, align 4
  call void @llvm.dbg.declare(metadata %"class.std::allocator.2"** %4, metadata !3099, metadata !2003), !dbg !3100
  %5 = load %"struct.std::_Vector_base<std::vector<Dual, std::allocator<Dual> >, std::allocator<std::vector<Dual, std::allocator<Dual> > > >::_Vector_impl"*, %"struct.std::_Vector_base<std::vector<Dual, std::allocator<Dual> >, std::allocator<std::vector<Dual, std::allocator<Dual> > > >::_Vector_impl"** %3, align 4
  %6 = bitcast %"struct.std::_Vector_base<std::vector<Dual, std::allocator<Dual> >, std::allocator<std::vector<Dual, std::allocator<Dual> > > >::_Vector_impl"* %5 to %"class.std::allocator.2"*, !dbg !3101
  %7 = load %"class.std::allocator.2"*, %"class.std::allocator.2"** %4, align 4, !dbg !3102
  %8 = call %"class.std::allocator.2"* @_ZNSaISt6vectorI4DualSaIS0_EEEC2ERKS3_(%"class.std::allocator.2"* %6, %"class.std::allocator.2"* dereferenceable(1) %7) #3, !dbg !3103
  %9 = getelementptr inbounds %"struct.std::_Vector_base<std::vector<Dual, std::allocator<Dual> >, std::allocator<std::vector<Dual, std::allocator<Dual> > > >::_Vector_impl", %"struct.std::_Vector_base<std::vector<Dual, std::allocator<Dual> >, std::allocator<std::vector<Dual, std::allocator<Dual> > > >::_Vector_impl"* %5, i32 0, i32 0, !dbg !3104
  store %"class.std::vector"* null, %"class.std::vector"** %9, align 4, !dbg !3104
  %10 = getelementptr inbounds %"struct.std::_Vector_base<std::vector<Dual, std::allocator<Dual> >, std::allocator<std::vector<Dual, std::allocator<Dual> > > >::_Vector_impl", %"struct.std::_Vector_base<std::vector<Dual, std::allocator<Dual> >, std::allocator<std::vector<Dual, std::allocator<Dual> > > >::_Vector_impl"* %5, i32 0, i32 1, !dbg !3105
  store %"class.std::vector"* null, %"class.std::vector"** %10, align 4, !dbg !3105
  %11 = getelementptr inbounds %"struct.std::_Vector_base<std::vector<Dual, std::allocator<Dual> >, std::allocator<std::vector<Dual, std::allocator<Dual> > > >::_Vector_impl", %"struct.std::_Vector_base<std::vector<Dual, std::allocator<Dual> >, std::allocator<std::vector<Dual, std::allocator<Dual> > > >::_Vector_impl"* %5, i32 0, i32 2, !dbg !3106
  store %"class.std::vector"* null, %"class.std::vector"** %11, align 4, !dbg !3106
  ret %"struct.std::_Vector_base<std::vector<Dual, std::allocator<Dual> >, std::allocator<std::vector<Dual, std::allocator<Dual> > > >::_Vector_impl"* %5, !dbg !3107
}

define linkonce_odr void @_ZNSt12_Vector_baseISt6vectorI4DualSaIS1_EESaIS3_EE17_M_create_storageEj(%"struct.std::_Vector_base.1"*, i32) #0 comdat align 2 !dbg !3108 !xidane.fname !2727 !xidane.function_declaration_type !2728 !xidane.function_declaration_filename !2034 {
  %3 = alloca %"struct.std::_Vector_base.1"*, align 4
  %4 = alloca i32, align 4
  store %"struct.std::_Vector_base.1"* %0, %"struct.std::_Vector_base.1"** %3, align 4
  call void @llvm.dbg.declare(metadata %"struct.std::_Vector_base.1"** %3, metadata !3109, metadata !2003), !dbg !3110
  store i32 %1, i32* %4, align 4
  call void @llvm.dbg.declare(metadata i32* %4, metadata !3111, metadata !2003), !dbg !3112
  %5 = load %"struct.std::_Vector_base.1"*, %"struct.std::_Vector_base.1"** %3, align 4
  %6 = load i32, i32* %4, align 4, !dbg !3113
  %7 = call %"class.std::vector"* @_ZNSt12_Vector_baseISt6vectorI4DualSaIS1_EESaIS3_EE11_M_allocateEj(%"struct.std::_Vector_base.1"* %5, i32 %6), !dbg !3114
  %8 = getelementptr inbounds %"struct.std::_Vector_base.1", %"struct.std::_Vector_base.1"* %5, i32 0, i32 0, !dbg !3115
  %9 = getelementptr inbounds %"struct.std::_Vector_base<std::vector<Dual, std::allocator<Dual> >, std::allocator<std::vector<Dual, std::allocator<Dual> > > >::_Vector_impl", %"struct.std::_Vector_base<std::vector<Dual, std::allocator<Dual> >, std::allocator<std::vector<Dual, std::allocator<Dual> > > >::_Vector_impl"* %8, i32 0, i32 0, !dbg !3116
  store %"class.std::vector"* %7, %"class.std::vector"** %9, align 4, !dbg !3117
  %10 = getelementptr inbounds %"struct.std::_Vector_base.1", %"struct.std::_Vector_base.1"* %5, i32 0, i32 0, !dbg !3118
  %11 = getelementptr inbounds %"struct.std::_Vector_base<std::vector<Dual, std::allocator<Dual> >, std::allocator<std::vector<Dual, std::allocator<Dual> > > >::_Vector_impl", %"struct.std::_Vector_base<std::vector<Dual, std::allocator<Dual> >, std::allocator<std::vector<Dual, std::allocator<Dual> > > >::_Vector_impl"* %10, i32 0, i32 0, !dbg !3119
  %12 = load %"class.std::vector"*, %"class.std::vector"** %11, align 4, !dbg !3119
  %13 = getelementptr inbounds %"struct.std::_Vector_base.1", %"struct.std::_Vector_base.1"* %5, i32 0, i32 0, !dbg !3120
  %14 = getelementptr inbounds %"struct.std::_Vector_base<std::vector<Dual, std::allocator<Dual> >, std::allocator<std::vector<Dual, std::allocator<Dual> > > >::_Vector_impl", %"struct.std::_Vector_base<std::vector<Dual, std::allocator<Dual> >, std::allocator<std::vector<Dual, std::allocator<Dual> > > >::_Vector_impl"* %13, i32 0, i32 1, !dbg !3121
  store %"class.std::vector"* %12, %"class.std::vector"** %14, align 4, !dbg !3122
  %15 = getelementptr inbounds %"struct.std::_Vector_base.1", %"struct.std::_Vector_base.1"* %5, i32 0, i32 0, !dbg !3123
  %16 = getelementptr inbounds %"struct.std::_Vector_base<std::vector<Dual, std::allocator<Dual> >, std::allocator<std::vector<Dual, std::allocator<Dual> > > >::_Vector_impl", %"struct.std::_Vector_base<std::vector<Dual, std::allocator<Dual> >, std::allocator<std::vector<Dual, std::allocator<Dual> > > >::_Vector_impl"* %15, i32 0, i32 0, !dbg !3124
  %17 = load %"class.std::vector"*, %"class.std::vector"** %16, align 4, !dbg !3124
  %18 = load i32, i32* %4, align 4, !dbg !3125
  %19 = getelementptr inbounds %"class.std::vector", %"class.std::vector"* %17, i32 %18, !dbg !3126
  %20 = getelementptr inbounds %"struct.std::_Vector_base.1", %"struct.std::_Vector_base.1"* %5, i32 0, i32 0, !dbg !3127
  %21 = getelementptr inbounds %"struct.std::_Vector_base<std::vector<Dual, std::allocator<Dual> >, std::allocator<std::vector<Dual, std::allocator<Dual> > > >::_Vector_impl", %"struct.std::_Vector_base<std::vector<Dual, std::allocator<Dual> >, std::allocator<std::vector<Dual, std::allocator<Dual> > > >::_Vector_impl"* %20, i32 0, i32 2, !dbg !3128
  store %"class.std::vector"* %19, %"class.std::vector"** %21, align 4, !dbg !3129
  ret void, !dbg !3130
}

; Function Attrs: inlinehint nounwind
define linkonce_odr %"struct.std::_Vector_base<std::vector<Dual, std::allocator<Dual> >, std::allocator<std::vector<Dual, std::allocator<Dual> > > >::_Vector_impl"* @_ZNSt12_Vector_baseISt6vectorI4DualSaIS1_EESaIS3_EE12_Vector_implD2Ev(%"struct.std::_Vector_base<std::vector<Dual, std::allocator<Dual> >, std::allocator<std::vector<Dual, std::allocator<Dual> > > >::_Vector_impl"* returned) unnamed_addr #6 comdat align 2 !dbg !3131 !xidane.fname !2753 !xidane.function_declaration_type !1991 !xidane.function_declaration_filename !2034 {
  %2 = alloca %"struct.std::_Vector_base<std::vector<Dual, std::allocator<Dual> >, std::allocator<std::vector<Dual, std::allocator<Dual> > > >::_Vector_impl"*, align 4
  store %"struct.std::_Vector_base<std::vector<Dual, std::allocator<Dual> >, std::allocator<std::vector<Dual, std::allocator<Dual> > > >::_Vector_impl"* %0, %"struct.std::_Vector_base<std::vector<Dual, std::allocator<Dual> >, std::allocator<std::vector<Dual, std::allocator<Dual> > > >::_Vector_impl"** %2, align 4
  call void @llvm.dbg.declare(metadata %"struct.std::_Vector_base<std::vector<Dual, std::allocator<Dual> >, std::allocator<std::vector<Dual, std::allocator<Dual> > > >::_Vector_impl"** %2, metadata !3133, metadata !2003), !dbg !3134
  %3 = load %"struct.std::_Vector_base<std::vector<Dual, std::allocator<Dual> >, std::allocator<std::vector<Dual, std::allocator<Dual> > > >::_Vector_impl"*, %"struct.std::_Vector_base<std::vector<Dual, std::allocator<Dual> >, std::allocator<std::vector<Dual, std::allocator<Dual> > > >::_Vector_impl"** %2, align 4
  %4 = bitcast %"struct.std::_Vector_base<std::vector<Dual, std::allocator<Dual> >, std::allocator<std::vector<Dual, std::allocator<Dual> > > >::_Vector_impl"* %3 to %"class.std::allocator.2"*, !dbg !3135
  %5 = call %"class.std::allocator.2"* @_ZNSaISt6vectorI4DualSaIS0_EEED2Ev(%"class.std::allocator.2"* %4) #3, !dbg !3135
  ret %"struct.std::_Vector_base<std::vector<Dual, std::allocator<Dual> >, std::allocator<std::vector<Dual, std::allocator<Dual> > > >::_Vector_impl"* %3, !dbg !3137
}

; Function Attrs: nounwind
define linkonce_odr %"class.std::allocator.2"* @_ZNSaISt6vectorI4DualSaIS0_EEEC2ERKS3_(%"class.std::allocator.2"* returned, %"class.std::allocator.2"* dereferenceable(1)) unnamed_addr #5 comdat align 2 !dbg !3138 !xidane.fname !2167 !xidane.function_declaration_type !3139 !xidane.function_declaration_filename !2168 {
  %3 = alloca %"class.std::allocator.2"*, align 4
  %4 = alloca %"class.std::allocator.2"*, align 4
  store %"class.std::allocator.2"* %0, %"class.std::allocator.2"** %3, align 4
  call void @llvm.dbg.declare(metadata %"class.std::allocator.2"** %3, metadata !3140, metadata !2003), !dbg !3141
  store %"class.std::allocator.2"* %1, %"class.std::allocator.2"** %4, align 4
  call void @llvm.dbg.declare(metadata %"class.std::allocator.2"** %4, metadata !3142, metadata !2003), !dbg !3143
  %5 = load %"class.std::allocator.2"*, %"class.std::allocator.2"** %3, align 4
  %6 = bitcast %"class.std::allocator.2"* %5 to %"class.__gnu_cxx::new_allocator.3"*, !dbg !3144
  %7 = load %"class.std::allocator.2"*, %"class.std::allocator.2"** %4, align 4, !dbg !3145
  %8 = bitcast %"class.std::allocator.2"* %7 to %"class.__gnu_cxx::new_allocator.3"*, !dbg !3145
  %9 = call %"class.__gnu_cxx::new_allocator.3"* @_ZN9__gnu_cxx13new_allocatorISt6vectorI4DualSaIS2_EEEC2ERKS5_(%"class.__gnu_cxx::new_allocator.3"* %6, %"class.__gnu_cxx::new_allocator.3"* dereferenceable(1) %8) #3, !dbg !3146
  ret %"class.std::allocator.2"* %5, !dbg !3147
}

; Function Attrs: nounwind
define linkonce_odr %"class.__gnu_cxx::new_allocator.3"* @_ZN9__gnu_cxx13new_allocatorISt6vectorI4DualSaIS2_EEEC2ERKS5_(%"class.__gnu_cxx::new_allocator.3"* returned, %"class.__gnu_cxx::new_allocator.3"* dereferenceable(1)) unnamed_addr #5 comdat align 2 !dbg !3148 !xidane.fname !2644 !xidane.function_declaration_type !3149 !xidane.function_declaration_filename !2645 {
  %3 = alloca %"class.__gnu_cxx::new_allocator.3"*, align 4
  %4 = alloca %"class.__gnu_cxx::new_allocator.3"*, align 4
  store %"class.__gnu_cxx::new_allocator.3"* %0, %"class.__gnu_cxx::new_allocator.3"** %3, align 4
  call void @llvm.dbg.declare(metadata %"class.__gnu_cxx::new_allocator.3"** %3, metadata !3150, metadata !2003), !dbg !3151
  store %"class.__gnu_cxx::new_allocator.3"* %1, %"class.__gnu_cxx::new_allocator.3"** %4, align 4
  call void @llvm.dbg.declare(metadata %"class.__gnu_cxx::new_allocator.3"** %4, metadata !3152, metadata !2003), !dbg !3153
  %5 = load %"class.__gnu_cxx::new_allocator.3"*, %"class.__gnu_cxx::new_allocator.3"** %3, align 4
  ret %"class.__gnu_cxx::new_allocator.3"* %5, !dbg !3154
}

define linkonce_odr %"class.std::vector"* @_ZNSt12_Vector_baseISt6vectorI4DualSaIS1_EESaIS3_EE11_M_allocateEj(%"struct.std::_Vector_base.1"*, i32) #0 comdat align 2 !dbg !3155 !xidane.fname !2767 !xidane.function_declaration_type !2768 !xidane.function_declaration_filename !2034 {
  %3 = alloca %"struct.std::_Vector_base.1"*, align 4
  %4 = alloca i32, align 4
  store %"struct.std::_Vector_base.1"* %0, %"struct.std::_Vector_base.1"** %3, align 4
  call void @llvm.dbg.declare(metadata %"struct.std::_Vector_base.1"** %3, metadata !3156, metadata !2003), !dbg !3157
  store i32 %1, i32* %4, align 4
  call void @llvm.dbg.declare(metadata i32* %4, metadata !3158, metadata !2003), !dbg !3159
  %5 = load %"struct.std::_Vector_base.1"*, %"struct.std::_Vector_base.1"** %3, align 4
  %6 = load i32, i32* %4, align 4, !dbg !3160
  %7 = icmp ne i32 %6, 0, !dbg !3161
  br i1 %7, label %8, label %13, !dbg !3160

; <label>:8:                                      ; preds = %2
  %9 = getelementptr inbounds %"struct.std::_Vector_base.1", %"struct.std::_Vector_base.1"* %5, i32 0, i32 0, !dbg !3162
  %10 = bitcast %"struct.std::_Vector_base<std::vector<Dual, std::allocator<Dual> >, std::allocator<std::vector<Dual, std::allocator<Dual> > > >::_Vector_impl"* %9 to %"class.std::allocator.2"*, !dbg !3162
  %11 = load i32, i32* %4, align 4, !dbg !3164
  %12 = call %"class.std::vector"* @_ZNSt16allocator_traitsISaISt6vectorI4DualSaIS1_EEEE8allocateERS4_j(%"class.std::allocator.2"* dereferenceable(1) %10, i32 %11), !dbg !3165
  br label %14, !dbg !3166

; <label>:13:                                     ; preds = %2
  br label %14, !dbg !3167

; <label>:14:                                     ; preds = %13, %8
  %15 = phi %"class.std::vector"* [ %12, %8 ], [ null, %13 ], !dbg !3169
  ret %"class.std::vector"* %15, !dbg !3171
}

define linkonce_odr %"class.std::vector"* @_ZNSt16allocator_traitsISaISt6vectorI4DualSaIS1_EEEE8allocateERS4_j(%"class.std::allocator.2"* dereferenceable(1), i32) #0 comdat align 2 !dbg !3172 !xidane.fname !2786 !xidane.function_declaration_type !2787 !xidane.function_declaration_filename !2788 {
  %3 = alloca %"class.std::allocator.2"*, align 4
  %4 = alloca i32, align 4
  store %"class.std::allocator.2"* %0, %"class.std::allocator.2"** %3, align 4
  call void @llvm.dbg.declare(metadata %"class.std::allocator.2"** %3, metadata !3173, metadata !2003), !dbg !3174
  store i32 %1, i32* %4, align 4
  call void @llvm.dbg.declare(metadata i32* %4, metadata !3175, metadata !2003), !dbg !3176
  %5 = load %"class.std::allocator.2"*, %"class.std::allocator.2"** %3, align 4, !dbg !3177
  %6 = bitcast %"class.std::allocator.2"* %5 to %"class.__gnu_cxx::new_allocator.3"*, !dbg !3177
  %7 = load i32, i32* %4, align 4, !dbg !3178
  %8 = call %"class.std::vector"* @_ZN9__gnu_cxx13new_allocatorISt6vectorI4DualSaIS2_EEE8allocateEjPKv(%"class.__gnu_cxx::new_allocator.3"* %6, i32 %7, i8* null), !dbg !3179
  ret %"class.std::vector"* %8, !dbg !3180
}

define linkonce_odr %"class.std::vector"* @_ZN9__gnu_cxx13new_allocatorISt6vectorI4DualSaIS2_EEE8allocateEjPKv(%"class.__gnu_cxx::new_allocator.3"*, i32, i8*) #0 comdat align 2 !dbg !3181 !xidane.fname !2786 !xidane.function_declaration_type !2798 !xidane.function_declaration_filename !2645 {
  %4 = alloca %"class.__gnu_cxx::new_allocator.3"*, align 4
  %5 = alloca i32, align 4
  %6 = alloca i8*, align 4
  store %"class.__gnu_cxx::new_allocator.3"* %0, %"class.__gnu_cxx::new_allocator.3"** %4, align 4
  call void @llvm.dbg.declare(metadata %"class.__gnu_cxx::new_allocator.3"** %4, metadata !3182, metadata !2003), !dbg !3183
  store i32 %1, i32* %5, align 4
  call void @llvm.dbg.declare(metadata i32* %5, metadata !3184, metadata !2003), !dbg !3185
  store i8* %2, i8** %6, align 4
  call void @llvm.dbg.declare(metadata i8** %6, metadata !3186, metadata !2003), !dbg !3187
  %7 = load %"class.__gnu_cxx::new_allocator.3"*, %"class.__gnu_cxx::new_allocator.3"** %4, align 4
  %8 = load i32, i32* %5, align 4, !dbg !3188
  %9 = call i32 @_ZNK9__gnu_cxx13new_allocatorISt6vectorI4DualSaIS2_EEE8max_sizeEv(%"class.__gnu_cxx::new_allocator.3"* %7) #3, !dbg !3190
  %10 = icmp ugt i32 %8, %9, !dbg !3191
  br i1 %10, label %11, label %12, !dbg !3192

; <label>:11:                                     ; preds = %3
  call void @_ZSt17__throw_bad_allocv() #14, !dbg !3193
  unreachable, !dbg !3193

; <label>:12:                                     ; preds = %3
  %13 = load i32, i32* %5, align 4, !dbg !3194
  %14 = mul i32 %13, 12, !dbg !3195
  %15 = call i8* @_Znwj(i32 %14), !dbg !3196
  %16 = bitcast i8* %15 to %"class.std::vector"*, !dbg !3197
  ret %"class.std::vector"* %16, !dbg !3198
}

; Function Attrs: nounwind
define linkonce_odr i32 @_ZNK9__gnu_cxx13new_allocatorISt6vectorI4DualSaIS2_EEE8max_sizeEv(%"class.__gnu_cxx::new_allocator.3"*) #5 comdat align 2 !dbg !3199 !xidane.fname !2817 !xidane.function_declaration_type !2157 !xidane.function_declaration_filename !2645 {
  %2 = alloca %"class.__gnu_cxx::new_allocator.3"*, align 4
  store %"class.__gnu_cxx::new_allocator.3"* %0, %"class.__gnu_cxx::new_allocator.3"** %2, align 4
  call void @llvm.dbg.declare(metadata %"class.__gnu_cxx::new_allocator.3"** %2, metadata !3200, metadata !2003), !dbg !3202
  %3 = load %"class.__gnu_cxx::new_allocator.3"*, %"class.__gnu_cxx::new_allocator.3"** %2, align 4
  ret i32 357913941, !dbg !3203
}

; Function Attrs: inlinehint
define linkonce_odr %"class.std::vector"* @_ZSt24__uninitialized_fill_n_aIPSt6vectorI4DualSaIS1_EEjS3_S3_ET_S5_T0_RKT1_RSaIT2_E(%"class.std::vector"*, i32, %"class.std::vector"* dereferenceable(12), %"class.std::allocator.2"* dereferenceable(1)) #10 comdat !dbg !3204 !xidane.fname !3210 !xidane.function_declaration_type !3211 !xidane.function_declaration_filename !2835 {
  %5 = alloca %"class.std::vector"*, align 4
  %6 = alloca i32, align 4
  %7 = alloca %"class.std::vector"*, align 4
  %8 = alloca %"class.std::allocator.2"*, align 4
  store %"class.std::vector"* %0, %"class.std::vector"** %5, align 4
  call void @llvm.dbg.declare(metadata %"class.std::vector"** %5, metadata !3212, metadata !2003), !dbg !3213
  store i32 %1, i32* %6, align 4
  call void @llvm.dbg.declare(metadata i32* %6, metadata !3214, metadata !2003), !dbg !3215
  store %"class.std::vector"* %2, %"class.std::vector"** %7, align 4
  call void @llvm.dbg.declare(metadata %"class.std::vector"** %7, metadata !3216, metadata !2003), !dbg !3217
  store %"class.std::allocator.2"* %3, %"class.std::allocator.2"** %8, align 4
  call void @llvm.dbg.declare(metadata %"class.std::allocator.2"** %8, metadata !3218, metadata !2003), !dbg !3219
  %9 = load %"class.std::vector"*, %"class.std::vector"** %5, align 4, !dbg !3220
  %10 = load i32, i32* %6, align 4, !dbg !3221
  %11 = load %"class.std::vector"*, %"class.std::vector"** %7, align 4, !dbg !3222
  %12 = call %"class.std::vector"* @_ZSt20uninitialized_fill_nIPSt6vectorI4DualSaIS1_EEjS3_ET_S5_T0_RKT1_(%"class.std::vector"* %9, i32 %10, %"class.std::vector"* dereferenceable(12) %11), !dbg !3223
  ret %"class.std::vector"* %12, !dbg !3224
}

; Function Attrs: nounwind
define linkonce_odr dereferenceable(1) %"class.std::allocator.2"* @_ZNSt12_Vector_baseISt6vectorI4DualSaIS1_EESaIS3_EE19_M_get_Tp_allocatorEv(%"struct.std::_Vector_base.1"*) #5 comdat align 2 !dbg !3225 !xidane.fname !2847 !xidane.function_declaration_type !2848 !xidane.function_declaration_filename !2034 {
  %2 = alloca %"struct.std::_Vector_base.1"*, align 4
  store %"struct.std::_Vector_base.1"* %0, %"struct.std::_Vector_base.1"** %2, align 4
  call void @llvm.dbg.declare(metadata %"struct.std::_Vector_base.1"** %2, metadata !3226, metadata !2003), !dbg !3227
  %3 = load %"struct.std::_Vector_base.1"*, %"struct.std::_Vector_base.1"** %2, align 4
  %4 = getelementptr inbounds %"struct.std::_Vector_base.1", %"struct.std::_Vector_base.1"* %3, i32 0, i32 0, !dbg !3228
  %5 = bitcast %"struct.std::_Vector_base<std::vector<Dual, std::allocator<Dual> >, std::allocator<std::vector<Dual, std::allocator<Dual> > > >::_Vector_impl"* %4 to %"class.std::allocator.2"*, !dbg !3229
  ret %"class.std::allocator.2"* %5, !dbg !3230
}

; Function Attrs: inlinehint
define linkonce_odr %"class.std::vector"* @_ZSt20uninitialized_fill_nIPSt6vectorI4DualSaIS1_EEjS3_ET_S5_T0_RKT1_(%"class.std::vector"*, i32, %"class.std::vector"* dereferenceable(12)) #10 comdat !dbg !3231 !xidane.fname !3235 !xidane.function_declaration_type !3236 !xidane.function_declaration_filename !2835 {
  %4 = alloca %"class.std::vector"*, align 4
  %5 = alloca i32, align 4
  %6 = alloca %"class.std::vector"*, align 4
  %7 = alloca i8, align 1
  store %"class.std::vector"* %0, %"class.std::vector"** %4, align 4
  call void @llvm.dbg.declare(metadata %"class.std::vector"** %4, metadata !3237, metadata !2003), !dbg !3238
  store i32 %1, i32* %5, align 4
  call void @llvm.dbg.declare(metadata i32* %5, metadata !3239, metadata !2003), !dbg !3240
  store %"class.std::vector"* %2, %"class.std::vector"** %6, align 4
  call void @llvm.dbg.declare(metadata %"class.std::vector"** %6, metadata !3241, metadata !2003), !dbg !3242
  call void @llvm.dbg.declare(metadata i8* %7, metadata !3243, metadata !2003), !dbg !3244
  store i8 1, i8* %7, align 1, !dbg !3244
  %8 = load %"class.std::vector"*, %"class.std::vector"** %4, align 4, !dbg !3245
  %9 = load i32, i32* %5, align 4, !dbg !3246
  %10 = load %"class.std::vector"*, %"class.std::vector"** %6, align 4, !dbg !3247
  %11 = call %"class.std::vector"* @_ZNSt22__uninitialized_fill_nILb0EE15__uninit_fill_nIPSt6vectorI4DualSaIS3_EEjS5_EET_S7_T0_RKT1_(%"class.std::vector"* %8, i32 %9, %"class.std::vector"* dereferenceable(12) %10), !dbg !3248
  ret %"class.std::vector"* %11, !dbg !3249
}

define linkonce_odr %"class.std::vector"* @_ZNSt22__uninitialized_fill_nILb0EE15__uninit_fill_nIPSt6vectorI4DualSaIS3_EEjS5_EET_S7_T0_RKT1_(%"class.std::vector"*, i32, %"class.std::vector"* dereferenceable(12)) #0 comdat align 2 personality i8* bitcast (i32 (...)* @__gxx_personality_v0 to i8*) !dbg !3250 !xidane.fname !3253 !xidane.function_declaration_type !3236 !xidane.function_declaration_filename !2835 {
  %4 = alloca %"class.std::vector"*, align 4
  %5 = alloca i32, align 4
  %6 = alloca %"class.std::vector"*, align 4
  %7 = alloca %"class.std::vector"*, align 4
  %8 = alloca i8*
  %9 = alloca i32
  store %"class.std::vector"* %0, %"class.std::vector"** %4, align 4
  call void @llvm.dbg.declare(metadata %"class.std::vector"** %4, metadata !3254, metadata !2003), !dbg !3255
  store i32 %1, i32* %5, align 4
  call void @llvm.dbg.declare(metadata i32* %5, metadata !3256, metadata !2003), !dbg !3257
  store %"class.std::vector"* %2, %"class.std::vector"** %6, align 4
  call void @llvm.dbg.declare(metadata %"class.std::vector"** %6, metadata !3258, metadata !2003), !dbg !3259
  call void @llvm.dbg.declare(metadata %"class.std::vector"** %7, metadata !3260, metadata !2003), !dbg !3261
  %10 = load %"class.std::vector"*, %"class.std::vector"** %4, align 4, !dbg !3262
  store %"class.std::vector"* %10, %"class.std::vector"** %7, align 4, !dbg !3261
  br label %11, !dbg !3263

; <label>:11:                                     ; preds = %19, %3
  %12 = load i32, i32* %5, align 4, !dbg !3265
  %13 = icmp ugt i32 %12, 0, !dbg !3269
  br i1 %13, label %14, label %34, !dbg !3270

; <label>:14:                                     ; preds = %11
  %15 = load %"class.std::vector"*, %"class.std::vector"** %7, align 4, !dbg !3271
  %16 = call %"class.std::vector"* @_ZSt11__addressofISt6vectorI4DualSaIS1_EEEPT_RS4_(%"class.std::vector"* dereferenceable(12) %15) #3, !dbg !3272
  %17 = load %"class.std::vector"*, %"class.std::vector"** %6, align 4, !dbg !3273
  invoke void @_ZSt10_ConstructISt6vectorI4DualSaIS1_EEJRKS3_EEvPT_DpOT0_(%"class.std::vector"* %16, %"class.std::vector"* dereferenceable(12) %17)
          to label %18 unwind label %24, !dbg !3274

; <label>:18:                                     ; preds = %14
  br label %19, !dbg !3275

; <label>:19:                                     ; preds = %18
  %20 = load i32, i32* %5, align 4, !dbg !3276
  %21 = add i32 %20, -1, !dbg !3276
  store i32 %21, i32* %5, align 4, !dbg !3276
  %22 = load %"class.std::vector"*, %"class.std::vector"** %7, align 4, !dbg !3278
  %23 = getelementptr inbounds %"class.std::vector", %"class.std::vector"* %22, i32 1, !dbg !3278
  store %"class.std::vector"* %23, %"class.std::vector"** %7, align 4, !dbg !3278
  br label %11, !dbg !3279, !llvm.loop !3280

; <label>:24:                                     ; preds = %14
  %25 = landingpad { i8*, i32 }
          catch i8* null, !dbg !3281
  %26 = extractvalue { i8*, i32 } %25, 0, !dbg !3281
  store i8* %26, i8** %8, align 4, !dbg !3281
  %27 = extractvalue { i8*, i32 } %25, 1, !dbg !3281
  store i32 %27, i32* %9, align 4, !dbg !3281
  br label %28, !dbg !3281

; <label>:28:                                     ; preds = %24
  %29 = load i8*, i8** %8, align 4, !dbg !3282
  %30 = call i8* @__cxa_begin_catch(i8* %29) #3, !dbg !3282
  %31 = load %"class.std::vector"*, %"class.std::vector"** %4, align 4, !dbg !3283
  %32 = load %"class.std::vector"*, %"class.std::vector"** %7, align 4, !dbg !3285
  invoke void @_ZSt8_DestroyIPSt6vectorI4DualSaIS1_EEEvT_S5_(%"class.std::vector"* %31, %"class.std::vector"* %32)
          to label %33 unwind label %36, !dbg !3286

; <label>:33:                                     ; preds = %28
  invoke void @__cxa_rethrow() #14
          to label %50 unwind label %36, !dbg !3287

; <label>:34:                                     ; preds = %11
  %35 = load %"class.std::vector"*, %"class.std::vector"** %7, align 4, !dbg !3288
  ret %"class.std::vector"* %35, !dbg !3289

; <label>:36:                                     ; preds = %33, %28
  %37 = landingpad { i8*, i32 }
          cleanup, !dbg !3290
  %38 = extractvalue { i8*, i32 } %37, 0, !dbg !3290
  store i8* %38, i8** %8, align 4, !dbg !3290
  %39 = extractvalue { i8*, i32 } %37, 1, !dbg !3290
  store i32 %39, i32* %9, align 4, !dbg !3290
  invoke void @__cxa_end_catch()
          to label %40 unwind label %47, !dbg !3292

; <label>:40:                                     ; preds = %36
  br label %42, !dbg !3293
                                                  ; No predecessors!
  call void @llvm.trap(), !dbg !3294
  unreachable, !dbg !3294

; <label>:42:                                     ; preds = %40
  %43 = load i8*, i8** %8, align 4, !dbg !3296
  %44 = load i32, i32* %9, align 4, !dbg !3296
  %45 = insertvalue { i8*, i32 } undef, i8* %43, 0, !dbg !3296
  %46 = insertvalue { i8*, i32 } %45, i32 %44, 1, !dbg !3296
  resume { i8*, i32 } %46, !dbg !3296

; <label>:47:                                     ; preds = %36
  %48 = landingpad { i8*, i32 }
          catch i8* null, !dbg !3298
  %49 = extractvalue { i8*, i32 } %48, 0, !dbg !3298
  call void @__clang_call_terminate(i8* %49) #12, !dbg !3298
  unreachable, !dbg !3298

; <label>:50:                                     ; preds = %33
  unreachable
}

; Function Attrs: inlinehint
define linkonce_odr void @_ZSt10_ConstructISt6vectorI4DualSaIS1_EEJRKS3_EEvPT_DpOT0_(%"class.std::vector"*, %"class.std::vector"* dereferenceable(12)) #10 comdat !dbg !3300 !xidane.fname !2926 !xidane.function_declaration_type !3308 !xidane.function_declaration_filename !2928 {
  %3 = alloca %"class.std::vector"*, align 4
  %4 = alloca %"class.std::vector"*, align 4
  store %"class.std::vector"* %0, %"class.std::vector"** %3, align 4
  call void @llvm.dbg.declare(metadata %"class.std::vector"** %3, metadata !3309, metadata !2003), !dbg !3310
  store %"class.std::vector"* %1, %"class.std::vector"** %4, align 4
  call void @llvm.dbg.declare(metadata %"class.std::vector"** %4, metadata !3311, metadata !2003), !dbg !3312
  %5 = load %"class.std::vector"*, %"class.std::vector"** %3, align 4, !dbg !3313
  %6 = bitcast %"class.std::vector"* %5 to i8*, !dbg !3313
  %7 = bitcast i8* %6 to %"class.std::vector"*, !dbg !3314
  %8 = load %"class.std::vector"*, %"class.std::vector"** %4, align 4, !dbg !3315
  %9 = call dereferenceable(12) %"class.std::vector"* @_ZSt7forwardIRKSt6vectorI4DualSaIS1_EEEOT_RNSt16remove_referenceIS6_E4typeE(%"class.std::vector"* dereferenceable(12) %8) #3, !dbg !3316
  %10 = call %"class.std::vector"* @_ZNSt6vectorI4DualSaIS0_EEC2ERKS2_(%"class.std::vector"* %7, %"class.std::vector"* dereferenceable(12) %9), !dbg !3317
  ret void, !dbg !3319
}

; Function Attrs: inlinehint nounwind
define linkonce_odr %"class.std::vector"* @_ZSt11__addressofISt6vectorI4DualSaIS1_EEEPT_RS4_(%"class.std::vector"* dereferenceable(12)) #6 comdat !dbg !3320 !xidane.fname !2939 !xidane.function_declaration_type !3323 !xidane.function_declaration_filename !2941 {
  %2 = alloca %"class.std::vector"*, align 4
  store %"class.std::vector"* %0, %"class.std::vector"** %2, align 4
  call void @llvm.dbg.declare(metadata %"class.std::vector"** %2, metadata !3324, metadata !2003), !dbg !3325
  %3 = load %"class.std::vector"*, %"class.std::vector"** %2, align 4, !dbg !3326
  ret %"class.std::vector"* %3, !dbg !3327
}

; Function Attrs: inlinehint
define linkonce_odr void @_ZSt8_DestroyIPSt6vectorI4DualSaIS1_EEEvT_S5_(%"class.std::vector"*, %"class.std::vector"*) #10 comdat !dbg !3328 !xidane.fname !2950 !xidane.function_declaration_type !3332 !xidane.function_declaration_filename !2928 {
  %3 = alloca %"class.std::vector"*, align 4
  %4 = alloca %"class.std::vector"*, align 4
  store %"class.std::vector"* %0, %"class.std::vector"** %3, align 4
  call void @llvm.dbg.declare(metadata %"class.std::vector"** %3, metadata !3333, metadata !2003), !dbg !3334
  store %"class.std::vector"* %1, %"class.std::vector"** %4, align 4
  call void @llvm.dbg.declare(metadata %"class.std::vector"** %4, metadata !3335, metadata !2003), !dbg !3336
  %5 = load %"class.std::vector"*, %"class.std::vector"** %3, align 4, !dbg !3337
  %6 = load %"class.std::vector"*, %"class.std::vector"** %4, align 4, !dbg !3338
  call void @_ZNSt12_Destroy_auxILb0EE9__destroyIPSt6vectorI4DualSaIS3_EEEEvT_S7_(%"class.std::vector"* %5, %"class.std::vector"* %6), !dbg !3339
  ret void, !dbg !3340
}

; Function Attrs: nounwind
define linkonce_odr dereferenceable(12) %"class.std::vector"* @_ZSt7forwardIRKSt6vectorI4DualSaIS1_EEEOT_RNSt16remove_referenceIS6_E4typeE(%"class.std::vector"* dereferenceable(12)) #5 comdat !dbg !3341 !xidane.fname !3349 !xidane.function_declaration_type !3350 !xidane.function_declaration_filename !2941 {
  %2 = alloca %"class.std::vector"*, align 4
  store %"class.std::vector"* %0, %"class.std::vector"** %2, align 4
  call void @llvm.dbg.declare(metadata %"class.std::vector"** %2, metadata !3351, metadata !2003), !dbg !3352
  %3 = load %"class.std::vector"*, %"class.std::vector"** %2, align 4, !dbg !3353
  ret %"class.std::vector"* %3, !dbg !3354
}

define linkonce_odr %"class.std::vector"* @_ZNSt6vectorI4DualSaIS0_EEC2ERKS2_(%"class.std::vector"* returned, %"class.std::vector"* dereferenceable(12)) unnamed_addr #0 comdat align 2 personality i8* bitcast (i32 (...)* @__gxx_personality_v0 to i8*) !dbg !3355 !xidane.fname !2176 !xidane.function_declaration_type !3356 !xidane.function_declaration_filename !2034 {
  %3 = alloca %"class.std::vector"*, align 4
  %4 = alloca %"class.std::vector"*, align 4
  %5 = alloca %"class.std::allocator", align 1
  %6 = alloca i8*
  %7 = alloca i32
  %8 = alloca %"class.__gnu_cxx::__normal_iterator.5", align 4
  %9 = alloca %"class.__gnu_cxx::__normal_iterator.5", align 4
  store %"class.std::vector"* %0, %"class.std::vector"** %3, align 4
  call void @llvm.dbg.declare(metadata %"class.std::vector"** %3, metadata !3357, metadata !2003), !dbg !3358
  store %"class.std::vector"* %1, %"class.std::vector"** %4, align 4
  call void @llvm.dbg.declare(metadata %"class.std::vector"** %4, metadata !3359, metadata !2003), !dbg !3360
  %10 = load %"class.std::vector"*, %"class.std::vector"** %3, align 4
  %11 = bitcast %"class.std::vector"* %10 to %"struct.std::_Vector_base"*, !dbg !3361
  %12 = load %"class.std::vector"*, %"class.std::vector"** %4, align 4, !dbg !3362
  %13 = call i32 @_ZNKSt6vectorI4DualSaIS0_EE4sizeEv(%"class.std::vector"* %12) #3, !dbg !3363
  %14 = load %"class.std::vector"*, %"class.std::vector"** %4, align 4, !dbg !3364
  %15 = bitcast %"class.std::vector"* %14 to %"struct.std::_Vector_base"*, !dbg !3364
  %16 = call dereferenceable(1) %"class.std::allocator"* @_ZNKSt12_Vector_baseI4DualSaIS0_EE19_M_get_Tp_allocatorEv(%"struct.std::_Vector_base"* %15) #3, !dbg !3365
  call void @_ZN9__gnu_cxx14__alloc_traitsISaI4DualEE17_S_select_on_copyERKS2_(%"class.std::allocator"* sret %5, %"class.std::allocator"* dereferenceable(1) %16), !dbg !3366
  %17 = invoke %"struct.std::_Vector_base"* @_ZNSt12_Vector_baseI4DualSaIS0_EEC2EjRKS1_(%"struct.std::_Vector_base"* %11, i32 %13, %"class.std::allocator"* dereferenceable(1) %5)
          to label %18 unwind label %45, !dbg !3368

; <label>:18:                                     ; preds = %2
  %19 = call %"class.std::allocator"* @_ZNSaI4DualED2Ev(%"class.std::allocator"* %5) #3, !dbg !3369
  %20 = load %"class.std::vector"*, %"class.std::vector"** %4, align 4, !dbg !3370
  %21 = call i32 @_ZNKSt6vectorI4DualSaIS0_EE5beginEv(%"class.std::vector"* %20) #3, !dbg !3372
  %22 = getelementptr inbounds %"class.__gnu_cxx::__normal_iterator.5", %"class.__gnu_cxx::__normal_iterator.5"* %8, i32 0, i32 0, !dbg !3372
  %23 = inttoptr i32 %21 to %class.Dual*, !dbg !3372
  store %class.Dual* %23, %class.Dual** %22, align 4, !dbg !3372
  %24 = load %"class.std::vector"*, %"class.std::vector"** %4, align 4, !dbg !3373
  %25 = call i32 @_ZNKSt6vectorI4DualSaIS0_EE3endEv(%"class.std::vector"* %24) #3, !dbg !3374
  %26 = getelementptr inbounds %"class.__gnu_cxx::__normal_iterator.5", %"class.__gnu_cxx::__normal_iterator.5"* %9, i32 0, i32 0, !dbg !3376
  %27 = inttoptr i32 %25 to %class.Dual*, !dbg !3376
  store %class.Dual* %27, %class.Dual** %26, align 4, !dbg !3376
  %28 = bitcast %"class.std::vector"* %10 to %"struct.std::_Vector_base"*, !dbg !3377
  %29 = getelementptr inbounds %"struct.std::_Vector_base", %"struct.std::_Vector_base"* %28, i32 0, i32 0, !dbg !3377
  %30 = getelementptr inbounds %"struct.std::_Vector_base<Dual, std::allocator<Dual> >::_Vector_impl", %"struct.std::_Vector_base<Dual, std::allocator<Dual> >::_Vector_impl"* %29, i32 0, i32 0, !dbg !3378
  %31 = load %class.Dual*, %class.Dual** %30, align 4, !dbg !3378
  %32 = bitcast %"class.std::vector"* %10 to %"struct.std::_Vector_base"*, !dbg !3379
  %33 = call dereferenceable(1) %"class.std::allocator"* @_ZNSt12_Vector_baseI4DualSaIS0_EE19_M_get_Tp_allocatorEv(%"struct.std::_Vector_base"* %32) #3, !dbg !3379
  %34 = getelementptr inbounds %"class.__gnu_cxx::__normal_iterator.5", %"class.__gnu_cxx::__normal_iterator.5"* %8, i32 0, i32 0, !dbg !3380
  %35 = bitcast %class.Dual** %34 to [1 x i32]*, !dbg !3380
  %36 = load [1 x i32], [1 x i32]* %35, align 4, !dbg !3380
  %37 = getelementptr inbounds %"class.__gnu_cxx::__normal_iterator.5", %"class.__gnu_cxx::__normal_iterator.5"* %9, i32 0, i32 0, !dbg !3380
  %38 = bitcast %class.Dual** %37 to [1 x i32]*, !dbg !3380
  %39 = load [1 x i32], [1 x i32]* %38, align 4, !dbg !3380
  %40 = invoke %class.Dual* @_ZSt22__uninitialized_copy_aIN9__gnu_cxx17__normal_iteratorIPK4DualSt6vectorIS2_SaIS2_EEEEPS2_S2_ET0_T_SB_SA_RSaIT1_E([1 x i32] %36, [1 x i32] %39, %class.Dual* %31, %"class.std::allocator"* dereferenceable(1) %33)
          to label %41 unwind label %50, !dbg !3380

; <label>:41:                                     ; preds = %18
  %42 = bitcast %"class.std::vector"* %10 to %"struct.std::_Vector_base"*, !dbg !3381
  %43 = getelementptr inbounds %"struct.std::_Vector_base", %"struct.std::_Vector_base"* %42, i32 0, i32 0, !dbg !3381
  %44 = getelementptr inbounds %"struct.std::_Vector_base<Dual, std::allocator<Dual> >::_Vector_impl", %"struct.std::_Vector_base<Dual, std::allocator<Dual> >::_Vector_impl"* %43, i32 0, i32 1, !dbg !3382
  store %class.Dual* %40, %class.Dual** %44, align 4, !dbg !3383
  ret %"class.std::vector"* %10, !dbg !3384

; <label>:45:                                     ; preds = %2
  %46 = landingpad { i8*, i32 }
          cleanup, !dbg !3385
  %47 = extractvalue { i8*, i32 } %46, 0, !dbg !3385
  store i8* %47, i8** %6, align 4, !dbg !3385
  %48 = extractvalue { i8*, i32 } %46, 1, !dbg !3385
  store i32 %48, i32* %7, align 4, !dbg !3385
  %49 = call %"class.std::allocator"* @_ZNSaI4DualED2Ev(%"class.std::allocator"* %5) #3, !dbg !3386
  br label %56, !dbg !3386

; <label>:50:                                     ; preds = %18
  %51 = landingpad { i8*, i32 }
          cleanup, !dbg !3388
  %52 = extractvalue { i8*, i32 } %51, 0, !dbg !3388
  store i8* %52, i8** %6, align 4, !dbg !3388
  %53 = extractvalue { i8*, i32 } %51, 1, !dbg !3388
  store i32 %53, i32* %7, align 4, !dbg !3388
  %54 = bitcast %"class.std::vector"* %10 to %"struct.std::_Vector_base"*, !dbg !3388
  %55 = call %"struct.std::_Vector_base"* @_ZNSt12_Vector_baseI4DualSaIS0_EED2Ev(%"struct.std::_Vector_base"* %54) #3, !dbg !3388
  br label %56, !dbg !3388

; <label>:56:                                     ; preds = %50, %45
  %57 = load i8*, i8** %6, align 4, !dbg !3390
  %58 = load i32, i32* %7, align 4, !dbg !3390
  %59 = insertvalue { i8*, i32 } undef, i8* %57, 0, !dbg !3390
  %60 = insertvalue { i8*, i32 } %59, i32 %58, 1, !dbg !3390
  resume { i8*, i32 } %60, !dbg !3390
}

define linkonce_odr void @_ZN9__gnu_cxx14__alloc_traitsISaI4DualEE17_S_select_on_copyERKS2_(%"class.std::allocator"* noalias sret, %"class.std::allocator"* dereferenceable(1)) #0 comdat align 2 !dbg !3392 !xidane.fname !3393 !xidane.function_declaration_type !3394 !xidane.function_declaration_filename !3395 {
  %3 = alloca %"class.std::allocator"*, align 4
  store %"class.std::allocator"* %1, %"class.std::allocator"** %3, align 4
  call void @llvm.dbg.declare(metadata %"class.std::allocator"** %3, metadata !3396, metadata !2003), !dbg !3397
  %4 = load %"class.std::allocator"*, %"class.std::allocator"** %3, align 4, !dbg !3398
  call void @_ZNSt16allocator_traitsISaI4DualEE37select_on_container_copy_constructionERKS1_(%"class.std::allocator"* sret %0, %"class.std::allocator"* dereferenceable(1) %4), !dbg !3399
  ret void, !dbg !3400
}

; Function Attrs: nounwind
define linkonce_odr dereferenceable(1) %"class.std::allocator"* @_ZNKSt12_Vector_baseI4DualSaIS0_EE19_M_get_Tp_allocatorEv(%"struct.std::_Vector_base"*) #5 comdat align 2 !dbg !3401 !xidane.fname !2847 !xidane.function_declaration_type !3402 !xidane.function_declaration_filename !2034 {
  %2 = alloca %"struct.std::_Vector_base"*, align 4
  store %"struct.std::_Vector_base"* %0, %"struct.std::_Vector_base"** %2, align 4
  call void @llvm.dbg.declare(metadata %"struct.std::_Vector_base"** %2, metadata !3403, metadata !2003), !dbg !3405
  %3 = load %"struct.std::_Vector_base"*, %"struct.std::_Vector_base"** %2, align 4
  %4 = getelementptr inbounds %"struct.std::_Vector_base", %"struct.std::_Vector_base"* %3, i32 0, i32 0, !dbg !3406
  %5 = bitcast %"struct.std::_Vector_base<Dual, std::allocator<Dual> >::_Vector_impl"* %4 to %"class.std::allocator"*, !dbg !3407
  ret %"class.std::allocator"* %5, !dbg !3408
}

; Function Attrs: inlinehint
define linkonce_odr %class.Dual* @_ZSt22__uninitialized_copy_aIN9__gnu_cxx17__normal_iteratorIPK4DualSt6vectorIS2_SaIS2_EEEEPS2_S2_ET0_T_SB_SA_RSaIT1_E([1 x i32], [1 x i32], %class.Dual*, %"class.std::allocator"* dereferenceable(1)) #10 comdat !dbg !3409 !xidane.fname !3414 !xidane.function_declaration_type !3415 !xidane.function_declaration_filename !2835 {
  %5 = alloca %"class.__gnu_cxx::__normal_iterator.5", align 4
  %6 = alloca %"class.__gnu_cxx::__normal_iterator.5", align 4
  %7 = alloca %class.Dual*, align 4
  %8 = alloca %"class.std::allocator"*, align 4
  %9 = alloca %"class.__gnu_cxx::__normal_iterator.5", align 4
  %10 = alloca %"class.__gnu_cxx::__normal_iterator.5", align 4
  %11 = getelementptr inbounds %"class.__gnu_cxx::__normal_iterator.5", %"class.__gnu_cxx::__normal_iterator.5"* %5, i32 0, i32 0
  %12 = bitcast %class.Dual** %11 to [1 x i32]*
  store [1 x i32] %0, [1 x i32]* %12, align 4
  %13 = getelementptr inbounds %"class.__gnu_cxx::__normal_iterator.5", %"class.__gnu_cxx::__normal_iterator.5"* %6, i32 0, i32 0
  %14 = bitcast %class.Dual** %13 to [1 x i32]*
  store [1 x i32] %1, [1 x i32]* %14, align 4
  call void @llvm.dbg.declare(metadata %"class.__gnu_cxx::__normal_iterator.5"* %5, metadata !3416, metadata !2003), !dbg !3417
  call void @llvm.dbg.declare(metadata %"class.__gnu_cxx::__normal_iterator.5"* %6, metadata !3418, metadata !2003), !dbg !3419
  store %class.Dual* %2, %class.Dual** %7, align 4
  call void @llvm.dbg.declare(metadata %class.Dual** %7, metadata !3420, metadata !2003), !dbg !3421
  store %"class.std::allocator"* %3, %"class.std::allocator"** %8, align 4
  call void @llvm.dbg.declare(metadata %"class.std::allocator"** %8, metadata !3422, metadata !2003), !dbg !3423
  %15 = bitcast %"class.__gnu_cxx::__normal_iterator.5"* %9 to i8*, !dbg !3424
  %16 = bitcast %"class.__gnu_cxx::__normal_iterator.5"* %5 to i8*, !dbg !3424
  call void @llvm.memcpy.p0i8.p0i8.i32(i8* %15, i8* %16, i32 4, i32 4, i1 false), !dbg !3424
  %17 = bitcast %"class.__gnu_cxx::__normal_iterator.5"* %10 to i8*, !dbg !3425
  %18 = bitcast %"class.__gnu_cxx::__normal_iterator.5"* %6 to i8*, !dbg !3425
  call void @llvm.memcpy.p0i8.p0i8.i32(i8* %17, i8* %18, i32 4, i32 4, i1 false), !dbg !3426
  %19 = load %class.Dual*, %class.Dual** %7, align 4, !dbg !3428
  %20 = getelementptr inbounds %"class.__gnu_cxx::__normal_iterator.5", %"class.__gnu_cxx::__normal_iterator.5"* %9, i32 0, i32 0, !dbg !3429
  %21 = bitcast %class.Dual** %20 to [1 x i32]*, !dbg !3429
  %22 = load [1 x i32], [1 x i32]* %21, align 4, !dbg !3429
  %23 = getelementptr inbounds %"class.__gnu_cxx::__normal_iterator.5", %"class.__gnu_cxx::__normal_iterator.5"* %10, i32 0, i32 0, !dbg !3429
  %24 = bitcast %class.Dual** %23 to [1 x i32]*, !dbg !3429
  %25 = load [1 x i32], [1 x i32]* %24, align 4, !dbg !3429
  %26 = call %class.Dual* @_ZSt18uninitialized_copyIN9__gnu_cxx17__normal_iteratorIPK4DualSt6vectorIS2_SaIS2_EEEEPS2_ET0_T_SB_SA_([1 x i32] %22, [1 x i32] %25, %class.Dual* %19), !dbg !3430
  ret %class.Dual* %26, !dbg !3432
}

; Function Attrs: nounwind
define linkonce_odr i32 @_ZNKSt6vectorI4DualSaIS0_EE5beginEv(%"class.std::vector"*) #5 comdat align 2 !dbg !3433 !xidane.fname !2032 !xidane.function_declaration_type !3434 !xidane.function_declaration_filename !2034 {
  %2 = alloca %"class.__gnu_cxx::__normal_iterator.5", align 4
  %3 = alloca %"class.std::vector"*, align 4
  %4 = alloca %class.Dual*, align 4
  store %"class.std::vector"* %0, %"class.std::vector"** %3, align 4
  call void @llvm.dbg.declare(metadata %"class.std::vector"** %3, metadata !3435, metadata !2003), !dbg !3436
  %5 = load %"class.std::vector"*, %"class.std::vector"** %3, align 4
  %6 = bitcast %"class.std::vector"* %5 to %"struct.std::_Vector_base"*, !dbg !3437
  %7 = getelementptr inbounds %"struct.std::_Vector_base", %"struct.std::_Vector_base"* %6, i32 0, i32 0, !dbg !3437
  %8 = getelementptr inbounds %"struct.std::_Vector_base<Dual, std::allocator<Dual> >::_Vector_impl", %"struct.std::_Vector_base<Dual, std::allocator<Dual> >::_Vector_impl"* %7, i32 0, i32 0, !dbg !3438
  %9 = load %class.Dual*, %class.Dual** %8, align 4, !dbg !3438
  store %class.Dual* %9, %class.Dual** %4, align 4, !dbg !3439
  %10 = call %"class.__gnu_cxx::__normal_iterator.5"* @_ZN9__gnu_cxx17__normal_iteratorIPK4DualSt6vectorIS1_SaIS1_EEEC2ERKS3_(%"class.__gnu_cxx::__normal_iterator.5"* %2, %class.Dual** dereferenceable(4) %4) #3, !dbg !3440
  %11 = getelementptr inbounds %"class.__gnu_cxx::__normal_iterator.5", %"class.__gnu_cxx::__normal_iterator.5"* %2, i32 0, i32 0, !dbg !3441
  %12 = load %class.Dual*, %class.Dual** %11, align 4, !dbg !3441
  %13 = ptrtoint %class.Dual* %12 to i32, !dbg !3441
  ret i32 %13, !dbg !3441
}

; Function Attrs: nounwind
define linkonce_odr i32 @_ZNKSt6vectorI4DualSaIS0_EE3endEv(%"class.std::vector"*) #5 comdat align 2 !dbg !3442 !xidane.fname !2042 !xidane.function_declaration_type !3434 !xidane.function_declaration_filename !2034 {
  %2 = alloca %"class.__gnu_cxx::__normal_iterator.5", align 4
  %3 = alloca %"class.std::vector"*, align 4
  %4 = alloca %class.Dual*, align 4
  store %"class.std::vector"* %0, %"class.std::vector"** %3, align 4
  call void @llvm.dbg.declare(metadata %"class.std::vector"** %3, metadata !3443, metadata !2003), !dbg !3444
  %5 = load %"class.std::vector"*, %"class.std::vector"** %3, align 4
  %6 = bitcast %"class.std::vector"* %5 to %"struct.std::_Vector_base"*, !dbg !3445
  %7 = getelementptr inbounds %"struct.std::_Vector_base", %"struct.std::_Vector_base"* %6, i32 0, i32 0, !dbg !3445
  %8 = getelementptr inbounds %"struct.std::_Vector_base<Dual, std::allocator<Dual> >::_Vector_impl", %"struct.std::_Vector_base<Dual, std::allocator<Dual> >::_Vector_impl"* %7, i32 0, i32 1, !dbg !3446
  %9 = load %class.Dual*, %class.Dual** %8, align 4, !dbg !3446
  store %class.Dual* %9, %class.Dual** %4, align 4, !dbg !3447
  %10 = call %"class.__gnu_cxx::__normal_iterator.5"* @_ZN9__gnu_cxx17__normal_iteratorIPK4DualSt6vectorIS1_SaIS1_EEEC2ERKS3_(%"class.__gnu_cxx::__normal_iterator.5"* %2, %class.Dual** dereferenceable(4) %4) #3, !dbg !3448
  %11 = getelementptr inbounds %"class.__gnu_cxx::__normal_iterator.5", %"class.__gnu_cxx::__normal_iterator.5"* %2, i32 0, i32 0, !dbg !3449
  %12 = load %class.Dual*, %class.Dual** %11, align 4, !dbg !3449
  %13 = ptrtoint %class.Dual* %12 to i32, !dbg !3449
  ret i32 %13, !dbg !3449
}

; Function Attrs: nounwind
define linkonce_odr void @_ZNSt16allocator_traitsISaI4DualEE37select_on_container_copy_constructionERKS1_(%"class.std::allocator"* noalias sret, %"class.std::allocator"* dereferenceable(1)) #5 comdat align 2 !dbg !3450 !xidane.fname !3451 !xidane.function_declaration_type !3452 !xidane.function_declaration_filename !2788 {
  %3 = alloca %"class.std::allocator"*, align 4
  store %"class.std::allocator"* %1, %"class.std::allocator"** %3, align 4
  call void @llvm.dbg.declare(metadata %"class.std::allocator"** %3, metadata !3453, metadata !2003), !dbg !3454
  %4 = load %"class.std::allocator"*, %"class.std::allocator"** %3, align 4, !dbg !3455
  %5 = call %"class.std::allocator"* @_ZNSaI4DualEC2ERKS0_(%"class.std::allocator"* %0, %"class.std::allocator"* dereferenceable(1) %4) #3, !dbg !3455
  ret void, !dbg !3456
}

; Function Attrs: nounwind
define linkonce_odr %"class.std::allocator"* @_ZNSaI4DualEC2ERKS0_(%"class.std::allocator"* returned, %"class.std::allocator"* dereferenceable(1)) unnamed_addr #5 comdat align 2 !dbg !3457 !xidane.fname !2167 !xidane.function_declaration_type !3458 !xidane.function_declaration_filename !2168 {
  %3 = alloca %"class.std::allocator"*, align 4
  %4 = alloca %"class.std::allocator"*, align 4
  store %"class.std::allocator"* %0, %"class.std::allocator"** %3, align 4
  call void @llvm.dbg.declare(metadata %"class.std::allocator"** %3, metadata !3459, metadata !2003), !dbg !3460
  store %"class.std::allocator"* %1, %"class.std::allocator"** %4, align 4
  call void @llvm.dbg.declare(metadata %"class.std::allocator"** %4, metadata !3461, metadata !2003), !dbg !3462
  %5 = load %"class.std::allocator"*, %"class.std::allocator"** %3, align 4
  %6 = bitcast %"class.std::allocator"* %5 to %"class.__gnu_cxx::new_allocator"*, !dbg !3463
  %7 = load %"class.std::allocator"*, %"class.std::allocator"** %4, align 4, !dbg !3464
  %8 = bitcast %"class.std::allocator"* %7 to %"class.__gnu_cxx::new_allocator"*, !dbg !3464
  %9 = call %"class.__gnu_cxx::new_allocator"* @_ZN9__gnu_cxx13new_allocatorI4DualEC2ERKS2_(%"class.__gnu_cxx::new_allocator"* %6, %"class.__gnu_cxx::new_allocator"* dereferenceable(1) %8) #3, !dbg !3465
  ret %"class.std::allocator"* %5, !dbg !3466
}

; Function Attrs: inlinehint
define linkonce_odr %class.Dual* @_ZSt18uninitialized_copyIN9__gnu_cxx17__normal_iteratorIPK4DualSt6vectorIS2_SaIS2_EEEEPS2_ET0_T_SB_SA_([1 x i32], [1 x i32], %class.Dual*) #10 comdat !dbg !3467 !xidane.fname !3471 !xidane.function_declaration_type !3472 !xidane.function_declaration_filename !2835 {
  %4 = alloca %"class.__gnu_cxx::__normal_iterator.5", align 4
  %5 = alloca %"class.__gnu_cxx::__normal_iterator.5", align 4
  %6 = alloca %class.Dual*, align 4
  %7 = alloca i8, align 1
  %8 = alloca %"class.__gnu_cxx::__normal_iterator.5", align 4
  %9 = alloca %"class.__gnu_cxx::__normal_iterator.5", align 4
  %10 = getelementptr inbounds %"class.__gnu_cxx::__normal_iterator.5", %"class.__gnu_cxx::__normal_iterator.5"* %4, i32 0, i32 0
  %11 = bitcast %class.Dual** %10 to [1 x i32]*
  store [1 x i32] %0, [1 x i32]* %11, align 4
  %12 = getelementptr inbounds %"class.__gnu_cxx::__normal_iterator.5", %"class.__gnu_cxx::__normal_iterator.5"* %5, i32 0, i32 0
  %13 = bitcast %class.Dual** %12 to [1 x i32]*
  store [1 x i32] %1, [1 x i32]* %13, align 4
  call void @llvm.dbg.declare(metadata %"class.__gnu_cxx::__normal_iterator.5"* %4, metadata !3473, metadata !2003), !dbg !3474
  call void @llvm.dbg.declare(metadata %"class.__gnu_cxx::__normal_iterator.5"* %5, metadata !3475, metadata !2003), !dbg !3476
  store %class.Dual* %2, %class.Dual** %6, align 4
  call void @llvm.dbg.declare(metadata %class.Dual** %6, metadata !3477, metadata !2003), !dbg !3478
  call void @llvm.dbg.declare(metadata i8* %7, metadata !3479, metadata !2003), !dbg !3480
  store i8 1, i8* %7, align 1, !dbg !3480
  %14 = bitcast %"class.__gnu_cxx::__normal_iterator.5"* %8 to i8*, !dbg !3481
  %15 = bitcast %"class.__gnu_cxx::__normal_iterator.5"* %4 to i8*, !dbg !3481
  call void @llvm.memcpy.p0i8.p0i8.i32(i8* %14, i8* %15, i32 4, i32 4, i1 false), !dbg !3481
  %16 = bitcast %"class.__gnu_cxx::__normal_iterator.5"* %9 to i8*, !dbg !3482
  %17 = bitcast %"class.__gnu_cxx::__normal_iterator.5"* %5 to i8*, !dbg !3482
  call void @llvm.memcpy.p0i8.p0i8.i32(i8* %16, i8* %17, i32 4, i32 4, i1 false), !dbg !3483
  %18 = load %class.Dual*, %class.Dual** %6, align 4, !dbg !3485
  %19 = getelementptr inbounds %"class.__gnu_cxx::__normal_iterator.5", %"class.__gnu_cxx::__normal_iterator.5"* %8, i32 0, i32 0, !dbg !3486
  %20 = bitcast %class.Dual** %19 to [1 x i32]*, !dbg !3486
  %21 = load [1 x i32], [1 x i32]* %20, align 4, !dbg !3486
  %22 = getelementptr inbounds %"class.__gnu_cxx::__normal_iterator.5", %"class.__gnu_cxx::__normal_iterator.5"* %9, i32 0, i32 0, !dbg !3486
  %23 = bitcast %class.Dual** %22 to [1 x i32]*, !dbg !3486
  %24 = load [1 x i32], [1 x i32]* %23, align 4, !dbg !3486
  %25 = call %class.Dual* @_ZNSt20__uninitialized_copyILb0EE13__uninit_copyIN9__gnu_cxx17__normal_iteratorIPK4DualSt6vectorIS4_SaIS4_EEEEPS4_EET0_T_SD_SC_([1 x i32] %21, [1 x i32] %24, %class.Dual* %18), !dbg !3486
  ret %class.Dual* %25, !dbg !3487
}

define linkonce_odr %class.Dual* @_ZNSt20__uninitialized_copyILb0EE13__uninit_copyIN9__gnu_cxx17__normal_iteratorIPK4DualSt6vectorIS4_SaIS4_EEEEPS4_EET0_T_SD_SC_([1 x i32], [1 x i32], %class.Dual*) #0 comdat align 2 personality i8* bitcast (i32 (...)* @__gxx_personality_v0 to i8*) !dbg !3488 !xidane.fname !3493 !xidane.function_declaration_type !3472 !xidane.function_declaration_filename !2835 {
  %4 = alloca %"class.__gnu_cxx::__normal_iterator.5", align 4
  %5 = alloca %"class.__gnu_cxx::__normal_iterator.5", align 4
  %6 = alloca %class.Dual*, align 4
  %7 = alloca %class.Dual*, align 4
  %8 = alloca i8*
  %9 = alloca i32
  %10 = getelementptr inbounds %"class.__gnu_cxx::__normal_iterator.5", %"class.__gnu_cxx::__normal_iterator.5"* %4, i32 0, i32 0
  %11 = bitcast %class.Dual** %10 to [1 x i32]*
  store [1 x i32] %0, [1 x i32]* %11, align 4
  %12 = getelementptr inbounds %"class.__gnu_cxx::__normal_iterator.5", %"class.__gnu_cxx::__normal_iterator.5"* %5, i32 0, i32 0
  %13 = bitcast %class.Dual** %12 to [1 x i32]*
  store [1 x i32] %1, [1 x i32]* %13, align 4
  call void @llvm.dbg.declare(metadata %"class.__gnu_cxx::__normal_iterator.5"* %4, metadata !3494, metadata !2003), !dbg !3495
  call void @llvm.dbg.declare(metadata %"class.__gnu_cxx::__normal_iterator.5"* %5, metadata !3496, metadata !2003), !dbg !3497
  store %class.Dual* %2, %class.Dual** %6, align 4
  call void @llvm.dbg.declare(metadata %class.Dual** %6, metadata !3498, metadata !2003), !dbg !3499
  call void @llvm.dbg.declare(metadata %class.Dual** %7, metadata !3500, metadata !2003), !dbg !3501
  %14 = load %class.Dual*, %class.Dual** %6, align 4, !dbg !3502
  store %class.Dual* %14, %class.Dual** %7, align 4, !dbg !3501
  br label %15, !dbg !3503

; <label>:15:                                     ; preds = %22, %3
  %16 = call zeroext i1 @_ZN9__gnu_cxxneIPK4DualSt6vectorIS1_SaIS1_EEEEbRKNS_17__normal_iteratorIT_T0_EESC_(%"class.__gnu_cxx::__normal_iterator.5"* dereferenceable(4) %4, %"class.__gnu_cxx::__normal_iterator.5"* dereferenceable(4) %5) #3, !dbg !3505
  br i1 %16, label %17, label %36, !dbg !3509

; <label>:17:                                     ; preds = %15
  %18 = load %class.Dual*, %class.Dual** %7, align 4, !dbg !3510
  %19 = call %class.Dual* @_ZSt11__addressofI4DualEPT_RS1_(%class.Dual* dereferenceable(16) %18) #3, !dbg !3511
  %20 = call dereferenceable(16) %class.Dual* @_ZNK9__gnu_cxx17__normal_iteratorIPK4DualSt6vectorIS1_SaIS1_EEEdeEv(%"class.__gnu_cxx::__normal_iterator.5"* %4) #3, !dbg !3512
  invoke void @_ZSt10_ConstructI4DualJRKS0_EEvPT_DpOT0_(%class.Dual* %19, %class.Dual* dereferenceable(16) %20)
          to label %21 unwind label %26, !dbg !3514

; <label>:21:                                     ; preds = %17
  br label %22, !dbg !3515

; <label>:22:                                     ; preds = %21
  %23 = call dereferenceable(4) %"class.__gnu_cxx::__normal_iterator.5"* @_ZN9__gnu_cxx17__normal_iteratorIPK4DualSt6vectorIS1_SaIS1_EEEppEv(%"class.__gnu_cxx::__normal_iterator.5"* %4) #3, !dbg !3516
  %24 = load %class.Dual*, %class.Dual** %7, align 4, !dbg !3517
  %25 = getelementptr inbounds %class.Dual, %class.Dual* %24, i32 1, !dbg !3517
  store %class.Dual* %25, %class.Dual** %7, align 4, !dbg !3517
  br label %15, !dbg !3518, !llvm.loop !3519

; <label>:26:                                     ; preds = %17
  %27 = landingpad { i8*, i32 }
          catch i8* null, !dbg !3520
  %28 = extractvalue { i8*, i32 } %27, 0, !dbg !3520
  store i8* %28, i8** %8, align 4, !dbg !3520
  %29 = extractvalue { i8*, i32 } %27, 1, !dbg !3520
  store i32 %29, i32* %9, align 4, !dbg !3520
  br label %30, !dbg !3520

; <label>:30:                                     ; preds = %26
  %31 = load i8*, i8** %8, align 4, !dbg !3521
  %32 = call i8* @__cxa_begin_catch(i8* %31) #3, !dbg !3521
  %33 = load %class.Dual*, %class.Dual** %6, align 4, !dbg !3522
  %34 = load %class.Dual*, %class.Dual** %7, align 4, !dbg !3524
  invoke void @_ZSt8_DestroyIP4DualEvT_S2_(%class.Dual* %33, %class.Dual* %34)
          to label %35 unwind label %38, !dbg !3525

; <label>:35:                                     ; preds = %30
  invoke void @__cxa_rethrow() #14
          to label %52 unwind label %38, !dbg !3526

; <label>:36:                                     ; preds = %15
  %37 = load %class.Dual*, %class.Dual** %7, align 4, !dbg !3527
  ret %class.Dual* %37, !dbg !3528

; <label>:38:                                     ; preds = %35, %30
  %39 = landingpad { i8*, i32 }
          cleanup, !dbg !3529
  %40 = extractvalue { i8*, i32 } %39, 0, !dbg !3529
  store i8* %40, i8** %8, align 4, !dbg !3529
  %41 = extractvalue { i8*, i32 } %39, 1, !dbg !3529
  store i32 %41, i32* %9, align 4, !dbg !3529
  invoke void @__cxa_end_catch()
          to label %42 unwind label %49, !dbg !3531

; <label>:42:                                     ; preds = %38
  br label %44, !dbg !3532
                                                  ; No predecessors!
  call void @llvm.trap(), !dbg !3533
  unreachable, !dbg !3533

; <label>:44:                                     ; preds = %42
  %45 = load i8*, i8** %8, align 4, !dbg !3535
  %46 = load i32, i32* %9, align 4, !dbg !3535
  %47 = insertvalue { i8*, i32 } undef, i8* %45, 0, !dbg !3535
  %48 = insertvalue { i8*, i32 } %47, i32 %46, 1, !dbg !3535
  resume { i8*, i32 } %48, !dbg !3535

; <label>:49:                                     ; preds = %38
  %50 = landingpad { i8*, i32 }
          catch i8* null, !dbg !3537
  %51 = extractvalue { i8*, i32 } %50, 0, !dbg !3537
  call void @__clang_call_terminate(i8* %51) #12, !dbg !3537
  unreachable, !dbg !3537

; <label>:52:                                     ; preds = %35
  unreachable
}

; Function Attrs: inlinehint nounwind
define linkonce_odr zeroext i1 @_ZN9__gnu_cxxneIPK4DualSt6vectorIS1_SaIS1_EEEEbRKNS_17__normal_iteratorIT_T0_EESC_(%"class.__gnu_cxx::__normal_iterator.5"* dereferenceable(4), %"class.__gnu_cxx::__normal_iterator.5"* dereferenceable(4)) #6 comdat !dbg !3539 !xidane.fname !2053 !xidane.function_declaration_type !3543 !xidane.function_declaration_filename !2055 {
  %3 = alloca %"class.__gnu_cxx::__normal_iterator.5"*, align 4
  %4 = alloca %"class.__gnu_cxx::__normal_iterator.5"*, align 4
  store %"class.__gnu_cxx::__normal_iterator.5"* %0, %"class.__gnu_cxx::__normal_iterator.5"** %3, align 4
  call void @llvm.dbg.declare(metadata %"class.__gnu_cxx::__normal_iterator.5"** %3, metadata !3544, metadata !2003), !dbg !3545
  store %"class.__gnu_cxx::__normal_iterator.5"* %1, %"class.__gnu_cxx::__normal_iterator.5"** %4, align 4
  call void @llvm.dbg.declare(metadata %"class.__gnu_cxx::__normal_iterator.5"** %4, metadata !3546, metadata !2003), !dbg !3547
  %5 = load %"class.__gnu_cxx::__normal_iterator.5"*, %"class.__gnu_cxx::__normal_iterator.5"** %3, align 4, !dbg !3548
  %6 = call dereferenceable(4) %class.Dual** @_ZNK9__gnu_cxx17__normal_iteratorIPK4DualSt6vectorIS1_SaIS1_EEE4baseEv(%"class.__gnu_cxx::__normal_iterator.5"* %5) #3, !dbg !3549
  %7 = load %class.Dual*, %class.Dual** %6, align 4, !dbg !3549
  %8 = load %"class.__gnu_cxx::__normal_iterator.5"*, %"class.__gnu_cxx::__normal_iterator.5"** %4, align 4, !dbg !3550
  %9 = call dereferenceable(4) %class.Dual** @_ZNK9__gnu_cxx17__normal_iteratorIPK4DualSt6vectorIS1_SaIS1_EEE4baseEv(%"class.__gnu_cxx::__normal_iterator.5"* %8) #3, !dbg !3551
  %10 = load %class.Dual*, %class.Dual** %9, align 4, !dbg !3553
  %11 = icmp ne %class.Dual* %7, %10, !dbg !3554
  ret i1 %11, !dbg !3555
}

; Function Attrs: inlinehint nounwind
define linkonce_odr void @_ZSt10_ConstructI4DualJRKS0_EEvPT_DpOT0_(%class.Dual*, %class.Dual* dereferenceable(16)) #6 comdat !dbg !3556 !xidane.fname !2926 !xidane.function_declaration_type !3563 !xidane.function_declaration_filename !2928 {
  %3 = alloca %class.Dual*, align 4
  %4 = alloca %class.Dual*, align 4
  store %class.Dual* %0, %class.Dual** %3, align 4
  call void @llvm.dbg.declare(metadata %class.Dual** %3, metadata !3564, metadata !2003), !dbg !3565
  store %class.Dual* %1, %class.Dual** %4, align 4
  call void @llvm.dbg.declare(metadata %class.Dual** %4, metadata !3566, metadata !2003), !dbg !3567
  %5 = load %class.Dual*, %class.Dual** %3, align 4, !dbg !3568
  %6 = bitcast %class.Dual* %5 to i8*, !dbg !3568
  %7 = bitcast i8* %6 to %class.Dual*, !dbg !3569
  %8 = load %class.Dual*, %class.Dual** %4, align 4, !dbg !3570
  %9 = call dereferenceable(16) %class.Dual* @_ZSt7forwardIRK4DualEOT_RNSt16remove_referenceIS3_E4typeE(%class.Dual* dereferenceable(16) %8) #3, !dbg !3571
  %10 = bitcast %class.Dual* %7 to i8*, !dbg !3572
  %11 = bitcast %class.Dual* %9 to i8*, !dbg !3572
  call void @llvm.memcpy.p0i8.p0i8.i32(i8* %10, i8* %11, i32 16, i32 8, i1 false), !dbg !3573
  ret void, !dbg !3575
}

; Function Attrs: nounwind
define linkonce_odr dereferenceable(16) %class.Dual* @_ZNK9__gnu_cxx17__normal_iteratorIPK4DualSt6vectorIS1_SaIS1_EEEdeEv(%"class.__gnu_cxx::__normal_iterator.5"*) #5 comdat align 2 !dbg !3576 !xidane.fname !2069 !xidane.function_declaration_type !2070 !xidane.function_declaration_filename !2055 {
  %2 = alloca %"class.__gnu_cxx::__normal_iterator.5"*, align 4
  store %"class.__gnu_cxx::__normal_iterator.5"* %0, %"class.__gnu_cxx::__normal_iterator.5"** %2, align 4
  call void @llvm.dbg.declare(metadata %"class.__gnu_cxx::__normal_iterator.5"** %2, metadata !3577, metadata !2003), !dbg !3579
  %3 = load %"class.__gnu_cxx::__normal_iterator.5"*, %"class.__gnu_cxx::__normal_iterator.5"** %2, align 4
  %4 = getelementptr inbounds %"class.__gnu_cxx::__normal_iterator.5", %"class.__gnu_cxx::__normal_iterator.5"* %3, i32 0, i32 0, !dbg !3580
  %5 = load %class.Dual*, %class.Dual** %4, align 4, !dbg !3580
  ret %class.Dual* %5, !dbg !3581
}

; Function Attrs: nounwind
define linkonce_odr dereferenceable(4) %"class.__gnu_cxx::__normal_iterator.5"* @_ZN9__gnu_cxx17__normal_iteratorIPK4DualSt6vectorIS1_SaIS1_EEEppEv(%"class.__gnu_cxx::__normal_iterator.5"*) #5 comdat align 2 !dbg !3582 !xidane.fname !2080 !xidane.function_declaration_type !3583 !xidane.function_declaration_filename !2055 {
  %2 = alloca %"class.__gnu_cxx::__normal_iterator.5"*, align 4
  store %"class.__gnu_cxx::__normal_iterator.5"* %0, %"class.__gnu_cxx::__normal_iterator.5"** %2, align 4
  call void @llvm.dbg.declare(metadata %"class.__gnu_cxx::__normal_iterator.5"** %2, metadata !3584, metadata !2003), !dbg !3586
  %3 = load %"class.__gnu_cxx::__normal_iterator.5"*, %"class.__gnu_cxx::__normal_iterator.5"** %2, align 4
  %4 = getelementptr inbounds %"class.__gnu_cxx::__normal_iterator.5", %"class.__gnu_cxx::__normal_iterator.5"* %3, i32 0, i32 0, !dbg !3587
  %5 = load %class.Dual*, %class.Dual** %4, align 4, !dbg !3588
  %6 = getelementptr inbounds %class.Dual, %class.Dual* %5, i32 1, !dbg !3588
  store %class.Dual* %6, %class.Dual** %4, align 4, !dbg !3588
  ret %"class.__gnu_cxx::__normal_iterator.5"* %3, !dbg !3589
}

; Function Attrs: nounwind
define linkonce_odr dereferenceable(4) %class.Dual** @_ZNK9__gnu_cxx17__normal_iteratorIPK4DualSt6vectorIS1_SaIS1_EEE4baseEv(%"class.__gnu_cxx::__normal_iterator.5"*) #5 comdat align 2 !dbg !3590 !xidane.fname !2637 !xidane.function_declaration_type !3591 !xidane.function_declaration_filename !2055 {
  %2 = alloca %"class.__gnu_cxx::__normal_iterator.5"*, align 4
  store %"class.__gnu_cxx::__normal_iterator.5"* %0, %"class.__gnu_cxx::__normal_iterator.5"** %2, align 4
  call void @llvm.dbg.declare(metadata %"class.__gnu_cxx::__normal_iterator.5"** %2, metadata !3592, metadata !2003), !dbg !3593
  %3 = load %"class.__gnu_cxx::__normal_iterator.5"*, %"class.__gnu_cxx::__normal_iterator.5"** %2, align 4
  %4 = getelementptr inbounds %"class.__gnu_cxx::__normal_iterator.5", %"class.__gnu_cxx::__normal_iterator.5"* %3, i32 0, i32 0, !dbg !3594
  ret %class.Dual** %4, !dbg !3595
}

; Function Attrs: nounwind
define linkonce_odr dereferenceable(16) %class.Dual* @_ZSt7forwardIRK4DualEOT_RNSt16remove_referenceIS3_E4typeE(%class.Dual* dereferenceable(16)) #5 comdat !dbg !3596 !xidane.fname !3349 !xidane.function_declaration_type !3604 !xidane.function_declaration_filename !2941 {
  %2 = alloca %class.Dual*, align 4
  store %class.Dual* %0, %class.Dual** %2, align 4
  call void @llvm.dbg.declare(metadata %class.Dual** %2, metadata !3605, metadata !2003), !dbg !3606
  %3 = load %class.Dual*, %class.Dual** %2, align 4, !dbg !3607
  ret %class.Dual* %3, !dbg !3608
}

; Function Attrs: nounwind
define linkonce_odr %"class.__gnu_cxx::__normal_iterator.5"* @_ZN9__gnu_cxx17__normal_iteratorIPK4DualSt6vectorIS1_SaIS1_EEEC2ERKS3_(%"class.__gnu_cxx::__normal_iterator.5"* returned, %class.Dual** dereferenceable(4)) unnamed_addr #5 comdat align 2 !dbg !3609 !xidane.fname !2627 !xidane.function_declaration_type !3610 !xidane.function_declaration_filename !2055 {
  %3 = alloca %"class.__gnu_cxx::__normal_iterator.5"*, align 4
  %4 = alloca %class.Dual**, align 4
  store %"class.__gnu_cxx::__normal_iterator.5"* %0, %"class.__gnu_cxx::__normal_iterator.5"** %3, align 4
  call void @llvm.dbg.declare(metadata %"class.__gnu_cxx::__normal_iterator.5"** %3, metadata !3611, metadata !2003), !dbg !3612
  store %class.Dual** %1, %class.Dual*** %4, align 4
  call void @llvm.dbg.declare(metadata %class.Dual*** %4, metadata !3613, metadata !2003), !dbg !3614
  %5 = load %"class.__gnu_cxx::__normal_iterator.5"*, %"class.__gnu_cxx::__normal_iterator.5"** %3, align 4
  %6 = getelementptr inbounds %"class.__gnu_cxx::__normal_iterator.5", %"class.__gnu_cxx::__normal_iterator.5"* %5, i32 0, i32 0, !dbg !3615
  %7 = load %class.Dual**, %class.Dual*** %4, align 4, !dbg !3616
  %8 = load %class.Dual*, %class.Dual** %7, align 4, !dbg !3616
  store %class.Dual* %8, %class.Dual** %6, align 4, !dbg !3615
  ret %"class.__gnu_cxx::__normal_iterator.5"* %5, !dbg !3617
}

define linkonce_odr void @_ZNSt12_Destroy_auxILb0EE9__destroyIPSt6vectorI4DualSaIS3_EEEEvT_S7_(%"class.std::vector"*, %"class.std::vector"*) #0 comdat align 2 !dbg !3618 !xidane.fname !2965 !xidane.function_declaration_type !3332 !xidane.function_declaration_filename !2928 {
  %3 = alloca %"class.std::vector"*, align 4
  %4 = alloca %"class.std::vector"*, align 4
  store %"class.std::vector"* %0, %"class.std::vector"** %3, align 4
  call void @llvm.dbg.declare(metadata %"class.std::vector"** %3, metadata !3623, metadata !2003), !dbg !3624
  store %"class.std::vector"* %1, %"class.std::vector"** %4, align 4
  call void @llvm.dbg.declare(metadata %"class.std::vector"** %4, metadata !3625, metadata !2003), !dbg !3626
  br label %5, !dbg !3627

; <label>:5:                                      ; preds = %12, %2
  %6 = load %"class.std::vector"*, %"class.std::vector"** %3, align 4, !dbg !3628
  %7 = load %"class.std::vector"*, %"class.std::vector"** %4, align 4, !dbg !3632
  %8 = icmp ne %"class.std::vector"* %6, %7, !dbg !3633
  br i1 %8, label %9, label %15, !dbg !3634

; <label>:9:                                      ; preds = %5
  %10 = load %"class.std::vector"*, %"class.std::vector"** %3, align 4, !dbg !3635
  %11 = call %"class.std::vector"* @_ZSt11__addressofISt6vectorI4DualSaIS1_EEEPT_RS4_(%"class.std::vector"* dereferenceable(12) %10) #3, !dbg !3636
  call void @_ZSt8_DestroyISt6vectorI4DualSaIS1_EEEvPT_(%"class.std::vector"* %11), !dbg !3637
  br label %12, !dbg !3638

; <label>:12:                                     ; preds = %9
  %13 = load %"class.std::vector"*, %"class.std::vector"** %3, align 4, !dbg !3639
  %14 = getelementptr inbounds %"class.std::vector", %"class.std::vector"* %13, i32 1, !dbg !3639
  store %"class.std::vector"* %14, %"class.std::vector"** %3, align 4, !dbg !3639
  br label %5, !dbg !3641, !llvm.loop !3642

; <label>:15:                                     ; preds = %5
  ret void, !dbg !3643
}

; Function Attrs: inlinehint nounwind
define linkonce_odr void @_ZSt8_DestroyISt6vectorI4DualSaIS1_EEEvPT_(%"class.std::vector"*) #6 comdat !dbg !3644 !xidane.fname !2950 !xidane.function_declaration_type !3647 !xidane.function_declaration_filename !2928 {
  %2 = alloca %"class.std::vector"*, align 4
  store %"class.std::vector"* %0, %"class.std::vector"** %2, align 4
  call void @llvm.dbg.declare(metadata %"class.std::vector"** %2, metadata !3648, metadata !2003), !dbg !3649
  %3 = load %"class.std::vector"*, %"class.std::vector"** %2, align 4, !dbg !3650
  %4 = call %"class.std::vector"* @_ZNSt6vectorI4DualSaIS0_EED2Ev(%"class.std::vector"* %3) #3, !dbg !3651
  ret void, !dbg !3652
}

define linkonce_odr void @_ZNSt12_Vector_baseISt6vectorI4DualSaIS1_EESaIS3_EE13_M_deallocateEPS3_j(%"struct.std::_Vector_base.1"*, %"class.std::vector"*, i32) #0 comdat align 2 !dbg !3653 !xidane.fname !2972 !xidane.function_declaration_type !2973 !xidane.function_declaration_filename !2034 {
  %4 = alloca %"struct.std::_Vector_base.1"*, align 4
  %5 = alloca %"class.std::vector"*, align 4
  %6 = alloca i32, align 4
  store %"struct.std::_Vector_base.1"* %0, %"struct.std::_Vector_base.1"** %4, align 4
  call void @llvm.dbg.declare(metadata %"struct.std::_Vector_base.1"** %4, metadata !3654, metadata !2003), !dbg !3655
  store %"class.std::vector"* %1, %"class.std::vector"** %5, align 4
  call void @llvm.dbg.declare(metadata %"class.std::vector"** %5, metadata !3656, metadata !2003), !dbg !3657
  store i32 %2, i32* %6, align 4
  call void @llvm.dbg.declare(metadata i32* %6, metadata !3658, metadata !2003), !dbg !3659
  %7 = load %"struct.std::_Vector_base.1"*, %"struct.std::_Vector_base.1"** %4, align 4
  %8 = load %"class.std::vector"*, %"class.std::vector"** %5, align 4, !dbg !3660
  %9 = icmp ne %"class.std::vector"* %8, null, !dbg !3660
  br i1 %9, label %10, label %15, !dbg !3662

; <label>:10:                                     ; preds = %3
  %11 = getelementptr inbounds %"struct.std::_Vector_base.1", %"struct.std::_Vector_base.1"* %7, i32 0, i32 0, !dbg !3663
  %12 = bitcast %"struct.std::_Vector_base<std::vector<Dual, std::allocator<Dual> >, std::allocator<std::vector<Dual, std::allocator<Dual> > > >::_Vector_impl"* %11 to %"class.std::allocator.2"*, !dbg !3663
  %13 = load %"class.std::vector"*, %"class.std::vector"** %5, align 4, !dbg !3664
  %14 = load i32, i32* %6, align 4, !dbg !3665
  call void @_ZNSt16allocator_traitsISaISt6vectorI4DualSaIS1_EEEE10deallocateERS4_PS3_j(%"class.std::allocator.2"* dereferenceable(1) %12, %"class.std::vector"* %13, i32 %14), !dbg !3666
  br label %15, !dbg !3666

; <label>:15:                                     ; preds = %10, %3
  ret void, !dbg !3667
}

define linkonce_odr void @_ZNSt16allocator_traitsISaISt6vectorI4DualSaIS1_EEEE10deallocateERS4_PS3_j(%"class.std::allocator.2"* dereferenceable(1), %"class.std::vector"*, i32) #0 comdat align 2 !dbg !3668 !xidane.fname !2989 !xidane.function_declaration_type !2990 !xidane.function_declaration_filename !2788 {
  %4 = alloca %"class.std::allocator.2"*, align 4
  %5 = alloca %"class.std::vector"*, align 4
  %6 = alloca i32, align 4
  store %"class.std::allocator.2"* %0, %"class.std::allocator.2"** %4, align 4
  call void @llvm.dbg.declare(metadata %"class.std::allocator.2"** %4, metadata !3669, metadata !2003), !dbg !3670
  store %"class.std::vector"* %1, %"class.std::vector"** %5, align 4
  call void @llvm.dbg.declare(metadata %"class.std::vector"** %5, metadata !3671, metadata !2003), !dbg !3672
  store i32 %2, i32* %6, align 4
  call void @llvm.dbg.declare(metadata i32* %6, metadata !3673, metadata !2003), !dbg !3674
  %7 = load %"class.std::allocator.2"*, %"class.std::allocator.2"** %4, align 4, !dbg !3675
  %8 = bitcast %"class.std::allocator.2"* %7 to %"class.__gnu_cxx::new_allocator.3"*, !dbg !3675
  %9 = load %"class.std::vector"*, %"class.std::vector"** %5, align 4, !dbg !3676
  %10 = load i32, i32* %6, align 4, !dbg !3677
  call void @_ZN9__gnu_cxx13new_allocatorISt6vectorI4DualSaIS2_EEE10deallocateEPS4_j(%"class.__gnu_cxx::new_allocator.3"* %8, %"class.std::vector"* %9, i32 %10), !dbg !3678
  ret void, !dbg !3679
}

; Function Attrs: nounwind
define linkonce_odr void @_ZN9__gnu_cxx13new_allocatorISt6vectorI4DualSaIS2_EEE10deallocateEPS4_j(%"class.__gnu_cxx::new_allocator.3"*, %"class.std::vector"*, i32) #5 comdat align 2 !dbg !3680 !xidane.fname !2989 !xidane.function_declaration_type !3003 !xidane.function_declaration_filename !2645 {
  %4 = alloca %"class.__gnu_cxx::new_allocator.3"*, align 4
  %5 = alloca %"class.std::vector"*, align 4
  %6 = alloca i32, align 4
  store %"class.__gnu_cxx::new_allocator.3"* %0, %"class.__gnu_cxx::new_allocator.3"** %4, align 4
  call void @llvm.dbg.declare(metadata %"class.__gnu_cxx::new_allocator.3"** %4, metadata !3681, metadata !2003), !dbg !3682
  store %"class.std::vector"* %1, %"class.std::vector"** %5, align 4
  call void @llvm.dbg.declare(metadata %"class.std::vector"** %5, metadata !3683, metadata !2003), !dbg !3684
  store i32 %2, i32* %6, align 4
  call void @llvm.dbg.declare(metadata i32* %6, metadata !3685, metadata !2003), !dbg !3686
  %7 = load %"class.__gnu_cxx::new_allocator.3"*, %"class.__gnu_cxx::new_allocator.3"** %4, align 4
  %8 = load %"class.std::vector"*, %"class.std::vector"** %5, align 4, !dbg !3687
  %9 = bitcast %"class.std::vector"* %8 to i8*, !dbg !3687
  call void @_ZdlPv(i8* %9) #3, !dbg !3688
  ret void, !dbg !3689
}

; Function Attrs: inlinehint
define linkonce_odr void @_ZSt8_DestroyIPSt6vectorI4DualSaIS1_EES3_EvT_S5_RSaIT0_E(%"class.std::vector"*, %"class.std::vector"*, %"class.std::allocator.2"* dereferenceable(1)) #10 comdat !dbg !3690 !xidane.fname !2950 !xidane.function_declaration_type !3694 !xidane.function_declaration_filename !2928 {
  %4 = alloca %"class.std::vector"*, align 4
  %5 = alloca %"class.std::vector"*, align 4
  %6 = alloca %"class.std::allocator.2"*, align 4
  store %"class.std::vector"* %0, %"class.std::vector"** %4, align 4
  call void @llvm.dbg.declare(metadata %"class.std::vector"** %4, metadata !3695, metadata !2003), !dbg !3696
  store %"class.std::vector"* %1, %"class.std::vector"** %5, align 4
  call void @llvm.dbg.declare(metadata %"class.std::vector"** %5, metadata !3697, metadata !2003), !dbg !3698
  store %"class.std::allocator.2"* %2, %"class.std::allocator.2"** %6, align 4
  call void @llvm.dbg.declare(metadata %"class.std::allocator.2"** %6, metadata !3699, metadata !2003), !dbg !3700
  %7 = load %"class.std::vector"*, %"class.std::vector"** %4, align 4, !dbg !3701
  %8 = load %"class.std::vector"*, %"class.std::vector"** %5, align 4, !dbg !3702
  call void @_ZSt8_DestroyIPSt6vectorI4DualSaIS1_EEEvT_S5_(%"class.std::vector"* %7, %"class.std::vector"* %8), !dbg !3703
  ret void, !dbg !3704
}

define internal void @_GLOBAL__sub_I_gradient.cpp() #0 !dbg !3705 {
  call void @__cxx_global_var_init(), !dbg !3707
  ret void
}

attributes #0 = { "disable-tail-calls"="false" "less-precise-fpmad"="false" "no-frame-pointer-elim"="true" "no-frame-pointer-elim-non-leaf" "no-infs-fp-math"="false" "no-jump-tables"="false" "no-nans-fp-math"="false" "no-signed-zeros-fp-math"="false" "stack-protector-buffer-size"="8" "target-cpu"="cortex-a9" "target-features"="+dsp,+strict-align,+vfp3,-crypto,-d16,-fp-armv8,-fp-only-sp,-fp16,-neon,-vfp4" "unsafe-fp-math"="false" "use-soft-float"="false" }
attributes #1 = { "disable-tail-calls"="false" "less-precise-fpmad"="false" "no-frame-pointer-elim"="true" "no-frame-pointer-elim-non-leaf" "no-infs-fp-math"="false" "no-nans-fp-math"="false" "no-signed-zeros-fp-math"="false" "stack-protector-buffer-size"="8" "target-cpu"="cortex-a9" "target-features"="+dsp,+strict-align,+vfp3,-crypto,-d16,-fp-armv8,-fp-only-sp,-fp16,-neon,-vfp4" "unsafe-fp-math"="false" "use-soft-float"="false" }
attributes #2 = { nounwind "disable-tail-calls"="false" "less-precise-fpmad"="false" "no-frame-pointer-elim"="true" "no-frame-pointer-elim-non-leaf" "no-infs-fp-math"="false" "no-nans-fp-math"="false" "no-signed-zeros-fp-math"="false" "stack-protector-buffer-size"="8" "target-cpu"="cortex-a9" "target-features"="+dsp,+strict-align,+vfp3,-crypto,-d16,-fp-armv8,-fp-only-sp,-fp16,-neon,-vfp4" "unsafe-fp-math"="false" "use-soft-float"="false" }
attributes #3 = { nounwind }
attributes #4 = { nounwind readnone }
attributes #5 = { nounwind "disable-tail-calls"="false" "less-precise-fpmad"="false" "no-frame-pointer-elim"="true" "no-frame-pointer-elim-non-leaf" "no-infs-fp-math"="false" "no-jump-tables"="false" "no-nans-fp-math"="false" "no-signed-zeros-fp-math"="false" "stack-protector-buffer-size"="8" "target-cpu"="cortex-a9" "target-features"="+dsp,+strict-align,+vfp3,-crypto,-d16,-fp-armv8,-fp-only-sp,-fp16,-neon,-vfp4" "unsafe-fp-math"="false" "use-soft-float"="false" }
attributes #6 = { inlinehint nounwind "disable-tail-calls"="false" "less-precise-fpmad"="false" "no-frame-pointer-elim"="true" "no-frame-pointer-elim-non-leaf" "no-infs-fp-math"="false" "no-jump-tables"="false" "no-nans-fp-math"="false" "no-signed-zeros-fp-math"="false" "stack-protector-buffer-size"="8" "target-cpu"="cortex-a9" "target-features"="+dsp,+strict-align,+vfp3,-crypto,-d16,-fp-armv8,-fp-only-sp,-fp16,-neon,-vfp4" "unsafe-fp-math"="false" "use-soft-float"="false" }
attributes #7 = { argmemonly nounwind }
attributes #8 = { noreturn "disable-tail-calls"="false" "less-precise-fpmad"="false" "no-frame-pointer-elim"="true" "no-frame-pointer-elim-non-leaf" "no-infs-fp-math"="false" "no-nans-fp-math"="false" "no-signed-zeros-fp-math"="false" "stack-protector-buffer-size"="8" "target-cpu"="cortex-a9" "target-features"="+dsp,+strict-align,+vfp3,-crypto,-d16,-fp-armv8,-fp-only-sp,-fp16,-neon,-vfp4" "unsafe-fp-math"="false" "use-soft-float"="false" }
attributes #9 = { nobuiltin "disable-tail-calls"="false" "less-precise-fpmad"="false" "no-frame-pointer-elim"="true" "no-frame-pointer-elim-non-leaf" "no-infs-fp-math"="false" "no-nans-fp-math"="false" "no-signed-zeros-fp-math"="false" "stack-protector-buffer-size"="8" "target-cpu"="cortex-a9" "target-features"="+dsp,+strict-align,+vfp3,-crypto,-d16,-fp-armv8,-fp-only-sp,-fp16,-neon,-vfp4" "unsafe-fp-math"="false" "use-soft-float"="false" }
attributes #10 = { inlinehint "disable-tail-calls"="false" "less-precise-fpmad"="false" "no-frame-pointer-elim"="true" "no-frame-pointer-elim-non-leaf" "no-infs-fp-math"="false" "no-jump-tables"="false" "no-nans-fp-math"="false" "no-signed-zeros-fp-math"="false" "stack-protector-buffer-size"="8" "target-cpu"="cortex-a9" "target-features"="+dsp,+strict-align,+vfp3,-crypto,-d16,-fp-armv8,-fp-only-sp,-fp16,-neon,-vfp4" "unsafe-fp-math"="false" "use-soft-float"="false" }
attributes #11 = { noinline noreturn nounwind }
attributes #12 = { noreturn nounwind }
attributes #13 = { nobuiltin nounwind "disable-tail-calls"="false" "less-precise-fpmad"="false" "no-frame-pointer-elim"="true" "no-frame-pointer-elim-non-leaf" "no-infs-fp-math"="false" "no-nans-fp-math"="false" "no-signed-zeros-fp-math"="false" "stack-protector-buffer-size"="8" "target-cpu"="cortex-a9" "target-features"="+dsp,+strict-align,+vfp3,-crypto,-d16,-fp-armv8,-fp-only-sp,-fp16,-neon,-vfp4" "unsafe-fp-math"="false" "use-soft-float"="false" }
attributes #14 = { noreturn }

!llvm.dbg.cu = !{!0}
!llvm.module.flags = !{!1981, !1982, !1983, !1984}
!llvm.ident = !{!1985}

!0 = distinct !DICompileUnit(language: DW_LANG_C_plus_plus, file: !1, producer: "clang version 3.9.0 (tags/RELEASE_390/final)", isOptimized: false, runtimeVersion: 0, emissionKind: FullDebug, enums: !2, retainedTypes: !3, globals: !739, imports: !755)
!1 = !DIFile(filename: "../src/gradient.cpp", directory: "/home/bqpd/workspace_sdsoc/MiniZedMM/Debug")
!2 = !{}
!3 = !{!4, !291, !244, !107, !35, !105, !566, !567, !568, !569, !353, !570, !538}
!4 = !DIDerivedType(tag: DW_TAG_typedef, name: "Vector", scope: !6, file: !5, line: 9, baseType: !8)
!5 = !DIFile(filename: "../src/gradient.h", directory: "/home/bqpd/workspace_sdsoc/MiniZedMM/Debug")
!6 = !DINamespace(scope: !7, file: !5, line: 8)
!7 = !DINamespace(name: "dual", scope: null, file: !5, line: 7)
!8 = distinct !DICompositeType(tag: DW_TAG_class_type, name: "vector<Dual, std::allocator<Dual> >", scope: !10, file: !9, line: 216, size: 96, align: 32, elements: !12, templateParams: !230, identifier: "_ZTSSt6vectorI4DualSaIS0_EE")
!9 = !DIFile(filename: "/tools/Xilinx/SDK/2018.3/gnu/aarch32/lin/gcc-arm-none-eabi/arm-none-eabi/include/c++/7.3.1/bits/stl_vector.h", directory: "/home/bqpd/workspace_sdsoc/MiniZedMM/Debug")
!10 = !DINamespace(name: "std", scope: null, file: !11, line: 229)
!11 = !DIFile(filename: "/tools/Xilinx/SDK/2018.3/gnu/aarch32/lin/gcc-arm-none-eabi/arm-none-eabi/include/c++/7.3.1/arm-none-eabi/bits/c++config.h", directory: "/home/bqpd/workspace_sdsoc/MiniZedMM/Debug")
!12 = !{!13, !231, !235, !241, !245, !251, !256, !260, !263, !266, !271, !272, !276, !279, !282, !285, !288, !350, !408, !409, !410, !415, !420, !421, !422, !423, !424, !425, !426, !429, !430, !433, !434, !435, !436, !439, !440, !448, !455, !458, !459, !460, !463, !466, !467, !468, !471, !474, !477, !481, !482, !485, !488, !491, !494, !497, !500, !503, !504, !505, !506, !507, !510, !511, !514, !515, !516, !523, !527, !530, !533, !551}
!13 = !DIDerivedType(tag: DW_TAG_inheritance, scope: !8, baseType: !14, flags: DIFlagProtected)
!14 = distinct !DICompositeType(tag: DW_TAG_structure_type, name: "_Vector_base<Dual, std::allocator<Dual> >", scope: !10, file: !9, line: 74, size: 96, align: 32, elements: !15, templateParams: !230, identifier: "_ZTSSt12_Vector_baseI4DualSaIS0_EE")
!15 = !{!16, !184, !189, !194, !198, !201, !206, !209, !212, !215, !219, !222, !223, !226, !229}
!16 = !DIDerivedType(tag: DW_TAG_member, name: "_M_impl", scope: !14, file: !9, line: 166, baseType: !17, size: 96, align: 32)
!17 = distinct !DICompositeType(tag: DW_TAG_structure_type, name: "_Vector_impl", scope: !14, file: !9, line: 81, size: 96, align: 32, elements: !18, identifier: "_ZTSNSt12_Vector_baseI4DualSaIS0_EE12_Vector_implE")
!18 = !{!19, !162, !165, !166, !167, !171, !176, !180}
!19 = !DIDerivedType(tag: DW_TAG_inheritance, scope: !17, baseType: !20)
!20 = !DIDerivedType(tag: DW_TAG_typedef, name: "_Tp_alloc_type", scope: !14, file: !9, line: 77, baseType: !21)
!21 = !DIDerivedType(tag: DW_TAG_typedef, name: "other", scope: !23, file: !22, line: 117, baseType: !161)
!22 = !DIFile(filename: "/tools/Xilinx/SDK/2018.3/gnu/aarch32/lin/gcc-arm-none-eabi/arm-none-eabi/include/c++/7.3.1/ext/alloc_traits.h", directory: "/home/bqpd/workspace_sdsoc/MiniZedMM/Debug")
!23 = distinct !DICompositeType(tag: DW_TAG_structure_type, name: "rebind<Dual>", scope: !24, file: !22, line: 116, size: 8, align: 8, elements: !2, templateParams: !115, identifier: "_ZTSN9__gnu_cxx14__alloc_traitsISaI4DualEE6rebindIS1_EE")
!24 = distinct !DICompositeType(tag: DW_TAG_structure_type, name: "__alloc_traits<std::allocator<Dual> >", scope: !25, file: !22, line: 50, size: 8, align: 8, elements: !26, templateParams: !144, identifier: "_ZTSN9__gnu_cxx14__alloc_traitsISaI4DualEEE")
!25 = !DINamespace(name: "__gnu_cxx", scope: null, file: !11, line: 255)
!26 = !{!27, !146, !149, !153, !157, !158, !159, !160}
!27 = !DIDerivedType(tag: DW_TAG_inheritance, scope: !24, baseType: !28)
!28 = distinct !DICompositeType(tag: DW_TAG_structure_type, name: "allocator_traits<std::allocator<Dual> >", scope: !10, file: !29, line: 384, size: 8, align: 8, elements: !30, templateParams: !144, identifier: "_ZTSSt16allocator_traitsISaI4DualEE")
!29 = !DIFile(filename: "/tools/Xilinx/SDK/2018.3/gnu/aarch32/lin/gcc-arm-none-eabi/arm-none-eabi/include/c++/7.3.1/bits/alloc_traits.h", directory: "/home/bqpd/workspace_sdsoc/MiniZedMM/Debug")
!30 = !{!31, !128, !132, !135, !141}
!31 = !DISubprogram(name: "allocate", linkageName: "_ZNSt16allocator_traitsISaI4DualEE8allocateERS1_j", scope: !28, file: !29, line: 435, type: !32, isLocal: false, isDefinition: false, scopeLine: 435, flags: DIFlagPrototyped, isOptimized: false)
!32 = !DISubroutineType(types: !33)
!33 = !{!34, !67, !127}
!34 = !DIDerivedType(tag: DW_TAG_typedef, name: "pointer", scope: !28, file: !29, line: 392, baseType: !35)
!35 = !DIDerivedType(tag: DW_TAG_pointer_type, baseType: !36, size: 32, align: 32)
!36 = distinct !DICompositeType(tag: DW_TAG_class_type, name: "Dual", file: !37, line: 7, size: 128, align: 64, elements: !38, identifier: "_ZTS4Dual")
!37 = !DIFile(filename: "../src/dual.h", directory: "/home/bqpd/workspace_sdsoc/MiniZedMM/Debug")
!38 = !{!39, !41, !42, !46, !49, !52, !53, !54, !59, !60, !64, !65, !66}
!39 = !DIDerivedType(tag: DW_TAG_member, name: "val", scope: !36, file: !37, line: 9, baseType: !40, size: 64, align: 64)
!40 = !DIBasicType(name: "double", size: 64, align: 64, encoding: DW_ATE_float)
!41 = !DIDerivedType(tag: DW_TAG_member, name: "der", scope: !36, file: !37, line: 10, baseType: !40, size: 64, align: 64, offset: 64)
!42 = !DISubprogram(name: "Dual", scope: !36, file: !37, line: 13, type: !43, isLocal: false, isDefinition: false, scopeLine: 13, flags: DIFlagPublic | DIFlagPrototyped, isOptimized: false)
!43 = !DISubroutineType(types: !44)
!44 = !{null, !45}
!45 = !DIDerivedType(tag: DW_TAG_pointer_type, baseType: !36, size: 32, align: 32, flags: DIFlagArtificial | DIFlagObjectPointer)
!46 = !DISubprogram(name: "Dual", scope: !36, file: !37, line: 14, type: !47, isLocal: false, isDefinition: false, scopeLine: 14, flags: DIFlagPublic | DIFlagPrototyped, isOptimized: false)
!47 = !DISubroutineType(types: !48)
!48 = !{null, !45, !40}
!49 = !DISubprogram(name: "Dual", scope: !36, file: !37, line: 15, type: !50, isLocal: false, isDefinition: false, scopeLine: 15, flags: DIFlagPublic | DIFlagPrototyped, isOptimized: false)
!50 = !DISubroutineType(types: !51)
!51 = !{null, !45, !40, !40}
!52 = !DISubprogram(name: "setValue", linkageName: "_ZN4Dual8setValueEd", scope: !36, file: !37, line: 17, type: !47, isLocal: false, isDefinition: false, scopeLine: 17, flags: DIFlagPublic | DIFlagPrototyped, isOptimized: false)
!53 = !DISubprogram(name: "setDerivative", linkageName: "_ZN4Dual13setDerivativeEd", scope: !36, file: !37, line: 18, type: !47, isLocal: false, isDefinition: false, scopeLine: 18, flags: DIFlagPublic | DIFlagPrototyped, isOptimized: false)
!54 = !DISubprogram(name: "getValue", linkageName: "_ZNK4Dual8getValueEv", scope: !36, file: !37, line: 20, type: !55, isLocal: false, isDefinition: false, scopeLine: 20, flags: DIFlagPublic | DIFlagPrototyped, isOptimized: false)
!55 = !DISubroutineType(types: !56)
!56 = !{!40, !57}
!57 = !DIDerivedType(tag: DW_TAG_pointer_type, baseType: !58, size: 32, align: 32, flags: DIFlagArtificial | DIFlagObjectPointer)
!58 = !DIDerivedType(tag: DW_TAG_const_type, baseType: !36)
!59 = !DISubprogram(name: "getDerivative", linkageName: "_ZNK4Dual13getDerivativeEv", scope: !36, file: !37, line: 21, type: !55, isLocal: false, isDefinition: false, scopeLine: 21, flags: DIFlagPublic | DIFlagPrototyped, isOptimized: false)
!60 = !DISubprogram(name: "operator+=", linkageName: "_ZN4DualpLERKS_", scope: !36, file: !37, line: 29, type: !61, isLocal: false, isDefinition: false, scopeLine: 29, flags: DIFlagPublic | DIFlagPrototyped, isOptimized: false)
!61 = !DISubroutineType(types: !62)
!62 = !{!36, !45, !63}
!63 = !DIDerivedType(tag: DW_TAG_reference_type, baseType: !58, size: 32, align: 32)
!64 = !DISubprogram(name: "operator-=", linkageName: "_ZN4DualmIERKS_", scope: !36, file: !37, line: 30, type: !61, isLocal: false, isDefinition: false, scopeLine: 30, flags: DIFlagPublic | DIFlagPrototyped, isOptimized: false)
!65 = !DISubprogram(name: "operator*=", linkageName: "_ZN4DualmLERKS_", scope: !36, file: !37, line: 31, type: !61, isLocal: false, isDefinition: false, scopeLine: 31, flags: DIFlagPublic | DIFlagPrototyped, isOptimized: false)
!66 = !DISubprogram(name: "operator/=", linkageName: "_ZN4DualdVERKS_", scope: !36, file: !37, line: 32, type: !61, isLocal: false, isDefinition: false, scopeLine: 32, flags: DIFlagPublic | DIFlagPrototyped, isOptimized: false)
!67 = !DIDerivedType(tag: DW_TAG_reference_type, baseType: !68, size: 32, align: 32)
!68 = !DIDerivedType(tag: DW_TAG_typedef, name: "allocator_type", scope: !28, file: !29, line: 387, baseType: !69)
!69 = distinct !DICompositeType(tag: DW_TAG_class_type, name: "allocator<Dual>", scope: !10, file: !70, line: 108, size: 8, align: 8, elements: !71, templateParams: !115, identifier: "_ZTSSaI4DualE")
!70 = !DIFile(filename: "/tools/Xilinx/SDK/2018.3/gnu/aarch32/lin/gcc-arm-none-eabi/arm-none-eabi/include/c++/7.3.1/bits/allocator.h", directory: "/home/bqpd/workspace_sdsoc/MiniZedMM/Debug")
!71 = !{!72, !117, !121, !126}
!72 = !DIDerivedType(tag: DW_TAG_inheritance, scope: !69, baseType: !73, flags: DIFlagPublic)
!73 = !DIDerivedType(tag: DW_TAG_typedef, name: "__allocator_base<Dual>", scope: !10, file: !74, line: 48, baseType: !75)
!74 = !DIFile(filename: "/tools/Xilinx/SDK/2018.3/gnu/aarch32/lin/gcc-arm-none-eabi/arm-none-eabi/include/c++/7.3.1/arm-none-eabi/bits/c++allocator.h", directory: "/home/bqpd/workspace_sdsoc/MiniZedMM/Debug")
!75 = distinct !DICompositeType(tag: DW_TAG_class_type, name: "new_allocator<Dual>", scope: !25, file: !76, line: 58, size: 8, align: 8, elements: !77, templateParams: !115, identifier: "_ZTSN9__gnu_cxx13new_allocatorI4DualEE")
!76 = !DIFile(filename: "/tools/Xilinx/SDK/2018.3/gnu/aarch32/lin/gcc-arm-none-eabi/arm-none-eabi/include/c++/7.3.1/ext/new_allocator.h", directory: "/home/bqpd/workspace_sdsoc/MiniZedMM/Debug")
!77 = !{!78, !82, !87, !88, !95, !101, !109, !112}
!78 = !DISubprogram(name: "new_allocator", scope: !75, file: !76, line: 79, type: !79, isLocal: false, isDefinition: false, scopeLine: 79, flags: DIFlagPublic | DIFlagPrototyped, isOptimized: false)
!79 = !DISubroutineType(types: !80)
!80 = !{null, !81}
!81 = !DIDerivedType(tag: DW_TAG_pointer_type, baseType: !75, size: 32, align: 32, flags: DIFlagArtificial | DIFlagObjectPointer)
!82 = !DISubprogram(name: "new_allocator", scope: !75, file: !76, line: 81, type: !83, isLocal: false, isDefinition: false, scopeLine: 81, flags: DIFlagPublic | DIFlagPrototyped, isOptimized: false)
!83 = !DISubroutineType(types: !84)
!84 = !{null, !81, !85}
!85 = !DIDerivedType(tag: DW_TAG_reference_type, baseType: !86, size: 32, align: 32)
!86 = !DIDerivedType(tag: DW_TAG_const_type, baseType: !75)
!87 = !DISubprogram(name: "~new_allocator", scope: !75, file: !76, line: 86, type: !79, isLocal: false, isDefinition: false, scopeLine: 86, flags: DIFlagPublic | DIFlagPrototyped, isOptimized: false)
!88 = !DISubprogram(name: "address", linkageName: "_ZNK9__gnu_cxx13new_allocatorI4DualE7addressERS1_", scope: !75, file: !76, line: 89, type: !89, isLocal: false, isDefinition: false, scopeLine: 89, flags: DIFlagPublic | DIFlagPrototyped, isOptimized: false)
!89 = !DISubroutineType(types: !90)
!90 = !{!91, !92, !93}
!91 = !DIDerivedType(tag: DW_TAG_typedef, name: "pointer", scope: !75, file: !76, line: 63, baseType: !35)
!92 = !DIDerivedType(tag: DW_TAG_pointer_type, baseType: !86, size: 32, align: 32, flags: DIFlagArtificial | DIFlagObjectPointer)
!93 = !DIDerivedType(tag: DW_TAG_typedef, name: "reference", scope: !75, file: !76, line: 65, baseType: !94)
!94 = !DIDerivedType(tag: DW_TAG_reference_type, baseType: !36, size: 32, align: 32)
!95 = !DISubprogram(name: "address", linkageName: "_ZNK9__gnu_cxx13new_allocatorI4DualE7addressERKS1_", scope: !75, file: !76, line: 93, type: !96, isLocal: false, isDefinition: false, scopeLine: 93, flags: DIFlagPublic | DIFlagPrototyped, isOptimized: false)
!96 = !DISubroutineType(types: !97)
!97 = !{!98, !92, !100}
!98 = !DIDerivedType(tag: DW_TAG_typedef, name: "const_pointer", scope: !75, file: !76, line: 64, baseType: !99)
!99 = !DIDerivedType(tag: DW_TAG_pointer_type, baseType: !58, size: 32, align: 32)
!100 = !DIDerivedType(tag: DW_TAG_typedef, name: "const_reference", scope: !75, file: !76, line: 66, baseType: !63)
!101 = !DISubprogram(name: "allocate", linkageName: "_ZN9__gnu_cxx13new_allocatorI4DualE8allocateEjPKv", scope: !75, file: !76, line: 99, type: !102, isLocal: false, isDefinition: false, scopeLine: 99, flags: DIFlagPublic | DIFlagPrototyped, isOptimized: false)
!102 = !DISubroutineType(types: !103)
!103 = !{!91, !81, !104, !107}
!104 = !DIDerivedType(tag: DW_TAG_typedef, name: "size_type", file: !76, line: 61, baseType: !105)
!105 = !DIDerivedType(tag: DW_TAG_typedef, name: "size_t", scope: !10, file: !11, line: 231, baseType: !106)
!106 = !DIBasicType(name: "unsigned int", size: 32, align: 32, encoding: DW_ATE_unsigned)
!107 = !DIDerivedType(tag: DW_TAG_pointer_type, baseType: !108, size: 32, align: 32)
!108 = !DIDerivedType(tag: DW_TAG_const_type, baseType: null)
!109 = !DISubprogram(name: "deallocate", linkageName: "_ZN9__gnu_cxx13new_allocatorI4DualE10deallocateEPS1_j", scope: !75, file: !76, line: 116, type: !110, isLocal: false, isDefinition: false, scopeLine: 116, flags: DIFlagPublic | DIFlagPrototyped, isOptimized: false)
!110 = !DISubroutineType(types: !111)
!111 = !{null, !81, !91, !104}
!112 = !DISubprogram(name: "max_size", linkageName: "_ZNK9__gnu_cxx13new_allocatorI4DualE8max_sizeEv", scope: !75, file: !76, line: 129, type: !113, isLocal: false, isDefinition: false, scopeLine: 129, flags: DIFlagPublic | DIFlagPrototyped, isOptimized: false)
!113 = !DISubroutineType(types: !114)
!114 = !{!104, !92}
!115 = !{!116}
!116 = !DITemplateTypeParameter(name: "_Tp", type: !36)
!117 = !DISubprogram(name: "allocator", scope: !69, file: !70, line: 131, type: !118, isLocal: false, isDefinition: false, scopeLine: 131, flags: DIFlagPublic | DIFlagPrototyped, isOptimized: false)
!118 = !DISubroutineType(types: !119)
!119 = !{null, !120}
!120 = !DIDerivedType(tag: DW_TAG_pointer_type, baseType: !69, size: 32, align: 32, flags: DIFlagArtificial | DIFlagObjectPointer)
!121 = !DISubprogram(name: "allocator", scope: !69, file: !70, line: 133, type: !122, isLocal: false, isDefinition: false, scopeLine: 133, flags: DIFlagPublic | DIFlagPrototyped, isOptimized: false)
!122 = !DISubroutineType(types: !123)
!123 = !{null, !120, !124}
!124 = !DIDerivedType(tag: DW_TAG_reference_type, baseType: !125, size: 32, align: 32)
!125 = !DIDerivedType(tag: DW_TAG_const_type, baseType: !69)
!126 = !DISubprogram(name: "~allocator", scope: !69, file: !70, line: 139, type: !118, isLocal: false, isDefinition: false, scopeLine: 139, flags: DIFlagPublic | DIFlagPrototyped, isOptimized: false)
!127 = !DIDerivedType(tag: DW_TAG_typedef, name: "size_type", file: !29, line: 407, baseType: !105)
!128 = !DISubprogram(name: "allocate", linkageName: "_ZNSt16allocator_traitsISaI4DualEE8allocateERS1_jPKv", scope: !28, file: !29, line: 449, type: !129, isLocal: false, isDefinition: false, scopeLine: 449, flags: DIFlagPrototyped, isOptimized: false)
!129 = !DISubroutineType(types: !130)
!130 = !{!34, !67, !127, !131}
!131 = !DIDerivedType(tag: DW_TAG_typedef, name: "const_void_pointer", file: !29, line: 401, baseType: !107)
!132 = !DISubprogram(name: "deallocate", linkageName: "_ZNSt16allocator_traitsISaI4DualEE10deallocateERS1_PS0_j", scope: !28, file: !29, line: 461, type: !133, isLocal: false, isDefinition: false, scopeLine: 461, flags: DIFlagPrototyped, isOptimized: false)
!133 = !DISubroutineType(types: !134)
!134 = !{null, !67, !34, !127}
!135 = !DISubprogram(name: "max_size", linkageName: "_ZNSt16allocator_traitsISaI4DualEE8max_sizeERKS1_", scope: !28, file: !29, line: 495, type: !136, isLocal: false, isDefinition: false, scopeLine: 495, flags: DIFlagPrototyped, isOptimized: false)
!136 = !DISubroutineType(types: !137)
!137 = !{!138, !139}
!138 = !DIDerivedType(tag: DW_TAG_typedef, name: "size_type", scope: !28, file: !29, line: 407, baseType: !105)
!139 = !DIDerivedType(tag: DW_TAG_reference_type, baseType: !140, size: 32, align: 32)
!140 = !DIDerivedType(tag: DW_TAG_const_type, baseType: !68)
!141 = !DISubprogram(name: "select_on_container_copy_construction", linkageName: "_ZNSt16allocator_traitsISaI4DualEE37select_on_container_copy_constructionERKS1_", scope: !28, file: !29, line: 504, type: !142, isLocal: false, isDefinition: false, scopeLine: 504, flags: DIFlagPrototyped, isOptimized: false)
!142 = !DISubroutineType(types: !143)
!143 = !{!68, !139}
!144 = !{!145}
!145 = !DITemplateTypeParameter(name: "_Alloc", type: !69)
!146 = !DISubprogram(name: "_S_select_on_copy", linkageName: "_ZN9__gnu_cxx14__alloc_traitsISaI4DualEE17_S_select_on_copyERKS2_", scope: !24, file: !22, line: 94, type: !147, isLocal: false, isDefinition: false, scopeLine: 94, flags: DIFlagPrototyped, isOptimized: false)
!147 = !DISubroutineType(types: !148)
!148 = !{!69, !124}
!149 = !DISubprogram(name: "_S_on_swap", linkageName: "_ZN9__gnu_cxx14__alloc_traitsISaI4DualEE10_S_on_swapERS2_S4_", scope: !24, file: !22, line: 97, type: !150, isLocal: false, isDefinition: false, scopeLine: 97, flags: DIFlagPrototyped, isOptimized: false)
!150 = !DISubroutineType(types: !151)
!151 = !{null, !152, !152}
!152 = !DIDerivedType(tag: DW_TAG_reference_type, baseType: !69, size: 32, align: 32)
!153 = !DISubprogram(name: "_S_propagate_on_copy_assign", linkageName: "_ZN9__gnu_cxx14__alloc_traitsISaI4DualEE27_S_propagate_on_copy_assignEv", scope: !24, file: !22, line: 100, type: !154, isLocal: false, isDefinition: false, scopeLine: 100, flags: DIFlagPrototyped, isOptimized: false)
!154 = !DISubroutineType(types: !155)
!155 = !{!156}
!156 = !DIBasicType(name: "bool", size: 8, align: 8, encoding: DW_ATE_boolean)
!157 = !DISubprogram(name: "_S_propagate_on_move_assign", linkageName: "_ZN9__gnu_cxx14__alloc_traitsISaI4DualEE27_S_propagate_on_move_assignEv", scope: !24, file: !22, line: 103, type: !154, isLocal: false, isDefinition: false, scopeLine: 103, flags: DIFlagPrototyped, isOptimized: false)
!158 = !DISubprogram(name: "_S_propagate_on_swap", linkageName: "_ZN9__gnu_cxx14__alloc_traitsISaI4DualEE20_S_propagate_on_swapEv", scope: !24, file: !22, line: 106, type: !154, isLocal: false, isDefinition: false, scopeLine: 106, flags: DIFlagPrototyped, isOptimized: false)
!159 = !DISubprogram(name: "_S_always_equal", linkageName: "_ZN9__gnu_cxx14__alloc_traitsISaI4DualEE15_S_always_equalEv", scope: !24, file: !22, line: 109, type: !154, isLocal: false, isDefinition: false, scopeLine: 109, flags: DIFlagPrototyped, isOptimized: false)
!160 = !DISubprogram(name: "_S_nothrow_move", linkageName: "_ZN9__gnu_cxx14__alloc_traitsISaI4DualEE15_S_nothrow_moveEv", scope: !24, file: !22, line: 112, type: !154, isLocal: false, isDefinition: false, scopeLine: 112, flags: DIFlagPrototyped, isOptimized: false)
!161 = !DIDerivedType(tag: DW_TAG_typedef, name: "rebind_alloc<Dual>", scope: !28, file: !29, line: 422, baseType: !69)
!162 = !DIDerivedType(tag: DW_TAG_member, name: "_M_start", scope: !17, file: !9, line: 84, baseType: !163, size: 32, align: 32)
!163 = !DIDerivedType(tag: DW_TAG_typedef, name: "pointer", scope: !14, file: !9, line: 79, baseType: !164)
!164 = !DIDerivedType(tag: DW_TAG_typedef, name: "pointer", scope: !24, file: !22, line: 59, baseType: !34)
!165 = !DIDerivedType(tag: DW_TAG_member, name: "_M_finish", scope: !17, file: !9, line: 85, baseType: !163, size: 32, align: 32, offset: 32)
!166 = !DIDerivedType(tag: DW_TAG_member, name: "_M_end_of_storage", scope: !17, file: !9, line: 86, baseType: !163, size: 32, align: 32, offset: 64)
!167 = !DISubprogram(name: "_Vector_impl", scope: !17, file: !9, line: 88, type: !168, isLocal: false, isDefinition: false, scopeLine: 88, flags: DIFlagPrototyped, isOptimized: false)
!168 = !DISubroutineType(types: !169)
!169 = !{null, !170}
!170 = !DIDerivedType(tag: DW_TAG_pointer_type, baseType: !17, size: 32, align: 32, flags: DIFlagArtificial | DIFlagObjectPointer)
!171 = !DISubprogram(name: "_Vector_impl", scope: !17, file: !9, line: 92, type: !172, isLocal: false, isDefinition: false, scopeLine: 92, flags: DIFlagPrototyped, isOptimized: false)
!172 = !DISubroutineType(types: !173)
!173 = !{null, !170, !174}
!174 = !DIDerivedType(tag: DW_TAG_reference_type, baseType: !175, size: 32, align: 32)
!175 = !DIDerivedType(tag: DW_TAG_const_type, baseType: !20)
!176 = !DISubprogram(name: "_Vector_impl", scope: !17, file: !9, line: 97, type: !177, isLocal: false, isDefinition: false, scopeLine: 97, flags: DIFlagPrototyped, isOptimized: false)
!177 = !DISubroutineType(types: !178)
!178 = !{null, !170, !179}
!179 = !DIDerivedType(tag: DW_TAG_rvalue_reference_type, baseType: !20, size: 32, align: 32)
!180 = !DISubprogram(name: "_M_swap_data", linkageName: "_ZNSt12_Vector_baseI4DualSaIS0_EE12_Vector_impl12_M_swap_dataERS3_", scope: !17, file: !9, line: 103, type: !181, isLocal: false, isDefinition: false, scopeLine: 103, flags: DIFlagPrototyped, isOptimized: false)
!181 = !DISubroutineType(types: !182)
!182 = !{null, !170, !183}
!183 = !DIDerivedType(tag: DW_TAG_reference_type, baseType: !17, size: 32, align: 32)
!184 = !DISubprogram(name: "_M_get_Tp_allocator", linkageName: "_ZNSt12_Vector_baseI4DualSaIS0_EE19_M_get_Tp_allocatorEv", scope: !14, file: !9, line: 115, type: !185, isLocal: false, isDefinition: false, scopeLine: 115, flags: DIFlagPrototyped, isOptimized: false)
!185 = !DISubroutineType(types: !186)
!186 = !{!187, !188}
!187 = !DIDerivedType(tag: DW_TAG_reference_type, baseType: !20, size: 32, align: 32)
!188 = !DIDerivedType(tag: DW_TAG_pointer_type, baseType: !14, size: 32, align: 32, flags: DIFlagArtificial | DIFlagObjectPointer)
!189 = !DISubprogram(name: "_M_get_Tp_allocator", linkageName: "_ZNKSt12_Vector_baseI4DualSaIS0_EE19_M_get_Tp_allocatorEv", scope: !14, file: !9, line: 119, type: !190, isLocal: false, isDefinition: false, scopeLine: 119, flags: DIFlagPrototyped, isOptimized: false)
!190 = !DISubroutineType(types: !191)
!191 = !{!174, !192}
!192 = !DIDerivedType(tag: DW_TAG_pointer_type, baseType: !193, size: 32, align: 32, flags: DIFlagArtificial | DIFlagObjectPointer)
!193 = !DIDerivedType(tag: DW_TAG_const_type, baseType: !14)
!194 = !DISubprogram(name: "get_allocator", linkageName: "_ZNKSt12_Vector_baseI4DualSaIS0_EE13get_allocatorEv", scope: !14, file: !9, line: 123, type: !195, isLocal: false, isDefinition: false, scopeLine: 123, flags: DIFlagPrototyped, isOptimized: false)
!195 = !DISubroutineType(types: !196)
!196 = !{!197, !192}
!197 = !DIDerivedType(tag: DW_TAG_typedef, name: "allocator_type", scope: !14, file: !9, line: 112, baseType: !69)
!198 = !DISubprogram(name: "_Vector_base", scope: !14, file: !9, line: 126, type: !199, isLocal: false, isDefinition: false, scopeLine: 126, flags: DIFlagPrototyped, isOptimized: false)
!199 = !DISubroutineType(types: !200)
!200 = !{null, !188}
!201 = !DISubprogram(name: "_Vector_base", scope: !14, file: !9, line: 129, type: !202, isLocal: false, isDefinition: false, scopeLine: 129, flags: DIFlagPrototyped, isOptimized: false)
!202 = !DISubroutineType(types: !203)
!203 = !{null, !188, !204}
!204 = !DIDerivedType(tag: DW_TAG_reference_type, baseType: !205, size: 32, align: 32)
!205 = !DIDerivedType(tag: DW_TAG_const_type, baseType: !197)
!206 = !DISubprogram(name: "_Vector_base", scope: !14, file: !9, line: 132, type: !207, isLocal: false, isDefinition: false, scopeLine: 132, flags: DIFlagPrototyped, isOptimized: false)
!207 = !DISubroutineType(types: !208)
!208 = !{null, !188, !105}
!209 = !DISubprogram(name: "_Vector_base", scope: !14, file: !9, line: 136, type: !210, isLocal: false, isDefinition: false, scopeLine: 136, flags: DIFlagPrototyped, isOptimized: false)
!210 = !DISubroutineType(types: !211)
!211 = !{null, !188, !105, !204}
!212 = !DISubprogram(name: "_Vector_base", scope: !14, file: !9, line: 141, type: !213, isLocal: false, isDefinition: false, scopeLine: 141, flags: DIFlagPrototyped, isOptimized: false)
!213 = !DISubroutineType(types: !214)
!214 = !{null, !188, !179}
!215 = !DISubprogram(name: "_Vector_base", scope: !14, file: !9, line: 144, type: !216, isLocal: false, isDefinition: false, scopeLine: 144, flags: DIFlagPrototyped, isOptimized: false)
!216 = !DISubroutineType(types: !217)
!217 = !{null, !188, !218}
!218 = !DIDerivedType(tag: DW_TAG_rvalue_reference_type, baseType: !14, size: 32, align: 32)
!219 = !DISubprogram(name: "_Vector_base", scope: !14, file: !9, line: 148, type: !220, isLocal: false, isDefinition: false, scopeLine: 148, flags: DIFlagPrototyped, isOptimized: false)
!220 = !DISubroutineType(types: !221)
!221 = !{null, !188, !218, !204}
!222 = !DISubprogram(name: "~_Vector_base", scope: !14, file: !9, line: 161, type: !199, isLocal: false, isDefinition: false, scopeLine: 161, flags: DIFlagPrototyped, isOptimized: false)
!223 = !DISubprogram(name: "_M_allocate", linkageName: "_ZNSt12_Vector_baseI4DualSaIS0_EE11_M_allocateEj", scope: !14, file: !9, line: 169, type: !224, isLocal: false, isDefinition: false, scopeLine: 169, flags: DIFlagPrototyped, isOptimized: false)
!224 = !DISubroutineType(types: !225)
!225 = !{!163, !188, !105}
!226 = !DISubprogram(name: "_M_deallocate", linkageName: "_ZNSt12_Vector_baseI4DualSaIS0_EE13_M_deallocateEPS0_j", scope: !14, file: !9, line: 176, type: !227, isLocal: false, isDefinition: false, scopeLine: 176, flags: DIFlagPrototyped, isOptimized: false)
!227 = !DISubroutineType(types: !228)
!228 = !{null, !188, !163, !105}
!229 = !DISubprogram(name: "_M_create_storage", linkageName: "_ZNSt12_Vector_baseI4DualSaIS0_EE17_M_create_storageEj", scope: !14, file: !9, line: 185, type: !207, isLocal: false, isDefinition: false, scopeLine: 185, flags: DIFlagPrivate | DIFlagPrototyped, isOptimized: false)
!230 = !{!116, !145}
!231 = !DISubprogram(name: "vector", scope: !8, file: !9, line: 259, type: !232, isLocal: false, isDefinition: false, scopeLine: 259, flags: DIFlagPublic | DIFlagPrototyped, isOptimized: false)
!232 = !DISubroutineType(types: !233)
!233 = !{null, !234}
!234 = !DIDerivedType(tag: DW_TAG_pointer_type, baseType: !8, size: 32, align: 32, flags: DIFlagArtificial | DIFlagObjectPointer)
!235 = !DISubprogram(name: "vector", scope: !8, file: !9, line: 270, type: !236, isLocal: false, isDefinition: false, scopeLine: 270, flags: DIFlagPublic | DIFlagExplicit | DIFlagPrototyped, isOptimized: false)
!236 = !DISubroutineType(types: !237)
!237 = !{null, !234, !238}
!238 = !DIDerivedType(tag: DW_TAG_reference_type, baseType: !239, size: 32, align: 32)
!239 = !DIDerivedType(tag: DW_TAG_const_type, baseType: !240)
!240 = !DIDerivedType(tag: DW_TAG_typedef, name: "allocator_type", scope: !8, file: !9, line: 244, baseType: !69)
!241 = !DISubprogram(name: "vector", scope: !8, file: !9, line: 283, type: !242, isLocal: false, isDefinition: false, scopeLine: 283, flags: DIFlagPublic | DIFlagExplicit | DIFlagPrototyped, isOptimized: false)
!242 = !DISubroutineType(types: !243)
!243 = !{null, !234, !244, !238}
!244 = !DIDerivedType(tag: DW_TAG_typedef, name: "size_type", file: !9, line: 242, baseType: !105)
!245 = !DISubprogram(name: "vector", scope: !8, file: !9, line: 295, type: !246, isLocal: false, isDefinition: false, scopeLine: 295, flags: DIFlagPublic | DIFlagPrototyped, isOptimized: false)
!246 = !DISubroutineType(types: !247)
!247 = !{null, !234, !244, !248, !238}
!248 = !DIDerivedType(tag: DW_TAG_reference_type, baseType: !249, size: 32, align: 32)
!249 = !DIDerivedType(tag: DW_TAG_const_type, baseType: !250)
!250 = !DIDerivedType(tag: DW_TAG_typedef, name: "value_type", scope: !8, file: !9, line: 232, baseType: !36)
!251 = !DISubprogram(name: "vector", scope: !8, file: !9, line: 326, type: !252, isLocal: false, isDefinition: false, scopeLine: 326, flags: DIFlagPublic | DIFlagPrototyped, isOptimized: false)
!252 = !DISubroutineType(types: !253)
!253 = !{null, !234, !254}
!254 = !DIDerivedType(tag: DW_TAG_reference_type, baseType: !255, size: 32, align: 32)
!255 = !DIDerivedType(tag: DW_TAG_const_type, baseType: !8)
!256 = !DISubprogram(name: "vector", scope: !8, file: !9, line: 344, type: !257, isLocal: false, isDefinition: false, scopeLine: 344, flags: DIFlagPublic | DIFlagPrototyped, isOptimized: false)
!257 = !DISubroutineType(types: !258)
!258 = !{null, !234, !259}
!259 = !DIDerivedType(tag: DW_TAG_rvalue_reference_type, baseType: !8, size: 32, align: 32)
!260 = !DISubprogram(name: "vector", scope: !8, file: !9, line: 348, type: !261, isLocal: false, isDefinition: false, scopeLine: 348, flags: DIFlagPublic | DIFlagPrototyped, isOptimized: false)
!261 = !DISubroutineType(types: !262)
!262 = !{null, !234, !254, !238}
!263 = !DISubprogram(name: "vector", scope: !8, file: !9, line: 358, type: !264, isLocal: false, isDefinition: false, scopeLine: 358, flags: DIFlagPublic | DIFlagPrototyped, isOptimized: false)
!264 = !DISubroutineType(types: !265)
!265 = !{null, !234, !259, !238}
!266 = !DISubprogram(name: "vector", scope: !8, file: !9, line: 383, type: !267, isLocal: false, isDefinition: false, scopeLine: 383, flags: DIFlagPublic | DIFlagPrototyped, isOptimized: false)
!267 = !DISubroutineType(types: !268)
!268 = !{null, !234, !269, !238}
!269 = !DICompositeType(tag: DW_TAG_class_type, name: "initializer_list<Dual>", scope: !10, file: !270, line: 47, flags: DIFlagFwdDecl, identifier: "_ZTSSt16initializer_listI4DualE")
!270 = !DIFile(filename: "/tools/Xilinx/SDK/2018.3/gnu/aarch32/lin/gcc-arm-none-eabi/arm-none-eabi/include/c++/7.3.1/initializer_list", directory: "/home/bqpd/workspace_sdsoc/MiniZedMM/Debug")
!271 = !DISubprogram(name: "~vector", scope: !8, file: !9, line: 433, type: !232, isLocal: false, isDefinition: false, scopeLine: 433, flags: DIFlagPublic | DIFlagPrototyped, isOptimized: false)
!272 = !DISubprogram(name: "operator=", linkageName: "_ZNSt6vectorI4DualSaIS0_EEaSERKS2_", scope: !8, file: !9, line: 447, type: !273, isLocal: false, isDefinition: false, scopeLine: 447, flags: DIFlagPublic | DIFlagPrototyped, isOptimized: false)
!273 = !DISubroutineType(types: !274)
!274 = !{!275, !234, !254}
!275 = !DIDerivedType(tag: DW_TAG_reference_type, baseType: !8, size: 32, align: 32)
!276 = !DISubprogram(name: "operator=", linkageName: "_ZNSt6vectorI4DualSaIS0_EEaSEOS2_", scope: !8, file: !9, line: 461, type: !277, isLocal: false, isDefinition: false, scopeLine: 461, flags: DIFlagPublic | DIFlagPrototyped, isOptimized: false)
!277 = !DISubroutineType(types: !278)
!278 = !{!275, !234, !259}
!279 = !DISubprogram(name: "operator=", linkageName: "_ZNSt6vectorI4DualSaIS0_EEaSESt16initializer_listIS0_E", scope: !8, file: !9, line: 482, type: !280, isLocal: false, isDefinition: false, scopeLine: 482, flags: DIFlagPublic | DIFlagPrototyped, isOptimized: false)
!280 = !DISubroutineType(types: !281)
!281 = !{!275, !234, !269}
!282 = !DISubprogram(name: "assign", linkageName: "_ZNSt6vectorI4DualSaIS0_EE6assignEjRKS0_", scope: !8, file: !9, line: 501, type: !283, isLocal: false, isDefinition: false, scopeLine: 501, flags: DIFlagPublic | DIFlagPrototyped, isOptimized: false)
!283 = !DISubroutineType(types: !284)
!284 = !{null, !234, !244, !248}
!285 = !DISubprogram(name: "assign", linkageName: "_ZNSt6vectorI4DualSaIS0_EE6assignESt16initializer_listIS0_E", scope: !8, file: !9, line: 546, type: !286, isLocal: false, isDefinition: false, scopeLine: 546, flags: DIFlagPublic | DIFlagPrototyped, isOptimized: false)
!286 = !DISubroutineType(types: !287)
!287 = !{null, !234, !269}
!288 = !DISubprogram(name: "begin", linkageName: "_ZNSt6vectorI4DualSaIS0_EE5beginEv", scope: !8, file: !9, line: 563, type: !289, isLocal: false, isDefinition: false, scopeLine: 563, flags: DIFlagPublic | DIFlagPrototyped, isOptimized: false)
!289 = !DISubroutineType(types: !290)
!290 = !{!291, !234}
!291 = !DIDerivedType(tag: DW_TAG_typedef, name: "iterator", scope: !8, file: !9, line: 237, baseType: !292)
!292 = distinct !DICompositeType(tag: DW_TAG_class_type, name: "__normal_iterator<Dual *, std::vector<Dual, std::allocator<Dual> > >", scope: !25, file: !293, line: 760, size: 32, align: 32, elements: !294, templateParams: !348, identifier: "_ZTSN9__gnu_cxx17__normal_iteratorIP4DualSt6vectorIS1_SaIS1_EEEE")
!293 = !DIFile(filename: "/tools/Xilinx/SDK/2018.3/gnu/aarch32/lin/gcc-arm-none-eabi/arm-none-eabi/include/c++/7.3.1/bits/stl_iterator.h", directory: "/home/bqpd/workspace_sdsoc/MiniZedMM/Debug")
!294 = !{!295, !296, !300, !305, !316, !321, !325, !329, !330, !331, !337, !340, !343, !344, !345}
!295 = !DIDerivedType(tag: DW_TAG_member, name: "_M_current", scope: !292, file: !293, line: 763, baseType: !35, size: 32, align: 32, flags: DIFlagProtected)
!296 = !DISubprogram(name: "__normal_iterator", scope: !292, file: !293, line: 775, type: !297, isLocal: false, isDefinition: false, scopeLine: 775, flags: DIFlagPublic | DIFlagPrototyped, isOptimized: false)
!297 = !DISubroutineType(types: !298)
!298 = !{null, !299}
!299 = !DIDerivedType(tag: DW_TAG_pointer_type, baseType: !292, size: 32, align: 32, flags: DIFlagArtificial | DIFlagObjectPointer)
!300 = !DISubprogram(name: "__normal_iterator", scope: !292, file: !293, line: 779, type: !301, isLocal: false, isDefinition: false, scopeLine: 779, flags: DIFlagPublic | DIFlagExplicit | DIFlagPrototyped, isOptimized: false)
!301 = !DISubroutineType(types: !302)
!302 = !{null, !299, !303}
!303 = !DIDerivedType(tag: DW_TAG_reference_type, baseType: !304, size: 32, align: 32)
!304 = !DIDerivedType(tag: DW_TAG_const_type, baseType: !35)
!305 = !DISubprogram(name: "operator*", linkageName: "_ZNK9__gnu_cxx17__normal_iteratorIP4DualSt6vectorIS1_SaIS1_EEEdeEv", scope: !292, file: !293, line: 792, type: !306, isLocal: false, isDefinition: false, scopeLine: 792, flags: DIFlagPublic | DIFlagPrototyped, isOptimized: false)
!306 = !DISubroutineType(types: !307)
!307 = !{!308, !314}
!308 = !DIDerivedType(tag: DW_TAG_typedef, name: "reference", scope: !292, file: !293, line: 772, baseType: !309)
!309 = !DIDerivedType(tag: DW_TAG_typedef, name: "reference", scope: !311, file: !310, line: 184, baseType: !94)
!310 = !DIFile(filename: "/tools/Xilinx/SDK/2018.3/gnu/aarch32/lin/gcc-arm-none-eabi/arm-none-eabi/include/c++/7.3.1/bits/stl_iterator_base_types.h", directory: "/home/bqpd/workspace_sdsoc/MiniZedMM/Debug")
!311 = distinct !DICompositeType(tag: DW_TAG_structure_type, name: "iterator_traits<Dual *>", scope: !10, file: !310, line: 178, size: 8, align: 8, elements: !2, templateParams: !312, identifier: "_ZTSSt15iterator_traitsIP4DualE")
!312 = !{!313}
!313 = !DITemplateTypeParameter(name: "_Iterator", type: !35)
!314 = !DIDerivedType(tag: DW_TAG_pointer_type, baseType: !315, size: 32, align: 32, flags: DIFlagArtificial | DIFlagObjectPointer)
!315 = !DIDerivedType(tag: DW_TAG_const_type, baseType: !292)
!316 = !DISubprogram(name: "operator->", linkageName: "_ZNK9__gnu_cxx17__normal_iteratorIP4DualSt6vectorIS1_SaIS1_EEEptEv", scope: !292, file: !293, line: 796, type: !317, isLocal: false, isDefinition: false, scopeLine: 796, flags: DIFlagPublic | DIFlagPrototyped, isOptimized: false)
!317 = !DISubroutineType(types: !318)
!318 = !{!319, !314}
!319 = !DIDerivedType(tag: DW_TAG_typedef, name: "pointer", scope: !292, file: !293, line: 773, baseType: !320)
!320 = !DIDerivedType(tag: DW_TAG_typedef, name: "pointer", scope: !311, file: !310, line: 183, baseType: !35)
!321 = !DISubprogram(name: "operator++", linkageName: "_ZN9__gnu_cxx17__normal_iteratorIP4DualSt6vectorIS1_SaIS1_EEEppEv", scope: !292, file: !293, line: 800, type: !322, isLocal: false, isDefinition: false, scopeLine: 800, flags: DIFlagPublic | DIFlagPrototyped, isOptimized: false)
!322 = !DISubroutineType(types: !323)
!323 = !{!324, !299}
!324 = !DIDerivedType(tag: DW_TAG_reference_type, baseType: !292, size: 32, align: 32)
!325 = !DISubprogram(name: "operator++", linkageName: "_ZN9__gnu_cxx17__normal_iteratorIP4DualSt6vectorIS1_SaIS1_EEEppEi", scope: !292, file: !293, line: 807, type: !326, isLocal: false, isDefinition: false, scopeLine: 807, flags: DIFlagPublic | DIFlagPrototyped, isOptimized: false)
!326 = !DISubroutineType(types: !327)
!327 = !{!292, !299, !328}
!328 = !DIBasicType(name: "int", size: 32, align: 32, encoding: DW_ATE_signed)
!329 = !DISubprogram(name: "operator--", linkageName: "_ZN9__gnu_cxx17__normal_iteratorIP4DualSt6vectorIS1_SaIS1_EEEmmEv", scope: !292, file: !293, line: 812, type: !322, isLocal: false, isDefinition: false, scopeLine: 812, flags: DIFlagPublic | DIFlagPrototyped, isOptimized: false)
!330 = !DISubprogram(name: "operator--", linkageName: "_ZN9__gnu_cxx17__normal_iteratorIP4DualSt6vectorIS1_SaIS1_EEEmmEi", scope: !292, file: !293, line: 819, type: !326, isLocal: false, isDefinition: false, scopeLine: 819, flags: DIFlagPublic | DIFlagPrototyped, isOptimized: false)
!331 = !DISubprogram(name: "operator[]", linkageName: "_ZNK9__gnu_cxx17__normal_iteratorIP4DualSt6vectorIS1_SaIS1_EEEixEi", scope: !292, file: !293, line: 824, type: !332, isLocal: false, isDefinition: false, scopeLine: 824, flags: DIFlagPublic | DIFlagPrototyped, isOptimized: false)
!332 = !DISubroutineType(types: !333)
!333 = !{!308, !314, !334}
!334 = !DIDerivedType(tag: DW_TAG_typedef, name: "difference_type", scope: !292, file: !293, line: 771, baseType: !335)
!335 = !DIDerivedType(tag: DW_TAG_typedef, name: "difference_type", scope: !311, file: !310, line: 182, baseType: !336)
!336 = !DIDerivedType(tag: DW_TAG_typedef, name: "ptrdiff_t", scope: !10, file: !11, line: 232, baseType: !328)
!337 = !DISubprogram(name: "operator+=", linkageName: "_ZN9__gnu_cxx17__normal_iteratorIP4DualSt6vectorIS1_SaIS1_EEEpLEi", scope: !292, file: !293, line: 828, type: !338, isLocal: false, isDefinition: false, scopeLine: 828, flags: DIFlagPublic | DIFlagPrototyped, isOptimized: false)
!338 = !DISubroutineType(types: !339)
!339 = !{!324, !299, !334}
!340 = !DISubprogram(name: "operator+", linkageName: "_ZNK9__gnu_cxx17__normal_iteratorIP4DualSt6vectorIS1_SaIS1_EEEplEi", scope: !292, file: !293, line: 832, type: !341, isLocal: false, isDefinition: false, scopeLine: 832, flags: DIFlagPublic | DIFlagPrototyped, isOptimized: false)
!341 = !DISubroutineType(types: !342)
!342 = !{!292, !314, !334}
!343 = !DISubprogram(name: "operator-=", linkageName: "_ZN9__gnu_cxx17__normal_iteratorIP4DualSt6vectorIS1_SaIS1_EEEmIEi", scope: !292, file: !293, line: 836, type: !338, isLocal: false, isDefinition: false, scopeLine: 836, flags: DIFlagPublic | DIFlagPrototyped, isOptimized: false)
!344 = !DISubprogram(name: "operator-", linkageName: "_ZNK9__gnu_cxx17__normal_iteratorIP4DualSt6vectorIS1_SaIS1_EEEmiEi", scope: !292, file: !293, line: 840, type: !341, isLocal: false, isDefinition: false, scopeLine: 840, flags: DIFlagPublic | DIFlagPrototyped, isOptimized: false)
!345 = !DISubprogram(name: "base", linkageName: "_ZNK9__gnu_cxx17__normal_iteratorIP4DualSt6vectorIS1_SaIS1_EEE4baseEv", scope: !292, file: !293, line: 844, type: !346, isLocal: false, isDefinition: false, scopeLine: 844, flags: DIFlagPublic | DIFlagPrototyped, isOptimized: false)
!346 = !DISubroutineType(types: !347)
!347 = !{!303, !314}
!348 = !{!313, !349}
!349 = !DITemplateTypeParameter(name: "_Container", type: !8)
!350 = !DISubprogram(name: "begin", linkageName: "_ZNKSt6vectorI4DualSaIS0_EE5beginEv", scope: !8, file: !9, line: 572, type: !351, isLocal: false, isDefinition: false, scopeLine: 572, flags: DIFlagPublic | DIFlagPrototyped, isOptimized: false)
!351 = !DISubroutineType(types: !352)
!352 = !{!353, !407}
!353 = !DIDerivedType(tag: DW_TAG_typedef, name: "const_iterator", scope: !8, file: !9, line: 239, baseType: !354)
!354 = distinct !DICompositeType(tag: DW_TAG_class_type, name: "__normal_iterator<const Dual *, std::vector<Dual, std::allocator<Dual> > >", scope: !25, file: !293, line: 760, size: 32, align: 32, elements: !355, templateParams: !406, identifier: "_ZTSN9__gnu_cxx17__normal_iteratorIPK4DualSt6vectorIS1_SaIS1_EEEE")
!355 = !{!356, !357, !361, !366, !376, !381, !385, !388, !389, !390, !395, !398, !401, !402, !403}
!356 = !DIDerivedType(tag: DW_TAG_member, name: "_M_current", scope: !354, file: !293, line: 763, baseType: !99, size: 32, align: 32, flags: DIFlagProtected)
!357 = !DISubprogram(name: "__normal_iterator", scope: !354, file: !293, line: 775, type: !358, isLocal: false, isDefinition: false, scopeLine: 775, flags: DIFlagPublic | DIFlagPrototyped, isOptimized: false)
!358 = !DISubroutineType(types: !359)
!359 = !{null, !360}
!360 = !DIDerivedType(tag: DW_TAG_pointer_type, baseType: !354, size: 32, align: 32, flags: DIFlagArtificial | DIFlagObjectPointer)
!361 = !DISubprogram(name: "__normal_iterator", scope: !354, file: !293, line: 779, type: !362, isLocal: false, isDefinition: false, scopeLine: 779, flags: DIFlagPublic | DIFlagExplicit | DIFlagPrototyped, isOptimized: false)
!362 = !DISubroutineType(types: !363)
!363 = !{null, !360, !364}
!364 = !DIDerivedType(tag: DW_TAG_reference_type, baseType: !365, size: 32, align: 32)
!365 = !DIDerivedType(tag: DW_TAG_const_type, baseType: !99)
!366 = !DISubprogram(name: "operator*", linkageName: "_ZNK9__gnu_cxx17__normal_iteratorIPK4DualSt6vectorIS1_SaIS1_EEEdeEv", scope: !354, file: !293, line: 792, type: !367, isLocal: false, isDefinition: false, scopeLine: 792, flags: DIFlagPublic | DIFlagPrototyped, isOptimized: false)
!367 = !DISubroutineType(types: !368)
!368 = !{!369, !374}
!369 = !DIDerivedType(tag: DW_TAG_typedef, name: "reference", scope: !354, file: !293, line: 772, baseType: !370)
!370 = !DIDerivedType(tag: DW_TAG_typedef, name: "reference", scope: !371, file: !310, line: 195, baseType: !63)
!371 = distinct !DICompositeType(tag: DW_TAG_structure_type, name: "iterator_traits<const Dual *>", scope: !10, file: !310, line: 189, size: 8, align: 8, elements: !2, templateParams: !372, identifier: "_ZTSSt15iterator_traitsIPK4DualE")
!372 = !{!373}
!373 = !DITemplateTypeParameter(name: "_Iterator", type: !99)
!374 = !DIDerivedType(tag: DW_TAG_pointer_type, baseType: !375, size: 32, align: 32, flags: DIFlagArtificial | DIFlagObjectPointer)
!375 = !DIDerivedType(tag: DW_TAG_const_type, baseType: !354)
!376 = !DISubprogram(name: "operator->", linkageName: "_ZNK9__gnu_cxx17__normal_iteratorIPK4DualSt6vectorIS1_SaIS1_EEEptEv", scope: !354, file: !293, line: 796, type: !377, isLocal: false, isDefinition: false, scopeLine: 796, flags: DIFlagPublic | DIFlagPrototyped, isOptimized: false)
!377 = !DISubroutineType(types: !378)
!378 = !{!379, !374}
!379 = !DIDerivedType(tag: DW_TAG_typedef, name: "pointer", scope: !354, file: !293, line: 773, baseType: !380)
!380 = !DIDerivedType(tag: DW_TAG_typedef, name: "pointer", scope: !371, file: !310, line: 194, baseType: !99)
!381 = !DISubprogram(name: "operator++", linkageName: "_ZN9__gnu_cxx17__normal_iteratorIPK4DualSt6vectorIS1_SaIS1_EEEppEv", scope: !354, file: !293, line: 800, type: !382, isLocal: false, isDefinition: false, scopeLine: 800, flags: DIFlagPublic | DIFlagPrototyped, isOptimized: false)
!382 = !DISubroutineType(types: !383)
!383 = !{!384, !360}
!384 = !DIDerivedType(tag: DW_TAG_reference_type, baseType: !354, size: 32, align: 32)
!385 = !DISubprogram(name: "operator++", linkageName: "_ZN9__gnu_cxx17__normal_iteratorIPK4DualSt6vectorIS1_SaIS1_EEEppEi", scope: !354, file: !293, line: 807, type: !386, isLocal: false, isDefinition: false, scopeLine: 807, flags: DIFlagPublic | DIFlagPrototyped, isOptimized: false)
!386 = !DISubroutineType(types: !387)
!387 = !{!354, !360, !328}
!388 = !DISubprogram(name: "operator--", linkageName: "_ZN9__gnu_cxx17__normal_iteratorIPK4DualSt6vectorIS1_SaIS1_EEEmmEv", scope: !354, file: !293, line: 812, type: !382, isLocal: false, isDefinition: false, scopeLine: 812, flags: DIFlagPublic | DIFlagPrototyped, isOptimized: false)
!389 = !DISubprogram(name: "operator--", linkageName: "_ZN9__gnu_cxx17__normal_iteratorIPK4DualSt6vectorIS1_SaIS1_EEEmmEi", scope: !354, file: !293, line: 819, type: !386, isLocal: false, isDefinition: false, scopeLine: 819, flags: DIFlagPublic | DIFlagPrototyped, isOptimized: false)
!390 = !DISubprogram(name: "operator[]", linkageName: "_ZNK9__gnu_cxx17__normal_iteratorIPK4DualSt6vectorIS1_SaIS1_EEEixEi", scope: !354, file: !293, line: 824, type: !391, isLocal: false, isDefinition: false, scopeLine: 824, flags: DIFlagPublic | DIFlagPrototyped, isOptimized: false)
!391 = !DISubroutineType(types: !392)
!392 = !{!369, !374, !393}
!393 = !DIDerivedType(tag: DW_TAG_typedef, name: "difference_type", scope: !354, file: !293, line: 771, baseType: !394)
!394 = !DIDerivedType(tag: DW_TAG_typedef, name: "difference_type", scope: !371, file: !310, line: 193, baseType: !336)
!395 = !DISubprogram(name: "operator+=", linkageName: "_ZN9__gnu_cxx17__normal_iteratorIPK4DualSt6vectorIS1_SaIS1_EEEpLEi", scope: !354, file: !293, line: 828, type: !396, isLocal: false, isDefinition: false, scopeLine: 828, flags: DIFlagPublic | DIFlagPrototyped, isOptimized: false)
!396 = !DISubroutineType(types: !397)
!397 = !{!384, !360, !393}
!398 = !DISubprogram(name: "operator+", linkageName: "_ZNK9__gnu_cxx17__normal_iteratorIPK4DualSt6vectorIS1_SaIS1_EEEplEi", scope: !354, file: !293, line: 832, type: !399, isLocal: false, isDefinition: false, scopeLine: 832, flags: DIFlagPublic | DIFlagPrototyped, isOptimized: false)
!399 = !DISubroutineType(types: !400)
!400 = !{!354, !374, !393}
!401 = !DISubprogram(name: "operator-=", linkageName: "_ZN9__gnu_cxx17__normal_iteratorIPK4DualSt6vectorIS1_SaIS1_EEEmIEi", scope: !354, file: !293, line: 836, type: !396, isLocal: false, isDefinition: false, scopeLine: 836, flags: DIFlagPublic | DIFlagPrototyped, isOptimized: false)
!402 = !DISubprogram(name: "operator-", linkageName: "_ZNK9__gnu_cxx17__normal_iteratorIPK4DualSt6vectorIS1_SaIS1_EEEmiEi", scope: !354, file: !293, line: 840, type: !399, isLocal: false, isDefinition: false, scopeLine: 840, flags: DIFlagPublic | DIFlagPrototyped, isOptimized: false)
!403 = !DISubprogram(name: "base", linkageName: "_ZNK9__gnu_cxx17__normal_iteratorIPK4DualSt6vectorIS1_SaIS1_EEE4baseEv", scope: !354, file: !293, line: 844, type: !404, isLocal: false, isDefinition: false, scopeLine: 844, flags: DIFlagPublic | DIFlagPrototyped, isOptimized: false)
!404 = !DISubroutineType(types: !405)
!405 = !{!364, !374}
!406 = !{!373, !349}
!407 = !DIDerivedType(tag: DW_TAG_pointer_type, baseType: !255, size: 32, align: 32, flags: DIFlagArtificial | DIFlagObjectPointer)
!408 = !DISubprogram(name: "end", linkageName: "_ZNSt6vectorI4DualSaIS0_EE3endEv", scope: !8, file: !9, line: 581, type: !289, isLocal: false, isDefinition: false, scopeLine: 581, flags: DIFlagPublic | DIFlagPrototyped, isOptimized: false)
!409 = !DISubprogram(name: "end", linkageName: "_ZNKSt6vectorI4DualSaIS0_EE3endEv", scope: !8, file: !9, line: 590, type: !351, isLocal: false, isDefinition: false, scopeLine: 590, flags: DIFlagPublic | DIFlagPrototyped, isOptimized: false)
!410 = !DISubprogram(name: "rbegin", linkageName: "_ZNSt6vectorI4DualSaIS0_EE6rbeginEv", scope: !8, file: !9, line: 599, type: !411, isLocal: false, isDefinition: false, scopeLine: 599, flags: DIFlagPublic | DIFlagPrototyped, isOptimized: false)
!411 = !DISubroutineType(types: !412)
!412 = !{!413, !234}
!413 = !DIDerivedType(tag: DW_TAG_typedef, name: "reverse_iterator", scope: !8, file: !9, line: 241, baseType: !414)
!414 = !DICompositeType(tag: DW_TAG_class_type, name: "reverse_iterator<__gnu_cxx::__normal_iterator<Dual *, std::vector<Dual, std::allocator<Dual> > > >", scope: !10, file: !293, line: 101, flags: DIFlagFwdDecl, identifier: "_ZTSSt16reverse_iteratorIN9__gnu_cxx17__normal_iteratorIP4DualSt6vectorIS2_SaIS2_EEEEE")
!415 = !DISubprogram(name: "rbegin", linkageName: "_ZNKSt6vectorI4DualSaIS0_EE6rbeginEv", scope: !8, file: !9, line: 608, type: !416, isLocal: false, isDefinition: false, scopeLine: 608, flags: DIFlagPublic | DIFlagPrototyped, isOptimized: false)
!416 = !DISubroutineType(types: !417)
!417 = !{!418, !407}
!418 = !DIDerivedType(tag: DW_TAG_typedef, name: "const_reverse_iterator", scope: !8, file: !9, line: 240, baseType: !419)
!419 = !DICompositeType(tag: DW_TAG_class_type, name: "reverse_iterator<__gnu_cxx::__normal_iterator<const Dual *, std::vector<Dual, std::allocator<Dual> > > >", scope: !10, file: !293, line: 101, flags: DIFlagFwdDecl, identifier: "_ZTSSt16reverse_iteratorIN9__gnu_cxx17__normal_iteratorIPK4DualSt6vectorIS2_SaIS2_EEEEE")
!420 = !DISubprogram(name: "rend", linkageName: "_ZNSt6vectorI4DualSaIS0_EE4rendEv", scope: !8, file: !9, line: 617, type: !411, isLocal: false, isDefinition: false, scopeLine: 617, flags: DIFlagPublic | DIFlagPrototyped, isOptimized: false)
!421 = !DISubprogram(name: "rend", linkageName: "_ZNKSt6vectorI4DualSaIS0_EE4rendEv", scope: !8, file: !9, line: 626, type: !416, isLocal: false, isDefinition: false, scopeLine: 626, flags: DIFlagPublic | DIFlagPrototyped, isOptimized: false)
!422 = !DISubprogram(name: "cbegin", linkageName: "_ZNKSt6vectorI4DualSaIS0_EE6cbeginEv", scope: !8, file: !9, line: 636, type: !351, isLocal: false, isDefinition: false, scopeLine: 636, flags: DIFlagPublic | DIFlagPrototyped, isOptimized: false)
!423 = !DISubprogram(name: "cend", linkageName: "_ZNKSt6vectorI4DualSaIS0_EE4cendEv", scope: !8, file: !9, line: 645, type: !351, isLocal: false, isDefinition: false, scopeLine: 645, flags: DIFlagPublic | DIFlagPrototyped, isOptimized: false)
!424 = !DISubprogram(name: "crbegin", linkageName: "_ZNKSt6vectorI4DualSaIS0_EE7crbeginEv", scope: !8, file: !9, line: 654, type: !416, isLocal: false, isDefinition: false, scopeLine: 654, flags: DIFlagPublic | DIFlagPrototyped, isOptimized: false)
!425 = !DISubprogram(name: "crend", linkageName: "_ZNKSt6vectorI4DualSaIS0_EE5crendEv", scope: !8, file: !9, line: 663, type: !416, isLocal: false, isDefinition: false, scopeLine: 663, flags: DIFlagPublic | DIFlagPrototyped, isOptimized: false)
!426 = !DISubprogram(name: "size", linkageName: "_ZNKSt6vectorI4DualSaIS0_EE4sizeEv", scope: !8, file: !9, line: 670, type: !427, isLocal: false, isDefinition: false, scopeLine: 670, flags: DIFlagPublic | DIFlagPrototyped, isOptimized: false)
!427 = !DISubroutineType(types: !428)
!428 = !{!244, !407}
!429 = !DISubprogram(name: "max_size", linkageName: "_ZNKSt6vectorI4DualSaIS0_EE8max_sizeEv", scope: !8, file: !9, line: 675, type: !427, isLocal: false, isDefinition: false, scopeLine: 675, flags: DIFlagPublic | DIFlagPrototyped, isOptimized: false)
!430 = !DISubprogram(name: "resize", linkageName: "_ZNSt6vectorI4DualSaIS0_EE6resizeEj", scope: !8, file: !9, line: 689, type: !431, isLocal: false, isDefinition: false, scopeLine: 689, flags: DIFlagPublic | DIFlagPrototyped, isOptimized: false)
!431 = !DISubroutineType(types: !432)
!432 = !{null, !234, !244}
!433 = !DISubprogram(name: "resize", linkageName: "_ZNSt6vectorI4DualSaIS0_EE6resizeEjRKS0_", scope: !8, file: !9, line: 709, type: !283, isLocal: false, isDefinition: false, scopeLine: 709, flags: DIFlagPublic | DIFlagPrototyped, isOptimized: false)
!434 = !DISubprogram(name: "shrink_to_fit", linkageName: "_ZNSt6vectorI4DualSaIS0_EE13shrink_to_fitEv", scope: !8, file: !9, line: 741, type: !232, isLocal: false, isDefinition: false, scopeLine: 741, flags: DIFlagPublic | DIFlagPrototyped, isOptimized: false)
!435 = !DISubprogram(name: "capacity", linkageName: "_ZNKSt6vectorI4DualSaIS0_EE8capacityEv", scope: !8, file: !9, line: 750, type: !427, isLocal: false, isDefinition: false, scopeLine: 750, flags: DIFlagPublic | DIFlagPrototyped, isOptimized: false)
!436 = !DISubprogram(name: "empty", linkageName: "_ZNKSt6vectorI4DualSaIS0_EE5emptyEv", scope: !8, file: !9, line: 759, type: !437, isLocal: false, isDefinition: false, scopeLine: 759, flags: DIFlagPublic | DIFlagPrototyped, isOptimized: false)
!437 = !DISubroutineType(types: !438)
!438 = !{!156, !407}
!439 = !DISubprogram(name: "reserve", linkageName: "_ZNSt6vectorI4DualSaIS0_EE7reserveEj", scope: !8, file: !9, line: 780, type: !431, isLocal: false, isDefinition: false, scopeLine: 780, flags: DIFlagPublic | DIFlagPrototyped, isOptimized: false)
!440 = !DISubprogram(name: "operator[]", linkageName: "_ZNSt6vectorI4DualSaIS0_EEixEj", scope: !8, file: !9, line: 795, type: !441, isLocal: false, isDefinition: false, scopeLine: 795, flags: DIFlagPublic | DIFlagPrototyped, isOptimized: false)
!441 = !DISubroutineType(types: !442)
!442 = !{!443, !234, !244}
!443 = !DIDerivedType(tag: DW_TAG_typedef, name: "reference", scope: !8, file: !9, line: 235, baseType: !444)
!444 = !DIDerivedType(tag: DW_TAG_typedef, name: "reference", scope: !24, file: !22, line: 64, baseType: !445)
!445 = !DIDerivedType(tag: DW_TAG_reference_type, baseType: !446, size: 32, align: 32)
!446 = !DIDerivedType(tag: DW_TAG_typedef, name: "value_type", scope: !24, file: !22, line: 58, baseType: !447)
!447 = !DIDerivedType(tag: DW_TAG_typedef, name: "value_type", scope: !28, file: !29, line: 389, baseType: !36)
!448 = !DISubprogram(name: "operator[]", linkageName: "_ZNKSt6vectorI4DualSaIS0_EEixEj", scope: !8, file: !9, line: 813, type: !449, isLocal: false, isDefinition: false, scopeLine: 813, flags: DIFlagPublic | DIFlagPrototyped, isOptimized: false)
!449 = !DISubroutineType(types: !450)
!450 = !{!451, !407, !244}
!451 = !DIDerivedType(tag: DW_TAG_typedef, name: "const_reference", scope: !8, file: !9, line: 236, baseType: !452)
!452 = !DIDerivedType(tag: DW_TAG_typedef, name: "const_reference", scope: !24, file: !22, line: 65, baseType: !453)
!453 = !DIDerivedType(tag: DW_TAG_reference_type, baseType: !454, size: 32, align: 32)
!454 = !DIDerivedType(tag: DW_TAG_const_type, baseType: !446)
!455 = !DISubprogram(name: "_M_range_check", linkageName: "_ZNKSt6vectorI4DualSaIS0_EE14_M_range_checkEj", scope: !8, file: !9, line: 822, type: !456, isLocal: false, isDefinition: false, scopeLine: 822, flags: DIFlagProtected | DIFlagPrototyped, isOptimized: false)
!456 = !DISubroutineType(types: !457)
!457 = !{null, !407, !244}
!458 = !DISubprogram(name: "at", linkageName: "_ZNSt6vectorI4DualSaIS0_EE2atEj", scope: !8, file: !9, line: 844, type: !441, isLocal: false, isDefinition: false, scopeLine: 844, flags: DIFlagPublic | DIFlagPrototyped, isOptimized: false)
!459 = !DISubprogram(name: "at", linkageName: "_ZNKSt6vectorI4DualSaIS0_EE2atEj", scope: !8, file: !9, line: 862, type: !449, isLocal: false, isDefinition: false, scopeLine: 862, flags: DIFlagPublic | DIFlagPrototyped, isOptimized: false)
!460 = !DISubprogram(name: "front", linkageName: "_ZNSt6vectorI4DualSaIS0_EE5frontEv", scope: !8, file: !9, line: 873, type: !461, isLocal: false, isDefinition: false, scopeLine: 873, flags: DIFlagPublic | DIFlagPrototyped, isOptimized: false)
!461 = !DISubroutineType(types: !462)
!462 = !{!443, !234}
!463 = !DISubprogram(name: "front", linkageName: "_ZNKSt6vectorI4DualSaIS0_EE5frontEv", scope: !8, file: !9, line: 884, type: !464, isLocal: false, isDefinition: false, scopeLine: 884, flags: DIFlagPublic | DIFlagPrototyped, isOptimized: false)
!464 = !DISubroutineType(types: !465)
!465 = !{!451, !407}
