; ModuleID = '/home/bqpd/workspace_sdsoc/MiniZedMM/src/graph.cpp'
source_filename = "/home/bqpd/workspace_sdsoc/MiniZedMM/src/graph.cpp"
target datalayout = "e-m:e-p:32:32-i64:64-v128:64:128-a:0:32-n32-S64"
target triple = "armv7-none--eabi"

%class.Graph = type { %"class.std::map" }
%"class.std::map" = type { %"class.std::_Rb_tree" }
%"class.std::_Rb_tree" = type { %"struct.std::_Rb_tree<long, std::pair<const long, std::vector<std::pair<double, long>, std::allocator<std::pair<double, long> > > >, std::_Select1st<std::pair<const long, std::vector<std::pair<double, long>, std::allocator<std::pair<double, long> > > > >, std::less<long>, std::allocator<std::pair<const long, std::vector<std::pair<double, long>, std::allocator<std::pair<double, long> > > > > >::_Rb_tree_impl" }
%"struct.std::_Rb_tree<long, std::pair<const long, std::vector<std::pair<double, long>, std::allocator<std::pair<double, long> > > >, std::_Select1st<std::pair<const long, std::vector<std::pair<double, long>, std::allocator<std::pair<double, long> > > > >, std::less<long>, std::allocator<std::pair<const long, std::vector<std::pair<double, long>, std::allocator<std::pair<double, long> > > > > >::_Rb_tree_impl" = type { %"struct.std::_Rb_tree_key_compare", %"struct.std::_Rb_tree_header" }
%"struct.std::_Rb_tree_key_compare" = type { %"struct.std::less" }
%"struct.std::less" = type { i8 }
%"struct.std::_Rb_tree_header" = type { %"struct.std::_Rb_tree_node_base", i32 }
%"struct.std::_Rb_tree_node_base" = type { i32, %"struct.std::_Rb_tree_node_base"*, %"struct.std::_Rb_tree_node_base"*, %"struct.std::_Rb_tree_node_base"* }
%"struct.std::piecewise_construct_t" = type { i8 }
%"struct.std::pair" = type <{ double, i32, [4 x i8] }>
%"class.std::vector" = type { %"struct.std::_Vector_base" }
%"struct.std::_Vector_base" = type { %"struct.std::_Vector_base<std::pair<double, long>, std::allocator<std::pair<double, long> > >::_Vector_impl" }
%"struct.std::_Vector_base<std::pair<double, long>, std::allocator<std::pair<double, long> > >::_Vector_impl" = type { %"struct.std::pair"*, %"struct.std::pair"*, %"struct.std::pair"* }
%"struct.std::_Rb_tree_iterator" = type { %"struct.std::_Rb_tree_node_base"* }
%"struct.std::_Rb_tree_const_iterator" = type { %"struct.std::_Rb_tree_node_base"* }
%"class.std::tuple" = type { %"struct.std::_Tuple_impl" }
%"struct.std::_Tuple_impl" = type { %"struct.std::_Head_base" }
%"struct.std::_Head_base" = type { i32* }
%"class.std::tuple.4" = type { i8 }
%"struct.std::pair.3" = type { i32, %"class.std::vector" }
%"class.__gnu_cxx::__normal_iterator" = type { %"struct.std::pair"* }
%"class.std::allocator.0" = type { i8 }
%"class.__gnu_cxx::__normal_iterator.7" = type { %"struct.std::pair"* }
%"class.std::allocator" = type { i8 }
%"class.__gnu_cxx::new_allocator" = type { i8 }
%"struct.std::_Rb_tree_node" = type { %"struct.std::_Rb_tree_node_base", %"struct.__gnu_cxx::__aligned_membuf" }
%"struct.__gnu_cxx::__aligned_membuf" = type { [16 x i8] }
%"struct.std::pair.5" = type { %"struct.std::_Rb_tree_node_base"*, %"struct.std::_Rb_tree_node_base"* }
%"struct.std::_Select1st" = type { i8 }
%"struct.std::_Index_tuple" = type { i8 }
%"struct.std::_Index_tuple.6" = type { i8 }
%"class.__gnu_cxx::new_allocator.1" = type { i8 }
%"class.std::move_iterator" = type { %"struct.std::pair"* }

$_ZNSt3mapIlSt6vectorISt4pairIdlESaIS2_EESt4lessIlESaIS1_IKlS4_EEEC2Ev = comdat any

$_ZNSt3mapIlSt6vectorISt4pairIdlESaIS2_EESt4lessIlESaIS1_IKlS4_EEEixERS7_ = comdat any

$_ZNSt6vectorISt4pairIdlESaIS1_EE9push_backERKS1_ = comdat any

$_ZNKSt3mapIlSt6vectorISt4pairIdlESaIS2_EESt4lessIlESaIS1_IKlS4_EEE2atERS7_ = comdat any

$_ZNSt6vectorISt4pairIdlESaIS1_EEC2ERKS3_ = comdat any

$_ZNKSt3mapIlSt6vectorISt4pairIdlESaIS2_EESt4lessIlESaIS1_IKlS4_EEE4findERS7_ = comdat any

$_ZNKSt23_Rb_tree_const_iteratorISt4pairIKlSt6vectorIS0_IdlESaIS3_EEEEneERKS7_ = comdat any

$_ZNKSt3mapIlSt6vectorISt4pairIdlESaIS2_EESt4lessIlESaIS1_IKlS4_EEE3endEv = comdat any

$_ZNSt3mapIlSt6vectorISt4pairIdlESaIS2_EESt4lessIlESaIS1_IKlS4_EEE5clearEv = comdat any

$_ZNSt8_Rb_treeIlSt4pairIKlSt6vectorIS0_IdlESaIS3_EEESt10_Select1stIS6_ESt4lessIlESaIS6_EEC2Ev = comdat any

$_ZNSt8_Rb_treeIlSt4pairIKlSt6vectorIS0_IdlESaIS3_EEESt10_Select1stIS6_ESt4lessIlESaIS6_EE13_Rb_tree_implISA_Lb1EEC2Ev = comdat any

$_ZNSaISt13_Rb_tree_nodeISt4pairIKlSt6vectorIS0_IdlESaIS3_EEEEEC2Ev = comdat any

$_ZNSt20_Rb_tree_key_compareISt4lessIlEEC2Ev = comdat any

$_ZNSt15_Rb_tree_headerC2Ev = comdat any

$_ZN9__gnu_cxx13new_allocatorISt13_Rb_tree_nodeISt4pairIKlSt6vectorIS2_IdlESaIS5_EEEEEC2Ev = comdat any

$_ZNSt15_Rb_tree_header8_M_resetEv = comdat any

$__clang_call_terminate = comdat any

$_ZNSt3mapIlSt6vectorISt4pairIdlESaIS2_EESt4lessIlESaIS1_IKlS4_EEE11lower_boundERS7_ = comdat any

$_ZNKSt17_Rb_tree_iteratorISt4pairIKlSt6vectorIS0_IdlESaIS3_EEEEeqERKS7_ = comdat any

$_ZNSt3mapIlSt6vectorISt4pairIdlESaIS2_EESt4lessIlESaIS1_IKlS4_EEE3endEv = comdat any

$_ZNKSt3mapIlSt6vectorISt4pairIdlESaIS2_EESt4lessIlESaIS1_IKlS4_EEE8key_compEv = comdat any

$_ZNKSt4lessIlEclERKlS2_ = comdat any

$_ZNKSt17_Rb_tree_iteratorISt4pairIKlSt6vectorIS0_IdlESaIS3_EEEEdeEv = comdat any

$_ZNSt8_Rb_treeIlSt4pairIKlSt6vectorIS0_IdlESaIS3_EEESt10_Select1stIS6_ESt4lessIlESaIS6_EE22_M_emplace_hint_uniqueIJRKSt21piecewise_construct_tSt5tupleIJRS1_EESH_IJEEEEESt17_Rb_tree_iteratorIS6_ESt23_Rb_tree_const_iteratorIS6_EDpOT_ = comdat any

$_ZNSt23_Rb_tree_const_iteratorISt4pairIKlSt6vectorIS0_IdlESaIS3_EEEEC2ERKSt17_Rb_tree_iteratorIS6_E = comdat any

$_ZNSt5tupleIJRKlEEC2IvLb1EEES1_ = comdat any

$_ZNSt8_Rb_treeIlSt4pairIKlSt6vectorIS0_IdlESaIS3_EEESt10_Select1stIS6_ESt4lessIlESaIS6_EE11lower_boundERS1_ = comdat any

$_ZNSt8_Rb_treeIlSt4pairIKlSt6vectorIS0_IdlESaIS3_EEESt10_Select1stIS6_ESt4lessIlESaIS6_EE14_M_lower_boundEPSt13_Rb_tree_nodeIS6_EPSt18_Rb_tree_node_baseRS1_ = comdat any

$_ZNSt8_Rb_treeIlSt4pairIKlSt6vectorIS0_IdlESaIS3_EEESt10_Select1stIS6_ESt4lessIlESaIS6_EE8_M_beginEv = comdat any

$_ZNSt8_Rb_treeIlSt4pairIKlSt6vectorIS0_IdlESaIS3_EEESt10_Select1stIS6_ESt4lessIlESaIS6_EE6_M_endEv = comdat any

$_ZNSt8_Rb_treeIlSt4pairIKlSt6vectorIS0_IdlESaIS3_EEESt10_Select1stIS6_ESt4lessIlESaIS6_EE6_S_keyEPKSt13_Rb_tree_nodeIS6_E = comdat any

$_ZNSt8_Rb_treeIlSt4pairIKlSt6vectorIS0_IdlESaIS3_EEESt10_Select1stIS6_ESt4lessIlESaIS6_EE7_S_leftEPSt18_Rb_tree_node_base = comdat any

$_ZNSt8_Rb_treeIlSt4pairIKlSt6vectorIS0_IdlESaIS3_EEESt10_Select1stIS6_ESt4lessIlESaIS6_EE8_S_rightEPSt18_Rb_tree_node_base = comdat any

$_ZNSt17_Rb_tree_iteratorISt4pairIKlSt6vectorIS0_IdlESaIS3_EEEEC2EPSt18_Rb_tree_node_base = comdat any

$_ZNKSt10_Select1stISt4pairIKlSt6vectorIS0_IdlESaIS3_EEEEclERKS6_ = comdat any

$_ZNSt8_Rb_treeIlSt4pairIKlSt6vectorIS0_IdlESaIS3_EEESt10_Select1stIS6_ESt4lessIlESaIS6_EE8_S_valueEPKSt13_Rb_tree_nodeIS6_E = comdat any

$_ZNKSt13_Rb_tree_nodeISt4pairIKlSt6vectorIS0_IdlESaIS3_EEEE9_M_valptrEv = comdat any

$_ZNK9__gnu_cxx16__aligned_membufISt4pairIKlSt6vectorIS1_IdlESaIS4_EEEE6_M_ptrEv = comdat any

$_ZNK9__gnu_cxx16__aligned_membufISt4pairIKlSt6vectorIS1_IdlESaIS4_EEEE7_M_addrEv = comdat any

$_ZNSt8_Rb_treeIlSt4pairIKlSt6vectorIS0_IdlESaIS3_EEESt10_Select1stIS6_ESt4lessIlESaIS6_EE3endEv = comdat any

$_ZNKSt8_Rb_treeIlSt4pairIKlSt6vectorIS0_IdlESaIS3_EEESt10_Select1stIS6_ESt4lessIlESaIS6_EE8key_compEv = comdat any

$_ZNSt13_Rb_tree_nodeISt4pairIKlSt6vectorIS0_IdlESaIS3_EEEE9_M_valptrEv = comdat any

$_ZN9__gnu_cxx16__aligned_membufISt4pairIKlSt6vectorIS1_IdlESaIS4_EEEE6_M_ptrEv = comdat any

$_ZN9__gnu_cxx16__aligned_membufISt4pairIKlSt6vectorIS1_IdlESaIS4_EEEE7_M_addrEv = comdat any

$_ZNSt8_Rb_treeIlSt4pairIKlSt6vectorIS0_IdlESaIS3_EEESt10_Select1stIS6_ESt4lessIlESaIS6_EE14_M_create_nodeIJRKSt21piecewise_construct_tSt5tupleIJRS1_EESH_IJEEEEEPSt13_Rb_tree_nodeIS6_EDpOT_ = comdat any

$_ZSt7forwardIRKSt21piecewise_construct_tEOT_RNSt16remove_referenceIS3_E4typeE = comdat any

$_ZSt7forwardISt5tupleIJRKlEEEOT_RNSt16remove_referenceIS4_E4typeE = comdat any

$_ZSt7forwardISt5tupleIJEEEOT_RNSt16remove_referenceIS2_E4typeE = comdat any

$_ZNSt8_Rb_treeIlSt4pairIKlSt6vectorIS0_IdlESaIS3_EEESt10_Select1stIS6_ESt4lessIlESaIS6_EE29_M_get_insert_hint_unique_posESt23_Rb_tree_const_iteratorIS6_ERS1_ = comdat any

$_ZNSt8_Rb_treeIlSt4pairIKlSt6vectorIS0_IdlESaIS3_EEESt10_Select1stIS6_ESt4lessIlESaIS6_EE14_M_insert_nodeEPSt18_Rb_tree_node_baseSE_PSt13_Rb_tree_nodeIS6_E = comdat any

$_ZNSt8_Rb_treeIlSt4pairIKlSt6vectorIS0_IdlESaIS3_EEESt10_Select1stIS6_ESt4lessIlESaIS6_EE12_M_drop_nodeEPSt13_Rb_tree_nodeIS6_E = comdat any

$_ZNSt8_Rb_treeIlSt4pairIKlSt6vectorIS0_IdlESaIS3_EEESt10_Select1stIS6_ESt4lessIlESaIS6_EE11_M_get_nodeEv = comdat any

$_ZNSt8_Rb_treeIlSt4pairIKlSt6vectorIS0_IdlESaIS3_EEESt10_Select1stIS6_ESt4lessIlESaIS6_EE17_M_construct_nodeIJRKSt21piecewise_construct_tSt5tupleIJRS1_EESH_IJEEEEEvPSt13_Rb_tree_nodeIS6_EDpOT_ = comdat any

$_ZNSt16allocator_traitsISaISt13_Rb_tree_nodeISt4pairIKlSt6vectorIS1_IdlESaIS4_EEEEEE8allocateERS9_j = comdat any

$_ZNSt8_Rb_treeIlSt4pairIKlSt6vectorIS0_IdlESaIS3_EEESt10_Select1stIS6_ESt4lessIlESaIS6_EE21_M_get_Node_allocatorEv = comdat any

$_ZN9__gnu_cxx13new_allocatorISt13_Rb_tree_nodeISt4pairIKlSt6vectorIS2_IdlESaIS5_EEEEE8allocateEjPKv = comdat any

$_ZNK9__gnu_cxx13new_allocatorISt13_Rb_tree_nodeISt4pairIKlSt6vectorIS2_IdlESaIS5_EEEEE8max_sizeEv = comdat any

$_ZNSt16allocator_traitsISaISt13_Rb_tree_nodeISt4pairIKlSt6vectorIS1_IdlESaIS4_EEEEEE9constructIS7_JRKSt21piecewise_construct_tSt5tupleIJRS2_EESF_IJEEEEEvRS9_PT_DpOT0_ = comdat any

$_ZNSt8_Rb_treeIlSt4pairIKlSt6vectorIS0_IdlESaIS3_EEESt10_Select1stIS6_ESt4lessIlESaIS6_EE11_M_put_nodeEPSt13_Rb_tree_nodeIS6_E = comdat any

$_ZN9__gnu_cxx13new_allocatorISt13_Rb_tree_nodeISt4pairIKlSt6vectorIS2_IdlESaIS5_EEEEE9constructIS8_JRKSt21piecewise_construct_tSt5tupleIJRS3_EESF_IJEEEEEvPT_DpOT0_ = comdat any

$_ZNSt5tupleIJRKlEEC2EOS2_ = comdat any

$_ZNSt4pairIKlSt6vectorIS_IdlESaIS2_EEEC2IJRS0_EJEEESt21piecewise_construct_tSt5tupleIJDpT_EES9_IJDpT0_EE = comdat any

$_ZNSt11_Tuple_implILj0EJRKlEEC2EOS2_ = comdat any

$_ZSt7forwardIRKlEOT_RNSt16remove_referenceIS2_E4typeE = comdat any

$_ZNSt11_Tuple_implILj0EJRKlEE7_M_headERS2_ = comdat any

$_ZNSt10_Head_baseILj0ERKlLb0EEC2ES1_ = comdat any

$_ZNSt10_Head_baseILj0ERKlLb0EE7_M_headERS2_ = comdat any

$_ZNSt4pairIKlSt6vectorIS_IdlESaIS2_EEEC2IJRS0_EJLj0EEJEJEEERSt5tupleIJDpT_EERS8_IJDpT1_EESt12_Index_tupleIJXspT0_EEESH_IJXspT2_EEE = comdat any

$_ZSt3getILj0EJRKlEERNSt13tuple_elementIXT_ESt5tupleIJDpT0_EEE4typeERS6_ = comdat any

$_ZNSt6vectorISt4pairIdlESaIS1_EEC2Ev = comdat any

$_ZSt12__get_helperILj0ERKlJEERT0_RSt11_Tuple_implIXT_EJS2_DpT1_EE = comdat any

$_ZNSt12_Vector_baseISt4pairIdlESaIS1_EEC2Ev = comdat any

$_ZNSt12_Vector_baseISt4pairIdlESaIS1_EE12_Vector_implC2Ev = comdat any

$_ZNSaISt4pairIdlEEC2Ev = comdat any

$_ZN9__gnu_cxx13new_allocatorISt4pairIdlEEC2Ev = comdat any

$_ZNSt16allocator_traitsISaISt13_Rb_tree_nodeISt4pairIKlSt6vectorIS1_IdlESaIS4_EEEEEE10deallocateERS9_PS8_j = comdat any

$_ZN9__gnu_cxx13new_allocatorISt13_Rb_tree_nodeISt4pairIKlSt6vectorIS2_IdlESaIS5_EEEEE10deallocateEPS9_j = comdat any

$_ZNKSt23_Rb_tree_const_iteratorISt4pairIKlSt6vectorIS0_IdlESaIS3_EEEE13_M_const_castEv = comdat any

$_ZNKSt8_Rb_treeIlSt4pairIKlSt6vectorIS0_IdlESaIS3_EEESt10_Select1stIS6_ESt4lessIlESaIS6_EE4sizeEv = comdat any

$_ZNSt8_Rb_treeIlSt4pairIKlSt6vectorIS0_IdlESaIS3_EEESt10_Select1stIS6_ESt4lessIlESaIS6_EE6_S_keyEPKSt18_Rb_tree_node_base = comdat any

$_ZNSt8_Rb_treeIlSt4pairIKlSt6vectorIS0_IdlESaIS3_EEESt10_Select1stIS6_ESt4lessIlESaIS6_EE12_M_rightmostEv = comdat any

$_ZNSt4pairIPSt18_Rb_tree_node_baseS1_EC2IRS1_Lb1EEERKS1_OT_ = comdat any

$_ZNSt8_Rb_treeIlSt4pairIKlSt6vectorIS0_IdlESaIS3_EEESt10_Select1stIS6_ESt4lessIlESaIS6_EE24_M_get_insert_unique_posERS1_ = comdat any

$_ZNSt8_Rb_treeIlSt4pairIKlSt6vectorIS0_IdlESaIS3_EEESt10_Select1stIS6_ESt4lessIlESaIS6_EE11_M_leftmostEv = comdat any

$_ZNSt4pairIPSt18_Rb_tree_node_baseS1_EC2IRS1_S4_Lb1EEEOT_OT0_ = comdat any

$_ZNSt17_Rb_tree_iteratorISt4pairIKlSt6vectorIS0_IdlESaIS3_EEEEmmEv = comdat any

$_ZNSt17_Rb_tree_iteratorISt4pairIKlSt6vectorIS0_IdlESaIS3_EEEEppEv = comdat any

$_ZNSt4pairIPSt18_Rb_tree_node_baseS1_EC2IRS1_Lb1EEEOT_RKS1_ = comdat any

$_ZNSt8_Rb_treeIlSt4pairIKlSt6vectorIS0_IdlESaIS3_EEESt10_Select1stIS6_ESt4lessIlESaIS6_EE8_S_valueEPKSt18_Rb_tree_node_base = comdat any

$_ZSt7forwardIRPSt18_Rb_tree_node_baseEOT_RNSt16remove_referenceIS3_E4typeE = comdat any

$_ZNSt8_Rb_treeIlSt4pairIKlSt6vectorIS0_IdlESaIS3_EEESt10_Select1stIS6_ESt4lessIlESaIS6_EE5beginEv = comdat any

$_ZNSt4pairIPSt18_Rb_tree_node_baseS1_EC2IRPSt13_Rb_tree_nodeIS_IKlSt6vectorIS_IdlESaIS7_EEEERS1_Lb1EEEOT_OT0_ = comdat any

$_ZSt7forwardIRPSt13_Rb_tree_nodeISt4pairIKlSt6vectorIS1_IdlESaIS4_EEEEEOT_RNSt16remove_referenceISB_E4typeE = comdat any

$_ZNSt8_Rb_treeIlSt4pairIKlSt6vectorIS0_IdlESaIS3_EEESt10_Select1stIS6_ESt4lessIlESaIS6_EE15_M_destroy_nodeEPSt13_Rb_tree_nodeIS6_E = comdat any

$_ZNSt16allocator_traitsISaISt13_Rb_tree_nodeISt4pairIKlSt6vectorIS1_IdlESaIS4_EEEEEE7destroyIS7_EEvRS9_PT_ = comdat any

$_ZN9__gnu_cxx13new_allocatorISt13_Rb_tree_nodeISt4pairIKlSt6vectorIS2_IdlESaIS5_EEEEE7destroyIS8_EEvPT_ = comdat any

$_ZNSt4pairIKlSt6vectorIS_IdlESaIS2_EEED2Ev = comdat any

$_ZNSt6vectorISt4pairIdlESaIS1_EED2Ev = comdat any

$_ZSt8_DestroyIPSt4pairIdlES1_EvT_S3_RSaIT0_E = comdat any

$_ZNSt12_Vector_baseISt4pairIdlESaIS1_EE19_M_get_Tp_allocatorEv = comdat any

$_ZNSt12_Vector_baseISt4pairIdlESaIS1_EED2Ev = comdat any

$_ZSt8_DestroyIPSt4pairIdlEEvT_S3_ = comdat any

$_ZNSt12_Destroy_auxILb1EE9__destroyIPSt4pairIdlEEEvT_S5_ = comdat any

$_ZNSt12_Vector_baseISt4pairIdlESaIS1_EE13_M_deallocateEPS1_j = comdat any

$_ZNSt12_Vector_baseISt4pairIdlESaIS1_EE12_Vector_implD2Ev = comdat any

$_ZNSt16allocator_traitsISaISt4pairIdlEEE10deallocateERS2_PS1_j = comdat any

$_ZN9__gnu_cxx13new_allocatorISt4pairIdlEE10deallocateEPS2_j = comdat any

$_ZN9__gnu_cxx13new_allocatorISt4pairIdlEED2Ev = comdat any

$_ZNSt11_Tuple_implILj0EJRKlEEC2ES1_ = comdat any

$_ZNSt16allocator_traitsISaISt4pairIdlEEE9constructIS1_JRKS1_EEEvRS2_PT_DpOT0_ = comdat any

$_ZNSt6vectorISt4pairIdlESaIS1_EE17_M_realloc_insertIJRKS1_EEEvN9__gnu_cxx17__normal_iteratorIPS1_S3_EEDpOT_ = comdat any

$_ZNSt6vectorISt4pairIdlESaIS1_EE3endEv = comdat any

$_ZN9__gnu_cxx13new_allocatorISt4pairIdlEE9constructIS2_JRKS2_EEEvPT_DpOT0_ = comdat any

$_ZSt7forwardIRKSt4pairIdlEEOT_RNSt16remove_referenceIS4_E4typeE = comdat any

$_ZNKSt6vectorISt4pairIdlESaIS1_EE12_M_check_lenEjPKc = comdat any

$_ZN9__gnu_cxxmiIPSt4pairIdlESt6vectorIS2_SaIS2_EEEENS_17__normal_iteratorIT_T0_E15difference_typeERKSA_SD_ = comdat any

$_ZNSt6vectorISt4pairIdlESaIS1_EE5beginEv = comdat any

$_ZNSt12_Vector_baseISt4pairIdlESaIS1_EE11_M_allocateEj = comdat any

$_ZSt34__uninitialized_move_if_noexcept_aIPSt4pairIdlES2_SaIS1_EET0_T_S5_S4_RT1_ = comdat any

$_ZNK9__gnu_cxx17__normal_iteratorIPSt4pairIdlESt6vectorIS2_SaIS2_EEE4baseEv = comdat any

$_ZNSt16allocator_traitsISaISt4pairIdlEEE7destroyIS1_EEvRS2_PT_ = comdat any

$_ZNKSt6vectorISt4pairIdlESaIS1_EE8max_sizeEv = comdat any

$_ZNKSt6vectorISt4pairIdlESaIS1_EE4sizeEv = comdat any

$_ZSt3maxIjERKT_S2_S2_ = comdat any

$_ZNSt16allocator_traitsISaISt4pairIdlEEE8max_sizeERKS2_ = comdat any

$_ZNKSt12_Vector_baseISt4pairIdlESaIS1_EE19_M_get_Tp_allocatorEv = comdat any

$_ZNK9__gnu_cxx13new_allocatorISt4pairIdlEE8max_sizeEv = comdat any

$_ZN9__gnu_cxx17__normal_iteratorIPSt4pairIdlESt6vectorIS2_SaIS2_EEEC2ERKS3_ = comdat any

$_ZNSt16allocator_traitsISaISt4pairIdlEEE8allocateERS2_j = comdat any

$_ZN9__gnu_cxx13new_allocatorISt4pairIdlEE8allocateEjPKv = comdat any

$_ZSt22__uninitialized_copy_aISt13move_iteratorIPSt4pairIdlEES3_S2_ET0_T_S6_S5_RSaIT1_E = comdat any

$_ZSt32__make_move_if_noexcept_iteratorISt4pairIdlESt13move_iteratorIPS1_EET0_PT_ = comdat any

$_ZSt18uninitialized_copyISt13move_iteratorIPSt4pairIdlEES3_ET0_T_S6_S5_ = comdat any

$_ZNSt20__uninitialized_copyILb0EE13__uninit_copyISt13move_iteratorIPSt4pairIdlEES5_EET0_T_S8_S7_ = comdat any

$_ZStneIPSt4pairIdlEEbRKSt13move_iteratorIT_ES7_ = comdat any

$_ZSt10_ConstructISt4pairIdlEJS1_EEvPT_DpOT0_ = comdat any

$_ZSt11__addressofISt4pairIdlEEPT_RS2_ = comdat any

$_ZNKSt13move_iteratorIPSt4pairIdlEEdeEv = comdat any

$_ZNSt13move_iteratorIPSt4pairIdlEEppEv = comdat any

$_ZSteqIPSt4pairIdlEEbRKSt13move_iteratorIT_ES7_ = comdat any

$_ZNKSt13move_iteratorIPSt4pairIdlEE4baseEv = comdat any

$_ZSt7forwardISt4pairIdlEEOT_RNSt16remove_referenceIS2_E4typeE = comdat any

$_ZNSt13move_iteratorIPSt4pairIdlEEC2ES2_ = comdat any

$_ZN9__gnu_cxx13new_allocatorISt4pairIdlEE7destroyIS2_EEvPT_ = comdat any

$_ZNKSt3mapIlSt6vectorISt4pairIdlESaIS2_EESt4lessIlESaIS1_IKlS4_EEE11lower_boundERS7_ = comdat any

$_ZNKSt23_Rb_tree_const_iteratorISt4pairIKlSt6vectorIS0_IdlESaIS3_EEEEeqERKS7_ = comdat any

$_ZNKSt23_Rb_tree_const_iteratorISt4pairIKlSt6vectorIS0_IdlESaIS3_EEEEdeEv = comdat any

$_ZNKSt8_Rb_treeIlSt4pairIKlSt6vectorIS0_IdlESaIS3_EEESt10_Select1stIS6_ESt4lessIlESaIS6_EE11lower_boundERS1_ = comdat any

$_ZNKSt8_Rb_treeIlSt4pairIKlSt6vectorIS0_IdlESaIS3_EEESt10_Select1stIS6_ESt4lessIlESaIS6_EE14_M_lower_boundEPKSt13_Rb_tree_nodeIS6_EPKSt18_Rb_tree_node_baseRS1_ = comdat any

$_ZNKSt8_Rb_treeIlSt4pairIKlSt6vectorIS0_IdlESaIS3_EEESt10_Select1stIS6_ESt4lessIlESaIS6_EE8_M_beginEv = comdat any

$_ZNKSt8_Rb_treeIlSt4pairIKlSt6vectorIS0_IdlESaIS3_EEESt10_Select1stIS6_ESt4lessIlESaIS6_EE6_M_endEv = comdat any

$_ZNSt8_Rb_treeIlSt4pairIKlSt6vectorIS0_IdlESaIS3_EEESt10_Select1stIS6_ESt4lessIlESaIS6_EE7_S_leftEPKSt18_Rb_tree_node_base = comdat any

$_ZNSt8_Rb_treeIlSt4pairIKlSt6vectorIS0_IdlESaIS3_EEESt10_Select1stIS6_ESt4lessIlESaIS6_EE8_S_rightEPKSt18_Rb_tree_node_base = comdat any

$_ZNSt23_Rb_tree_const_iteratorISt4pairIKlSt6vectorIS0_IdlESaIS3_EEEEC2EPKSt18_Rb_tree_node_base = comdat any

$_ZN9__gnu_cxx14__alloc_traitsISaISt4pairIdlEEE17_S_select_on_copyERKS3_ = comdat any

$_ZNSt12_Vector_baseISt4pairIdlESaIS1_EEC2EjRKS2_ = comdat any

$_ZNSaISt4pairIdlEED2Ev = comdat any

$_ZSt22__uninitialized_copy_aIN9__gnu_cxx17__normal_iteratorIPKSt4pairIdlESt6vectorIS3_SaIS3_EEEEPS3_S3_ET0_T_SC_SB_RSaIT1_E = comdat any

$_ZNKSt6vectorISt4pairIdlESaIS1_EE5beginEv = comdat any

$_ZNKSt6vectorISt4pairIdlESaIS1_EE3endEv = comdat any

$_ZNSt16allocator_traitsISaISt4pairIdlEEE37select_on_container_copy_constructionERKS2_ = comdat any

$_ZNSaISt4pairIdlEEC2ERKS1_ = comdat any

$_ZN9__gnu_cxx13new_allocatorISt4pairIdlEEC2ERKS3_ = comdat any

$_ZNSt12_Vector_baseISt4pairIdlESaIS1_EE12_Vector_implC2ERKS2_ = comdat any

$_ZNSt12_Vector_baseISt4pairIdlESaIS1_EE17_M_create_storageEj = comdat any

$_ZSt18uninitialized_copyIN9__gnu_cxx17__normal_iteratorIPKSt4pairIdlESt6vectorIS3_SaIS3_EEEEPS3_ET0_T_SC_SB_ = comdat any

$_ZNSt20__uninitialized_copyILb0EE13__uninit_copyIN9__gnu_cxx17__normal_iteratorIPKSt4pairIdlESt6vectorIS5_SaIS5_EEEEPS5_EET0_T_SE_SD_ = comdat any

$_ZN9__gnu_cxxneIPKSt4pairIdlESt6vectorIS2_SaIS2_EEEEbRKNS_17__normal_iteratorIT_T0_EESD_ = comdat any

$_ZSt10_ConstructISt4pairIdlEJRKS1_EEvPT_DpOT0_ = comdat any

$_ZNK9__gnu_cxx17__normal_iteratorIPKSt4pairIdlESt6vectorIS2_SaIS2_EEEdeEv = comdat any

$_ZN9__gnu_cxx17__normal_iteratorIPKSt4pairIdlESt6vectorIS2_SaIS2_EEEppEv = comdat any

$_ZNK9__gnu_cxx17__normal_iteratorIPKSt4pairIdlESt6vectorIS2_SaIS2_EEE4baseEv = comdat any

$_ZN9__gnu_cxx17__normal_iteratorIPKSt4pairIdlESt6vectorIS2_SaIS2_EEEC2ERKS4_ = comdat any

$_ZNKSt8_Rb_treeIlSt4pairIKlSt6vectorIS0_IdlESaIS3_EEESt10_Select1stIS6_ESt4lessIlESaIS6_EE4findERS1_ = comdat any

$_ZNKSt8_Rb_treeIlSt4pairIKlSt6vectorIS0_IdlESaIS3_EEESt10_Select1stIS6_ESt4lessIlESaIS6_EE3endEv = comdat any

$_ZNSt8_Rb_treeIlSt4pairIKlSt6vectorIS0_IdlESaIS3_EEESt10_Select1stIS6_ESt4lessIlESaIS6_EE5clearEv = comdat any

$_ZNSt8_Rb_treeIlSt4pairIKlSt6vectorIS0_IdlESaIS3_EEESt10_Select1stIS6_ESt4lessIlESaIS6_EE8_M_eraseEPSt13_Rb_tree_nodeIS6_E = comdat any

@_ZN5Graph8instanceE = global %class.Graph* null, align 4
@_ZN5Graph11uid_counterE = global i32 1, align 4
@_ZStL19piecewise_construct = internal constant %"struct.std::piecewise_construct_t" undef, align 1
@.str = private unnamed_addr constant [26 x i8] c"vector::_M_realloc_insert\00", align 1
@.str.1 = private unnamed_addr constant [8 x i8] c"map::at\00", align 1

@_ZN5GraphC1Ev = alias %class.Graph* (%class.Graph*), %class.Graph* (%class.Graph*)* @_ZN5GraphC2Ev

; Function Attrs: nounwind
define i32 @_ZN5Graph3uidEv() #0 align 2 !dbg !2499 !xidane.fname !2500 !xidane.function_declaration_type !2501 !xidane.function_declaration_filename !2502 {
  %1 = load i32, i32* @_ZN5Graph11uid_counterE, align 4, !dbg !2503
  %2 = add nsw i32 %1, 1, !dbg !2503
  store i32 %2, i32* @_ZN5Graph11uid_counterE, align 4, !dbg !2503
  ret i32 %1, !dbg !2504
}

define %class.Graph* @_ZN5Graph11getInstanceEv() #1 align 2 personality i8* bitcast (i32 (...)* @__gxx_personality_v0 to i8*) !dbg !2505 !xidane.fname !2506 !xidane.function_declaration_type !2507 !xidane.function_declaration_filename !2502 {
  %1 = alloca i8*
  %2 = alloca i32
  %3 = load %class.Graph*, %class.Graph** @_ZN5Graph8instanceE, align 4, !dbg !2508
  %4 = icmp eq %class.Graph* %3, null, !dbg !2510
  br i1 %4, label %5, label %14, !dbg !2511

; <label>:5:                                      ; preds = %0
  %6 = call i8* @_Znwj(i32 24) #13, !dbg !2512
  %7 = bitcast i8* %6 to %class.Graph*, !dbg !2512
  %8 = invoke %class.Graph* @_ZN5GraphC1Ev(%class.Graph* %7)
          to label %9 unwind label %10, !dbg !2514

; <label>:9:                                      ; preds = %5
  store %class.Graph* %7, %class.Graph** @_ZN5Graph8instanceE, align 4, !dbg !2515
  br label %14, !dbg !2517

; <label>:10:                                     ; preds = %5
  %11 = landingpad { i8*, i32 }
          cleanup, !dbg !2518
  %12 = extractvalue { i8*, i32 } %11, 0, !dbg !2518
  store i8* %12, i8** %1, align 4, !dbg !2518
  %13 = extractvalue { i8*, i32 } %11, 1, !dbg !2518
  store i32 %13, i32* %2, align 4, !dbg !2518
  call void @_ZdlPv(i8* %6) #14, !dbg !2519
  br label %16, !dbg !2519

; <label>:14:                                     ; preds = %9, %0
  %15 = load %class.Graph*, %class.Graph** @_ZN5Graph8instanceE, align 4, !dbg !2521
  ret %class.Graph* %15, !dbg !2522

; <label>:16:                                     ; preds = %10
  %17 = load i8*, i8** %1, align 4, !dbg !2523
  %18 = load i32, i32* %2, align 4, !dbg !2523
  %19 = insertvalue { i8*, i32 } undef, i8* %17, 0, !dbg !2523
  %20 = insertvalue { i8*, i32 } %19, i32 %18, 1, !dbg !2523
  resume { i8*, i32 } %20, !dbg !2523
}

; Function Attrs: nobuiltin
declare !xidane.fname !2525 !xidane.function_declaration_type !2526 noalias i8* @_Znwj(i32) #2

declare i32 @__gxx_personality_v0(...)

; Function Attrs: nobuiltin nounwind
declare !xidane.fname !2527 !xidane.function_declaration_type !2528 void @_ZdlPv(i8*) #3

; Function Attrs: nounwind
define %class.Graph* @_ZN5GraphC2Ev(%class.Graph* returned) unnamed_addr #0 align 2 !dbg !2529 !xidane.fname !2530 !xidane.function_declaration_type !2531 !xidane.function_declaration_filename !2502 {
  %2 = alloca %class.Graph*, align 4
  store %class.Graph* %0, %class.Graph** %2, align 4
  call void @llvm.dbg.declare(metadata %class.Graph** %2, metadata !2532, metadata !2533), !dbg !2534
  %3 = load %class.Graph*, %class.Graph** %2, align 4
  %4 = getelementptr inbounds %class.Graph, %class.Graph* %3, i32 0, i32 0, !dbg !2535
  %5 = call %"class.std::map"* @_ZNSt3mapIlSt6vectorISt4pairIdlESaIS2_EESt4lessIlESaIS1_IKlS4_EEEC2Ev(%"class.std::map"* %4) #15, !dbg !2535
  ret %class.Graph* %3, !dbg !2536
}

; Function Attrs: nounwind readnone
declare void @llvm.dbg.declare(metadata, metadata, metadata) #4

; Function Attrs: nounwind
define linkonce_odr %"class.std::map"* @_ZNSt3mapIlSt6vectorISt4pairIdlESaIS2_EESt4lessIlESaIS1_IKlS4_EEEC2Ev(%"class.std::map"* returned) unnamed_addr #0 comdat align 2 !dbg !2537 !xidane.fname !2538 !xidane.function_declaration_type !2531 !xidane.function_declaration_filename !2539 {
  %2 = alloca %"class.std::map"*, align 4
  store %"class.std::map"* %0, %"class.std::map"** %2, align 4
  call void @llvm.dbg.declare(metadata %"class.std::map"** %2, metadata !2540, metadata !2533), !dbg !2542
  %3 = load %"class.std::map"*, %"class.std::map"** %2, align 4
  %4 = getelementptr inbounds %"class.std::map", %"class.std::map"* %3, i32 0, i32 0, !dbg !2543
  %5 = call %"class.std::_Rb_tree"* @_ZNSt8_Rb_treeIlSt4pairIKlSt6vectorIS0_IdlESaIS3_EEESt10_Select1stIS6_ESt4lessIlESaIS6_EEC2Ev(%"class.std::_Rb_tree"* %4) #15, !dbg !2543
  ret %"class.std::map"* %3, !dbg !2543
}

define void @_ZN5Graph7connectERKlRKSt4pairIdlE(%class.Graph*, i32* dereferenceable(4), %"struct.std::pair"* nonnull) #1 align 2 !dbg !2544 !xidane.fname !2545 !xidane.function_declaration_type !2546 !xidane.function_declaration_filename !2502 {
  %4 = alloca %class.Graph*, align 4
  %5 = alloca i32*, align 4
  %6 = alloca %"struct.std::pair"*, align 4
  store %class.Graph* %0, %class.Graph** %4, align 4
  call void @llvm.dbg.declare(metadata %class.Graph** %4, metadata !2547, metadata !2533), !dbg !2548
  store i32* %1, i32** %5, align 4
  call void @llvm.dbg.declare(metadata i32** %5, metadata !2549, metadata !2533), !dbg !2550
  store %"struct.std::pair"* %2, %"struct.std::pair"** %6, align 4
  call void @llvm.dbg.declare(metadata %"struct.std::pair"** %6, metadata !2551, metadata !2533), !dbg !2552
  %7 = load %class.Graph*, %class.Graph** %4, align 4
  %8 = getelementptr inbounds %class.Graph, %class.Graph* %7, i32 0, i32 0, !dbg !2553
  %9 = load i32*, i32** %5, align 4, !dbg !2554
  %10 = call dereferenceable(12) %"class.std::vector"* @_ZNSt3mapIlSt6vectorISt4pairIdlESaIS2_EESt4lessIlESaIS1_IKlS4_EEEixERS7_(%"class.std::map"* %8, i32* dereferenceable(4) %9), !dbg !2553
  %11 = load %"struct.std::pair"*, %"struct.std::pair"** %6, align 4, !dbg !2555
  call void @_ZNSt6vectorISt4pairIdlESaIS1_EE9push_backERKS1_(%"class.std::vector"* %10, %"struct.std::pair"* nonnull %11), !dbg !2556
  ret void, !dbg !2558
}

define linkonce_odr dereferenceable(12) %"class.std::vector"* @_ZNSt3mapIlSt6vectorISt4pairIdlESaIS2_EESt4lessIlESaIS1_IKlS4_EEEixERS7_(%"class.std::map"*, i32* dereferenceable(4)) #1 comdat align 2 !dbg !2559 !xidane.fname !2560 !xidane.function_declaration_type !2561 !xidane.function_declaration_filename !2539 {
  %3 = alloca %"class.std::map"*, align 4
  %4 = alloca i32*, align 4
  %5 = alloca %"struct.std::_Rb_tree_iterator", align 4
  %6 = alloca %"struct.std::_Rb_tree_iterator", align 4
  %7 = alloca %"struct.std::less", align 1
  %8 = alloca %"struct.std::_Rb_tree_iterator", align 4
  %9 = alloca %"struct.std::_Rb_tree_const_iterator", align 4
  %10 = alloca %"class.std::tuple", align 4
  %11 = alloca %"class.std::tuple.4", align 1
  store %"class.std::map"* %0, %"class.std::map"** %3, align 4
  call void @llvm.dbg.declare(metadata %"class.std::map"** %3, metadata !2562, metadata !2533), !dbg !2563
  store i32* %1, i32** %4, align 4
  call void @llvm.dbg.declare(metadata i32** %4, metadata !2564, metadata !2533), !dbg !2565
  %12 = load %"class.std::map"*, %"class.std::map"** %3, align 4
  call void @llvm.dbg.declare(metadata %"struct.std::_Rb_tree_iterator"* %5, metadata !2566, metadata !2533), !dbg !2567
  %13 = load i32*, i32** %4, align 4, !dbg !2568
  %14 = call i32 @_ZNSt3mapIlSt6vectorISt4pairIdlESaIS2_EESt4lessIlESaIS1_IKlS4_EEE11lower_boundERS7_(%"class.std::map"* %12, i32* dereferenceable(4) %13), !dbg !2569
  %15 = getelementptr inbounds %"struct.std::_Rb_tree_iterator", %"struct.std::_Rb_tree_iterator"* %5, i32 0, i32 0, !dbg !2569
  %16 = inttoptr i32 %14 to %"struct.std::_Rb_tree_node_base"*, !dbg !2569
  store %"struct.std::_Rb_tree_node_base"* %16, %"struct.std::_Rb_tree_node_base"** %15, align 4, !dbg !2569
  %17 = call i32 @_ZNSt3mapIlSt6vectorISt4pairIdlESaIS2_EESt4lessIlESaIS1_IKlS4_EEE3endEv(%"class.std::map"* %12) #15, !dbg !2570
  %18 = getelementptr inbounds %"struct.std::_Rb_tree_iterator", %"struct.std::_Rb_tree_iterator"* %6, i32 0, i32 0, !dbg !2570
  %19 = inttoptr i32 %17 to %"struct.std::_Rb_tree_node_base"*, !dbg !2570
  store %"struct.std::_Rb_tree_node_base"* %19, %"struct.std::_Rb_tree_node_base"** %18, align 4, !dbg !2570
  %20 = call zeroext i1 @_ZNKSt17_Rb_tree_iteratorISt4pairIKlSt6vectorIS0_IdlESaIS3_EEEEeqERKS7_(%"struct.std::_Rb_tree_iterator"* %5, %"struct.std::_Rb_tree_iterator"* dereferenceable(4) %6) #15, !dbg !2572
  br i1 %20, label %26, label %21, !dbg !2574

; <label>:21:                                     ; preds = %2
  call void @_ZNKSt3mapIlSt6vectorISt4pairIdlESaIS2_EESt4lessIlESaIS1_IKlS4_EEE8key_compEv(%"class.std::map"* %12), !dbg !2575
  %22 = load i32*, i32** %4, align 4, !dbg !2577
  %23 = call dereferenceable(16) %"struct.std::pair.3"* @_ZNKSt17_Rb_tree_iteratorISt4pairIKlSt6vectorIS0_IdlESaIS3_EEEEdeEv(%"struct.std::_Rb_tree_iterator"* %5) #15, !dbg !2578
  %24 = getelementptr inbounds %"struct.std::pair.3", %"struct.std::pair.3"* %23, i32 0, i32 0, !dbg !2580
  %25 = call zeroext i1 @_ZNKSt4lessIlEclERKlS2_(%"struct.std::less"* %7, i32* dereferenceable(4) %22, i32* dereferenceable(4) %24), !dbg !2581
  br label %26, !dbg !2583

; <label>:26:                                     ; preds = %21, %2
  %27 = phi i1 [ true, %2 ], [ %25, %21 ]
  br i1 %27, label %28, label %41, !dbg !2584

; <label>:28:                                     ; preds = %26
  %29 = getelementptr inbounds %"class.std::map", %"class.std::map"* %12, i32 0, i32 0, !dbg !2586
  %30 = call %"struct.std::_Rb_tree_const_iterator"* @_ZNSt23_Rb_tree_const_iteratorISt4pairIKlSt6vectorIS0_IdlESaIS3_EEEEC2ERKSt17_Rb_tree_iteratorIS6_E(%"struct.std::_Rb_tree_const_iterator"* %9, %"struct.std::_Rb_tree_iterator"* dereferenceable(4) %5) #15, !dbg !2587
  %31 = load i32*, i32** %4, align 4, !dbg !2588
  %32 = call %"class.std::tuple"* @_ZNSt5tupleIJRKlEEC2IvLb1EEES1_(%"class.std::tuple"* %10, i32* dereferenceable(4) %31), !dbg !2589
  %33 = getelementptr inbounds %"struct.std::_Rb_tree_const_iterator", %"struct.std::_Rb_tree_const_iterator"* %9, i32 0, i32 0, !dbg !2590
  %34 = bitcast %"struct.std::_Rb_tree_node_base"** %33 to [1 x i32]*, !dbg !2590
  %35 = load [1 x i32], [1 x i32]* %34, align 4, !dbg !2590
  %36 = call i32 @_ZNSt8_Rb_treeIlSt4pairIKlSt6vectorIS0_IdlESaIS3_EEESt10_Select1stIS6_ESt4lessIlESaIS6_EE22_M_emplace_hint_uniqueIJRKSt21piecewise_construct_tSt5tupleIJRS1_EESH_IJEEEEESt17_Rb_tree_iteratorIS6_ESt23_Rb_tree_const_iteratorIS6_EDpOT_(%"class.std::_Rb_tree"* %29, [1 x i32] %35, %"struct.std::piecewise_construct_t"* dereferenceable(1) @_ZStL19piecewise_construct, %"class.std::tuple"* dereferenceable(4) %10, %"class.std::tuple.4"* dereferenceable(1) %11), !dbg !2591
  %37 = getelementptr inbounds %"struct.std::_Rb_tree_iterator", %"struct.std::_Rb_tree_iterator"* %8, i32 0, i32 0, !dbg !2590
  %38 = inttoptr i32 %36 to %"struct.std::_Rb_tree_node_base"*, !dbg !2590
  store %"struct.std::_Rb_tree_node_base"* %38, %"struct.std::_Rb_tree_node_base"** %37, align 4, !dbg !2590
  %39 = bitcast %"struct.std::_Rb_tree_iterator"* %5 to i8*, !dbg !2592
  %40 = bitcast %"struct.std::_Rb_tree_iterator"* %8 to i8*, !dbg !2592
  call void @llvm.memcpy.p0i8.p0i8.i32(i8* %39, i8* %40, i32 4, i32 4, i1 false), !dbg !2593
  br label %41, !dbg !2595

; <label>:41:                                     ; preds = %28, %26
  %42 = call dereferenceable(16) %"struct.std::pair.3"* @_ZNKSt17_Rb_tree_iteratorISt4pairIKlSt6vectorIS0_IdlESaIS3_EEEEdeEv(%"struct.std::_Rb_tree_iterator"* %5) #15, !dbg !2596
  %43 = getelementptr inbounds %"struct.std::pair.3", %"struct.std::pair.3"* %42, i32 0, i32 1, !dbg !2597
  ret %"class.std::vector"* %43, !dbg !2598
}

define linkonce_odr void @_ZNSt6vectorISt4pairIdlESaIS1_EE9push_backERKS1_(%"class.std::vector"*, %"struct.std::pair"* nonnull) #1 comdat align 2 !dbg !2599 !xidane.fname !2600 !xidane.function_declaration_type !2601 !xidane.function_declaration_filename !2602 {
  %3 = alloca %"class.std::vector"*, align 4
  %4 = alloca %"struct.std::pair"*, align 4
  %5 = alloca %"class.__gnu_cxx::__normal_iterator", align 4
  store %"class.std::vector"* %0, %"class.std::vector"** %3, align 4
  call void @llvm.dbg.declare(metadata %"class.std::vector"** %3, metadata !2603, metadata !2533), !dbg !2605
  store %"struct.std::pair"* %1, %"struct.std::pair"** %4, align 4
  call void @llvm.dbg.declare(metadata %"struct.std::pair"** %4, metadata !2606, metadata !2533), !dbg !2607
  %6 = load %"class.std::vector"*, %"class.std::vector"** %3, align 4
  %7 = bitcast %"class.std::vector"* %6 to %"struct.std::_Vector_base"*, !dbg !2608
  %8 = getelementptr inbounds %"struct.std::_Vector_base", %"struct.std::_Vector_base"* %7, i32 0, i32 0, !dbg !2608
  %9 = getelementptr inbounds %"struct.std::_Vector_base<std::pair<double, long>, std::allocator<std::pair<double, long> > >::_Vector_impl", %"struct.std::_Vector_base<std::pair<double, long>, std::allocator<std::pair<double, long> > >::_Vector_impl"* %8, i32 0, i32 1, !dbg !2610
  %10 = load %"struct.std::pair"*, %"struct.std::pair"** %9, align 4, !dbg !2610
  %11 = bitcast %"class.std::vector"* %6 to %"struct.std::_Vector_base"*, !dbg !2611
  %12 = getelementptr inbounds %"struct.std::_Vector_base", %"struct.std::_Vector_base"* %11, i32 0, i32 0, !dbg !2611
  %13 = getelementptr inbounds %"struct.std::_Vector_base<std::pair<double, long>, std::allocator<std::pair<double, long> > >::_Vector_impl", %"struct.std::_Vector_base<std::pair<double, long>, std::allocator<std::pair<double, long> > >::_Vector_impl"* %12, i32 0, i32 2, !dbg !2612
  %14 = load %"struct.std::pair"*, %"struct.std::pair"** %13, align 4, !dbg !2612
  %15 = icmp ne %"struct.std::pair"* %10, %14, !dbg !2613
  br i1 %15, label %16, label %30, !dbg !2614

; <label>:16:                                     ; preds = %2
  %17 = bitcast %"class.std::vector"* %6 to %"struct.std::_Vector_base"*, !dbg !2615
  %18 = getelementptr inbounds %"struct.std::_Vector_base", %"struct.std::_Vector_base"* %17, i32 0, i32 0, !dbg !2615
  %19 = bitcast %"struct.std::_Vector_base<std::pair<double, long>, std::allocator<std::pair<double, long> > >::_Vector_impl"* %18 to %"class.std::allocator.0"*, !dbg !2617
  %20 = bitcast %"class.std::vector"* %6 to %"struct.std::_Vector_base"*, !dbg !2618
  %21 = getelementptr inbounds %"struct.std::_Vector_base", %"struct.std::_Vector_base"* %20, i32 0, i32 0, !dbg !2618
  %22 = getelementptr inbounds %"struct.std::_Vector_base<std::pair<double, long>, std::allocator<std::pair<double, long> > >::_Vector_impl", %"struct.std::_Vector_base<std::pair<double, long>, std::allocator<std::pair<double, long> > >::_Vector_impl"* %21, i32 0, i32 1, !dbg !2619
  %23 = load %"struct.std::pair"*, %"struct.std::pair"** %22, align 4, !dbg !2619
  %24 = load %"struct.std::pair"*, %"struct.std::pair"** %4, align 4, !dbg !2620
  call void @_ZNSt16allocator_traitsISaISt4pairIdlEEE9constructIS1_JRKS1_EEEvRS2_PT_DpOT0_(%"class.std::allocator.0"* dereferenceable(1) %19, %"struct.std::pair"* %23, %"struct.std::pair"* dereferenceable(16) %24), !dbg !2621
  %25 = bitcast %"class.std::vector"* %6 to %"struct.std::_Vector_base"*, !dbg !2622
  %26 = getelementptr inbounds %"struct.std::_Vector_base", %"struct.std::_Vector_base"* %25, i32 0, i32 0, !dbg !2622
  %27 = getelementptr inbounds %"struct.std::_Vector_base<std::pair<double, long>, std::allocator<std::pair<double, long> > >::_Vector_impl", %"struct.std::_Vector_base<std::pair<double, long>, std::allocator<std::pair<double, long> > >::_Vector_impl"* %26, i32 0, i32 1, !dbg !2623
  %28 = load %"struct.std::pair"*, %"struct.std::pair"** %27, align 4, !dbg !2624
  %29 = getelementptr inbounds %"struct.std::pair", %"struct.std::pair"* %28, i32 1, !dbg !2624
  store %"struct.std::pair"* %29, %"struct.std::pair"** %27, align 4, !dbg !2624
  br label %38, !dbg !2625

; <label>:30:                                     ; preds = %2
  %31 = call i32 @_ZNSt6vectorISt4pairIdlESaIS1_EE3endEv(%"class.std::vector"* %6) #15, !dbg !2626
  %32 = getelementptr inbounds %"class.__gnu_cxx::__normal_iterator", %"class.__gnu_cxx::__normal_iterator"* %5, i32 0, i32 0, !dbg !2626
  %33 = inttoptr i32 %31 to %"struct.std::pair"*, !dbg !2626
  store %"struct.std::pair"* %33, %"struct.std::pair"** %32, align 4, !dbg !2626
  %34 = load %"struct.std::pair"*, %"struct.std::pair"** %4, align 4, !dbg !2627
  %35 = getelementptr inbounds %"class.__gnu_cxx::__normal_iterator", %"class.__gnu_cxx::__normal_iterator"* %5, i32 0, i32 0, !dbg !2628
  %36 = bitcast %"struct.std::pair"** %35 to [1 x i32]*, !dbg !2628
  %37 = load [1 x i32], [1 x i32]* %36, align 4, !dbg !2628
  call void @_ZNSt6vectorISt4pairIdlESaIS1_EE17_M_realloc_insertIJRKS1_EEEvN9__gnu_cxx17__normal_iteratorIPS1_S3_EEDpOT_(%"class.std::vector"* %6, [1 x i32] %37, %"struct.std::pair"* dereferenceable(16) %34), !dbg !2629
  br label %38

; <label>:38:                                     ; preds = %30, %16
  ret void, !dbg !2631
}

define void @_ZNK5Graph3getERKl(%"class.std::vector"* noalias sret, %class.Graph*, i32* dereferenceable(4)) #1 align 2 !dbg !2632 !xidane.fname !2633 !xidane.function_declaration_type !2634 !xidane.function_declaration_filename !2502 {
  %4 = alloca %class.Graph*, align 4
  %5 = alloca i32*, align 4
  store %class.Graph* %1, %class.Graph** %4, align 4
  call void @llvm.dbg.declare(metadata %class.Graph** %4, metadata !2635, metadata !2533), !dbg !2637
  store i32* %2, i32** %5, align 4
  call void @llvm.dbg.declare(metadata i32** %5, metadata !2638, metadata !2533), !dbg !2639
  %6 = load %class.Graph*, %class.Graph** %4, align 4
  %7 = getelementptr inbounds %class.Graph, %class.Graph* %6, i32 0, i32 0, !dbg !2640
  %8 = load i32*, i32** %5, align 4, !dbg !2641
  %9 = call dereferenceable(12) %"class.std::vector"* @_ZNKSt3mapIlSt6vectorISt4pairIdlESaIS2_EESt4lessIlESaIS1_IKlS4_EEE2atERS7_(%"class.std::map"* %7, i32* dereferenceable(4) %8), !dbg !2642
  %10 = call %"class.std::vector"* @_ZNSt6vectorISt4pairIdlESaIS1_EEC2ERKS3_(%"class.std::vector"* %0, %"class.std::vector"* dereferenceable(12) %9), !dbg !2643
  ret void, !dbg !2645
}

define linkonce_odr dereferenceable(12) %"class.std::vector"* @_ZNKSt3mapIlSt6vectorISt4pairIdlESaIS2_EESt4lessIlESaIS1_IKlS4_EEE2atERS7_(%"class.std::map"*, i32* dereferenceable(4)) #1 comdat align 2 !dbg !2646 !xidane.fname !2647 !xidane.function_declaration_type !2648 !xidane.function_declaration_filename !2539 {
  %3 = alloca %"class.std::map"*, align 4
  %4 = alloca i32*, align 4
  %5 = alloca %"struct.std::_Rb_tree_const_iterator", align 4
  %6 = alloca %"struct.std::_Rb_tree_const_iterator", align 4
  %7 = alloca %"struct.std::less", align 1
  store %"class.std::map"* %0, %"class.std::map"** %3, align 4
  call void @llvm.dbg.declare(metadata %"class.std::map"** %3, metadata !2649, metadata !2533), !dbg !2651
  store i32* %1, i32** %4, align 4
  call void @llvm.dbg.declare(metadata i32** %4, metadata !2652, metadata !2533), !dbg !2653
  %8 = load %"class.std::map"*, %"class.std::map"** %3, align 4
  call void @llvm.dbg.declare(metadata %"struct.std::_Rb_tree_const_iterator"* %5, metadata !2654, metadata !2533), !dbg !2655
  %9 = load i32*, i32** %4, align 4, !dbg !2656
  %10 = call i32 @_ZNKSt3mapIlSt6vectorISt4pairIdlESaIS2_EESt4lessIlESaIS1_IKlS4_EEE11lower_boundERS7_(%"class.std::map"* %8, i32* dereferenceable(4) %9), !dbg !2657
  %11 = getelementptr inbounds %"struct.std::_Rb_tree_const_iterator", %"struct.std::_Rb_tree_const_iterator"* %5, i32 0, i32 0, !dbg !2657
  %12 = inttoptr i32 %10 to %"struct.std::_Rb_tree_node_base"*, !dbg !2657
  store %"struct.std::_Rb_tree_node_base"* %12, %"struct.std::_Rb_tree_node_base"** %11, align 4, !dbg !2657
  %13 = call i32 @_ZNKSt3mapIlSt6vectorISt4pairIdlESaIS2_EESt4lessIlESaIS1_IKlS4_EEE3endEv(%"class.std::map"* %8) #15, !dbg !2658
  %14 = getelementptr inbounds %"struct.std::_Rb_tree_const_iterator", %"struct.std::_Rb_tree_const_iterator"* %6, i32 0, i32 0, !dbg !2658
  %15 = inttoptr i32 %13 to %"struct.std::_Rb_tree_node_base"*, !dbg !2658
  store %"struct.std::_Rb_tree_node_base"* %15, %"struct.std::_Rb_tree_node_base"** %14, align 4, !dbg !2658
  %16 = call zeroext i1 @_ZNKSt23_Rb_tree_const_iteratorISt4pairIKlSt6vectorIS0_IdlESaIS3_EEEEeqERKS7_(%"struct.std::_Rb_tree_const_iterator"* %5, %"struct.std::_Rb_tree_const_iterator"* dereferenceable(4) %6) #15, !dbg !2660
  br i1 %16, label %22, label %17, !dbg !2662

; <label>:17:                                     ; preds = %2
  call void @_ZNKSt3mapIlSt6vectorISt4pairIdlESaIS2_EESt4lessIlESaIS1_IKlS4_EEE8key_compEv(%"class.std::map"* %8), !dbg !2663
  %18 = load i32*, i32** %4, align 4, !dbg !2665
  %19 = call dereferenceable(16) %"struct.std::pair.3"* @_ZNKSt23_Rb_tree_const_iteratorISt4pairIKlSt6vectorIS0_IdlESaIS3_EEEEdeEv(%"struct.std::_Rb_tree_const_iterator"* %5) #15, !dbg !2666
  %20 = getelementptr inbounds %"struct.std::pair.3", %"struct.std::pair.3"* %19, i32 0, i32 0, !dbg !2668
  %21 = call zeroext i1 @_ZNKSt4lessIlEclERKlS2_(%"struct.std::less"* %7, i32* dereferenceable(4) %18, i32* dereferenceable(4) %20), !dbg !2669
  br label %22, !dbg !2671

; <label>:22:                                     ; preds = %17, %2
  %23 = phi i1 [ true, %2 ], [ %21, %17 ]
  br i1 %23, label %24, label %25, !dbg !2672

; <label>:24:                                     ; preds = %22
  call void @_ZSt20__throw_out_of_rangePKc(i8* getelementptr inbounds ([8 x i8], [8 x i8]* @.str.1, i32 0, i32 0)) #16, !dbg !2674
  unreachable, !dbg !2674

; <label>:25:                                     ; preds = %22
  %26 = call dereferenceable(16) %"struct.std::pair.3"* @_ZNKSt23_Rb_tree_const_iteratorISt4pairIKlSt6vectorIS0_IdlESaIS3_EEEEdeEv(%"struct.std::_Rb_tree_const_iterator"* %5) #15, !dbg !2675
  %27 = getelementptr inbounds %"struct.std::pair.3", %"struct.std::pair.3"* %26, i32 0, i32 1, !dbg !2676
  ret %"class.std::vector"* %27, !dbg !2677
}

define linkonce_odr %"class.std::vector"* @_ZNSt6vectorISt4pairIdlESaIS1_EEC2ERKS3_(%"class.std::vector"* returned, %"class.std::vector"* dereferenceable(12)) unnamed_addr #1 comdat align 2 personality i8* bitcast (i32 (...)* @__gxx_personality_v0 to i8*) !dbg !2678 !xidane.fname !2679 !xidane.function_declaration_type !2680 !xidane.function_declaration_filename !2602 {
  %3 = alloca %"class.std::vector"*, align 4
  %4 = alloca %"class.std::vector"*, align 4
  %5 = alloca %"class.std::allocator.0", align 1
  %6 = alloca i8*
  %7 = alloca i32
  %8 = alloca %"class.__gnu_cxx::__normal_iterator.7", align 4
  %9 = alloca %"class.__gnu_cxx::__normal_iterator.7", align 4
  store %"class.std::vector"* %0, %"class.std::vector"** %3, align 4
  call void @llvm.dbg.declare(metadata %"class.std::vector"** %3, metadata !2681, metadata !2533), !dbg !2682
  store %"class.std::vector"* %1, %"class.std::vector"** %4, align 4
  call void @llvm.dbg.declare(metadata %"class.std::vector"** %4, metadata !2683, metadata !2533), !dbg !2684
  %10 = load %"class.std::vector"*, %"class.std::vector"** %3, align 4
  %11 = bitcast %"class.std::vector"* %10 to %"struct.std::_Vector_base"*, !dbg !2685
  %12 = load %"class.std::vector"*, %"class.std::vector"** %4, align 4, !dbg !2686
  %13 = call i32 @_ZNKSt6vectorISt4pairIdlESaIS1_EE4sizeEv(%"class.std::vector"* %12) #15, !dbg !2687
  %14 = load %"class.std::vector"*, %"class.std::vector"** %4, align 4, !dbg !2688
  %15 = bitcast %"class.std::vector"* %14 to %"struct.std::_Vector_base"*, !dbg !2688
  %16 = call dereferenceable(1) %"class.std::allocator.0"* @_ZNKSt12_Vector_baseISt4pairIdlESaIS1_EE19_M_get_Tp_allocatorEv(%"struct.std::_Vector_base"* %15) #15, !dbg !2689
  call void @_ZN9__gnu_cxx14__alloc_traitsISaISt4pairIdlEEE17_S_select_on_copyERKS3_(%"class.std::allocator.0"* sret %5, %"class.std::allocator.0"* dereferenceable(1) %16), !dbg !2690
  %17 = invoke %"struct.std::_Vector_base"* @_ZNSt12_Vector_baseISt4pairIdlESaIS1_EEC2EjRKS2_(%"struct.std::_Vector_base"* %11, i32 %13, %"class.std::allocator.0"* dereferenceable(1) %5)
          to label %18 unwind label %45, !dbg !2692

; <label>:18:                                     ; preds = %2
  %19 = call %"class.std::allocator.0"* @_ZNSaISt4pairIdlEED2Ev(%"class.std::allocator.0"* %5) #15, !dbg !2693
  %20 = load %"class.std::vector"*, %"class.std::vector"** %4, align 4, !dbg !2694
  %21 = call i32 @_ZNKSt6vectorISt4pairIdlESaIS1_EE5beginEv(%"class.std::vector"* %20) #15, !dbg !2696
  %22 = getelementptr inbounds %"class.__gnu_cxx::__normal_iterator.7", %"class.__gnu_cxx::__normal_iterator.7"* %8, i32 0, i32 0, !dbg !2696
  %23 = inttoptr i32 %21 to %"struct.std::pair"*, !dbg !2696
  store %"struct.std::pair"* %23, %"struct.std::pair"** %22, align 4, !dbg !2696
  %24 = load %"class.std::vector"*, %"class.std::vector"** %4, align 4, !dbg !2697
  %25 = call i32 @_ZNKSt6vectorISt4pairIdlESaIS1_EE3endEv(%"class.std::vector"* %24) #15, !dbg !2698
  %26 = getelementptr inbounds %"class.__gnu_cxx::__normal_iterator.7", %"class.__gnu_cxx::__normal_iterator.7"* %9, i32 0, i32 0, !dbg !2700
  %27 = inttoptr i32 %25 to %"struct.std::pair"*, !dbg !2700
  store %"struct.std::pair"* %27, %"struct.std::pair"** %26, align 4, !dbg !2700
  %28 = bitcast %"class.std::vector"* %10 to %"struct.std::_Vector_base"*, !dbg !2701
  %29 = getelementptr inbounds %"struct.std::_Vector_base", %"struct.std::_Vector_base"* %28, i32 0, i32 0, !dbg !2701
  %30 = getelementptr inbounds %"struct.std::_Vector_base<std::pair<double, long>, std::allocator<std::pair<double, long> > >::_Vector_impl", %"struct.std::_Vector_base<std::pair<double, long>, std::allocator<std::pair<double, long> > >::_Vector_impl"* %29, i32 0, i32 0, !dbg !2702
  %31 = load %"struct.std::pair"*, %"struct.std::pair"** %30, align 4, !dbg !2702
  %32 = bitcast %"class.std::vector"* %10 to %"struct.std::_Vector_base"*, !dbg !2703
  %33 = call dereferenceable(1) %"class.std::allocator.0"* @_ZNSt12_Vector_baseISt4pairIdlESaIS1_EE19_M_get_Tp_allocatorEv(%"struct.std::_Vector_base"* %32) #15, !dbg !2703
  %34 = getelementptr inbounds %"class.__gnu_cxx::__normal_iterator.7", %"class.__gnu_cxx::__normal_iterator.7"* %8, i32 0, i32 0, !dbg !2704
  %35 = bitcast %"struct.std::pair"** %34 to [1 x i32]*, !dbg !2704
  %36 = load [1 x i32], [1 x i32]* %35, align 4, !dbg !2704
  %37 = getelementptr inbounds %"class.__gnu_cxx::__normal_iterator.7", %"class.__gnu_cxx::__normal_iterator.7"* %9, i32 0, i32 0, !dbg !2704
  %38 = bitcast %"struct.std::pair"** %37 to [1 x i32]*, !dbg !2704
  %39 = load [1 x i32], [1 x i32]* %38, align 4, !dbg !2704
  %40 = invoke %"struct.std::pair"* @_ZSt22__uninitialized_copy_aIN9__gnu_cxx17__normal_iteratorIPKSt4pairIdlESt6vectorIS3_SaIS3_EEEEPS3_S3_ET0_T_SC_SB_RSaIT1_E([1 x i32] %36, [1 x i32] %39, %"struct.std::pair"* %31, %"class.std::allocator.0"* dereferenceable(1) %33)
          to label %41 unwind label %50, !dbg !2704

; <label>:41:                                     ; preds = %18
  %42 = bitcast %"class.std::vector"* %10 to %"struct.std::_Vector_base"*, !dbg !2705
  %43 = getelementptr inbounds %"struct.std::_Vector_base", %"struct.std::_Vector_base"* %42, i32 0, i32 0, !dbg !2705
  %44 = getelementptr inbounds %"struct.std::_Vector_base<std::pair<double, long>, std::allocator<std::pair<double, long> > >::_Vector_impl", %"struct.std::_Vector_base<std::pair<double, long>, std::allocator<std::pair<double, long> > >::_Vector_impl"* %43, i32 0, i32 1, !dbg !2706
  store %"struct.std::pair"* %40, %"struct.std::pair"** %44, align 4, !dbg !2707
  ret %"class.std::vector"* %10, !dbg !2708

; <label>:45:                                     ; preds = %2
  %46 = landingpad { i8*, i32 }
          cleanup, !dbg !2709
  %47 = extractvalue { i8*, i32 } %46, 0, !dbg !2709
  store i8* %47, i8** %6, align 4, !dbg !2709
  %48 = extractvalue { i8*, i32 } %46, 1, !dbg !2709
  store i32 %48, i32* %7, align 4, !dbg !2709
  %49 = call %"class.std::allocator.0"* @_ZNSaISt4pairIdlEED2Ev(%"class.std::allocator.0"* %5) #15, !dbg !2710
  br label %56, !dbg !2710

; <label>:50:                                     ; preds = %18
  %51 = landingpad { i8*, i32 }
          cleanup, !dbg !2712
  %52 = extractvalue { i8*, i32 } %51, 0, !dbg !2712
  store i8* %52, i8** %6, align 4, !dbg !2712
  %53 = extractvalue { i8*, i32 } %51, 1, !dbg !2712
  store i32 %53, i32* %7, align 4, !dbg !2712
  %54 = bitcast %"class.std::vector"* %10 to %"struct.std::_Vector_base"*, !dbg !2712
  %55 = call %"struct.std::_Vector_base"* @_ZNSt12_Vector_baseISt4pairIdlESaIS1_EED2Ev(%"struct.std::_Vector_base"* %54) #15, !dbg !2712
  br label %56, !dbg !2712

; <label>:56:                                     ; preds = %50, %45
  %57 = load i8*, i8** %6, align 4, !dbg !2714
  %58 = load i32, i32* %7, align 4, !dbg !2714
  %59 = insertvalue { i8*, i32 } undef, i8* %57, 0, !dbg !2714
  %60 = insertvalue { i8*, i32 } %59, i32 %58, 1, !dbg !2714
  resume { i8*, i32 } %60, !dbg !2714
}

define zeroext i1 @_ZNK5Graph3hasERKl(%class.Graph*, i32* dereferenceable(4)) #1 align 2 !dbg !2716 !xidane.fname !2717 !xidane.function_declaration_type !2718 !xidane.function_declaration_filename !2502 {
  %3 = alloca %class.Graph*, align 4
  %4 = alloca i32*, align 4
  %5 = alloca %"struct.std::_Rb_tree_const_iterator", align 4
  %6 = alloca %"struct.std::_Rb_tree_const_iterator", align 4
  store %class.Graph* %0, %class.Graph** %3, align 4
  call void @llvm.dbg.declare(metadata %class.Graph** %3, metadata !2719, metadata !2533), !dbg !2720
  store i32* %1, i32** %4, align 4
  call void @llvm.dbg.declare(metadata i32** %4, metadata !2721, metadata !2533), !dbg !2722
  %7 = load %class.Graph*, %class.Graph** %3, align 4
  %8 = getelementptr inbounds %class.Graph, %class.Graph* %7, i32 0, i32 0, !dbg !2723
  %9 = load i32*, i32** %4, align 4, !dbg !2724
  %10 = call i32 @_ZNKSt3mapIlSt6vectorISt4pairIdlESaIS2_EESt4lessIlESaIS1_IKlS4_EEE4findERS7_(%"class.std::map"* %8, i32* dereferenceable(4) %9), !dbg !2725
  %11 = getelementptr inbounds %"struct.std::_Rb_tree_const_iterator", %"struct.std::_Rb_tree_const_iterator"* %5, i32 0, i32 0, !dbg !2725
  %12 = inttoptr i32 %10 to %"struct.std::_Rb_tree_node_base"*, !dbg !2725
  store %"struct.std::_Rb_tree_node_base"* %12, %"struct.std::_Rb_tree_node_base"** %11, align 4, !dbg !2725
  %13 = getelementptr inbounds %class.Graph, %class.Graph* %7, i32 0, i32 0, !dbg !2726
  %14 = call i32 @_ZNKSt3mapIlSt6vectorISt4pairIdlESaIS2_EESt4lessIlESaIS1_IKlS4_EEE3endEv(%"class.std::map"* %13) #15, !dbg !2727
  %15 = getelementptr inbounds %"struct.std::_Rb_tree_const_iterator", %"struct.std::_Rb_tree_const_iterator"* %6, i32 0, i32 0, !dbg !2729
  %16 = inttoptr i32 %14 to %"struct.std::_Rb_tree_node_base"*, !dbg !2729
  store %"struct.std::_Rb_tree_node_base"* %16, %"struct.std::_Rb_tree_node_base"** %15, align 4, !dbg !2729
  %17 = call zeroext i1 @_ZNKSt23_Rb_tree_const_iteratorISt4pairIKlSt6vectorIS0_IdlESaIS3_EEEEneERKS7_(%"struct.std::_Rb_tree_const_iterator"* %5, %"struct.std::_Rb_tree_const_iterator"* dereferenceable(4) %6) #15, !dbg !2730
  ret i1 %17, !dbg !2732
}

define linkonce_odr i32 @_ZNKSt3mapIlSt6vectorISt4pairIdlESaIS2_EESt4lessIlESaIS1_IKlS4_EEE4findERS7_(%"class.std::map"*, i32* dereferenceable(4)) #1 comdat align 2 !dbg !2733 !xidane.fname !2734 !xidane.function_declaration_type !2735 !xidane.function_declaration_filename !2539 {
  %3 = alloca %"struct.std::_Rb_tree_const_iterator", align 4
  %4 = alloca %"class.std::map"*, align 4
  %5 = alloca i32*, align 4
  store %"class.std::map"* %0, %"class.std::map"** %4, align 4
  call void @llvm.dbg.declare(metadata %"class.std::map"** %4, metadata !2736, metadata !2533), !dbg !2737
  store i32* %1, i32** %5, align 4
  call void @llvm.dbg.declare(metadata i32** %5, metadata !2738, metadata !2533), !dbg !2739
  %6 = load %"class.std::map"*, %"class.std::map"** %4, align 4
  %7 = getelementptr inbounds %"class.std::map", %"class.std::map"* %6, i32 0, i32 0, !dbg !2740
  %8 = load i32*, i32** %5, align 4, !dbg !2741
  %9 = call i32 @_ZNKSt8_Rb_treeIlSt4pairIKlSt6vectorIS0_IdlESaIS3_EEESt10_Select1stIS6_ESt4lessIlESaIS6_EE4findERS1_(%"class.std::_Rb_tree"* %7, i32* dereferenceable(4) %8), !dbg !2742
  %10 = getelementptr inbounds %"struct.std::_Rb_tree_const_iterator", %"struct.std::_Rb_tree_const_iterator"* %3, i32 0, i32 0, !dbg !2742
  %11 = inttoptr i32 %9 to %"struct.std::_Rb_tree_node_base"*, !dbg !2742
  store %"struct.std::_Rb_tree_node_base"* %11, %"struct.std::_Rb_tree_node_base"** %10, align 4, !dbg !2742
  %12 = getelementptr inbounds %"struct.std::_Rb_tree_const_iterator", %"struct.std::_Rb_tree_const_iterator"* %3, i32 0, i32 0, !dbg !2743
  %13 = load %"struct.std::_Rb_tree_node_base"*, %"struct.std::_Rb_tree_node_base"** %12, align 4, !dbg !2743
  %14 = ptrtoint %"struct.std::_Rb_tree_node_base"* %13 to i32, !dbg !2743
  ret i32 %14, !dbg !2743
}

; Function Attrs: nounwind
define linkonce_odr zeroext i1 @_ZNKSt23_Rb_tree_const_iteratorISt4pairIKlSt6vectorIS0_IdlESaIS3_EEEEneERKS7_(%"struct.std::_Rb_tree_const_iterator"*, %"struct.std::_Rb_tree_const_iterator"* dereferenceable(4)) #0 comdat align 2 !dbg !2744 !xidane.fname !2745 !xidane.function_declaration_type !2746 !xidane.function_declaration_filename !2747 {
  %3 = alloca %"struct.std::_Rb_tree_const_iterator"*, align 4
  %4 = alloca %"struct.std::_Rb_tree_const_iterator"*, align 4
  store %"struct.std::_Rb_tree_const_iterator"* %0, %"struct.std::_Rb_tree_const_iterator"** %3, align 4
  call void @llvm.dbg.declare(metadata %"struct.std::_Rb_tree_const_iterator"** %3, metadata !2748, metadata !2533), !dbg !2750
  store %"struct.std::_Rb_tree_const_iterator"* %1, %"struct.std::_Rb_tree_const_iterator"** %4, align 4
  call void @llvm.dbg.declare(metadata %"struct.std::_Rb_tree_const_iterator"** %4, metadata !2751, metadata !2533), !dbg !2752
  %5 = load %"struct.std::_Rb_tree_const_iterator"*, %"struct.std::_Rb_tree_const_iterator"** %3, align 4
  %6 = getelementptr inbounds %"struct.std::_Rb_tree_const_iterator", %"struct.std::_Rb_tree_const_iterator"* %5, i32 0, i32 0, !dbg !2753
  %7 = load %"struct.std::_Rb_tree_node_base"*, %"struct.std::_Rb_tree_node_base"** %6, align 4, !dbg !2753
  %8 = load %"struct.std::_Rb_tree_const_iterator"*, %"struct.std::_Rb_tree_const_iterator"** %4, align 4, !dbg !2754
  %9 = getelementptr inbounds %"struct.std::_Rb_tree_const_iterator", %"struct.std::_Rb_tree_const_iterator"* %8, i32 0, i32 0, !dbg !2755
  %10 = load %"struct.std::_Rb_tree_node_base"*, %"struct.std::_Rb_tree_node_base"** %9, align 4, !dbg !2755
  %11 = icmp ne %"struct.std::_Rb_tree_node_base"* %7, %10, !dbg !2756
  ret i1 %11, !dbg !2757
}

; Function Attrs: nounwind
define linkonce_odr i32 @_ZNKSt3mapIlSt6vectorISt4pairIdlESaIS2_EESt4lessIlESaIS1_IKlS4_EEE3endEv(%"class.std::map"*) #0 comdat align 2 !dbg !2758 !xidane.fname !2759 !xidane.function_declaration_type !2760 !xidane.function_declaration_filename !2539 {
  %2 = alloca %"struct.std::_Rb_tree_const_iterator", align 4
  %3 = alloca %"class.std::map"*, align 4
  store %"class.std::map"* %0, %"class.std::map"** %3, align 4
  call void @llvm.dbg.declare(metadata %"class.std::map"** %3, metadata !2761, metadata !2533), !dbg !2762
  %4 = load %"class.std::map"*, %"class.std::map"** %3, align 4
  %5 = getelementptr inbounds %"class.std::map", %"class.std::map"* %4, i32 0, i32 0, !dbg !2763
  %6 = call i32 @_ZNKSt8_Rb_treeIlSt4pairIKlSt6vectorIS0_IdlESaIS3_EEESt10_Select1stIS6_ESt4lessIlESaIS6_EE3endEv(%"class.std::_Rb_tree"* %5) #15, !dbg !2764
  %7 = getelementptr inbounds %"struct.std::_Rb_tree_const_iterator", %"struct.std::_Rb_tree_const_iterator"* %2, i32 0, i32 0, !dbg !2764
  %8 = inttoptr i32 %6 to %"struct.std::_Rb_tree_node_base"*, !dbg !2764
  store %"struct.std::_Rb_tree_node_base"* %8, %"struct.std::_Rb_tree_node_base"** %7, align 4, !dbg !2764
  %9 = getelementptr inbounds %"struct.std::_Rb_tree_const_iterator", %"struct.std::_Rb_tree_const_iterator"* %2, i32 0, i32 0, !dbg !2765
  %10 = load %"struct.std::_Rb_tree_node_base"*, %"struct.std::_Rb_tree_node_base"** %9, align 4, !dbg !2765
  %11 = ptrtoint %"struct.std::_Rb_tree_node_base"* %10 to i32, !dbg !2765
  ret i32 %11, !dbg !2765
}

; Function Attrs: nounwind
define void @_ZN5Graph13new_recordingEv(%class.Graph*) #0 align 2 !dbg !2766 !xidane.fname !2767 !xidane.function_declaration_type !2531 !xidane.function_declaration_filename !2502 {
  %2 = alloca %class.Graph*, align 4
  store %class.Graph* %0, %class.Graph** %2, align 4
  call void @llvm.dbg.declare(metadata %class.Graph** %2, metadata !2768, metadata !2533), !dbg !2769
  %3 = load %class.Graph*, %class.Graph** %2, align 4
  %4 = getelementptr inbounds %class.Graph, %class.Graph* %3, i32 0, i32 0, !dbg !2770
  call void @_ZNSt3mapIlSt6vectorISt4pairIdlESaIS2_EESt4lessIlESaIS1_IKlS4_EEE5clearEv(%"class.std::map"* %4) #15, !dbg !2771
  ret void, !dbg !2772
}

; Function Attrs: nounwind
define linkonce_odr void @_ZNSt3mapIlSt6vectorISt4pairIdlESaIS2_EESt4lessIlESaIS1_IKlS4_EEE5clearEv(%"class.std::map"*) #0 comdat align 2 !dbg !2773 !xidane.fname !2774 !xidane.function_declaration_type !2531 !xidane.function_declaration_filename !2539 {
  %2 = alloca %"class.std::map"*, align 4
  store %"class.std::map"* %0, %"class.std::map"** %2, align 4
  call void @llvm.dbg.declare(metadata %"class.std::map"** %2, metadata !2775, metadata !2533), !dbg !2776
  %3 = load %"class.std::map"*, %"class.std::map"** %2, align 4
  %4 = getelementptr inbounds %"class.std::map", %"class.std::map"* %3, i32 0, i32 0, !dbg !2777
  call void @_ZNSt8_Rb_treeIlSt4pairIKlSt6vectorIS0_IdlESaIS3_EEESt10_Select1stIS6_ESt4lessIlESaIS6_EE5clearEv(%"class.std::_Rb_tree"* %4) #15, !dbg !2778
  ret void, !dbg !2779
}

; Function Attrs: nounwind
define linkonce_odr %"class.std::_Rb_tree"* @_ZNSt8_Rb_treeIlSt4pairIKlSt6vectorIS0_IdlESaIS3_EEESt10_Select1stIS6_ESt4lessIlESaIS6_EEC2Ev(%"class.std::_Rb_tree"* returned) unnamed_addr #0 comdat align 2 !dbg !2780 !xidane.fname !2781 !xidane.function_declaration_type !2531 !xidane.function_declaration_filename !2747 {
  %2 = alloca %"class.std::_Rb_tree"*, align 4
  store %"class.std::_Rb_tree"* %0, %"class.std::_Rb_tree"** %2, align 4
  call void @llvm.dbg.declare(metadata %"class.std::_Rb_tree"** %2, metadata !2782, metadata !2533), !dbg !2784
  %3 = load %"class.std::_Rb_tree"*, %"class.std::_Rb_tree"** %2, align 4
  %4 = getelementptr inbounds %"class.std::_Rb_tree", %"class.std::_Rb_tree"* %3, i32 0, i32 0, !dbg !2785
  %5 = call %"struct.std::_Rb_tree<long, std::pair<const long, std::vector<std::pair<double, long>, std::allocator<std::pair<double, long> > > >, std::_Select1st<std::pair<const long, std::vector<std::pair<double, long>, std::allocator<std::pair<double, long> > > > >, std::less<long>, std::allocator<std::pair<const long, std::vector<std::pair<double, long>, std::allocator<std::pair<double, long> > > > > >::_Rb_tree_impl"* @_ZNSt8_Rb_treeIlSt4pairIKlSt6vectorIS0_IdlESaIS3_EEESt10_Select1stIS6_ESt4lessIlESaIS6_EE13_Rb_tree_implISA_Lb1EEC2Ev(%"struct.std::_Rb_tree<long, std::pair<const long, std::vector<std::pair<double, long>, std::allocator<std::pair<double, long> > > >, std::_Select1st<std::pair<const long, std::vector<std::pair<double, long>, std::allocator<std::pair<double, long> > > > >, std::less<long>, std::allocator<std::pair<const long, std::vector<std::pair<double, long>, std::allocator<std::pair<double, long> > > > > >::_Rb_tree_impl"* %4) #15, !dbg !2785
  ret %"class.std::_Rb_tree"* %3, !dbg !2785
}

; Function Attrs: nounwind
define linkonce_odr %"struct.std::_Rb_tree<long, std::pair<const long, std::vector<std::pair<double, long>, std::allocator<std::pair<double, long> > > >, std::_Select1st<std::pair<const long, std::vector<std::pair<double, long>, std::allocator<std::pair<double, long> > > > >, std::less<long>, std::allocator<std::pair<const long, std::vector<std::pair<double, long>, std::allocator<std::pair<double, long> > > > > >::_Rb_tree_impl"* @_ZNSt8_Rb_treeIlSt4pairIKlSt6vectorIS0_IdlESaIS3_EEESt10_Select1stIS6_ESt4lessIlESaIS6_EE13_Rb_tree_implISA_Lb1EEC2Ev(%"struct.std::_Rb_tree<long, std::pair<const long, std::vector<std::pair<double, long>, std::allocator<std::pair<double, long> > > >, std::_Select1st<std::pair<const long, std::vector<std::pair<double, long>, std::allocator<std::pair<double, long> > > > >, std::less<long>, std::allocator<std::pair<const long, std::vector<std::pair<double, long>, std::allocator<std::pair<double, long> > > > > >::_Rb_tree_impl"* returned) unnamed_addr #0 comdat align 2 !dbg !2786 !xidane.fname !2787 !xidane.function_declaration_type !2531 !xidane.function_declaration_filename !2747 {
  %2 = alloca %"struct.std::_Rb_tree<long, std::pair<const long, std::vector<std::pair<double, long>, std::allocator<std::pair<double, long> > > >, std::_Select1st<std::pair<const long, std::vector<std::pair<double, long>, std::allocator<std::pair<double, long> > > > >, std::less<long>, std::allocator<std::pair<const long, std::vector<std::pair<double, long>, std::allocator<std::pair<double, long> > > > > >::_Rb_tree_impl"*, align 4
  store %"struct.std::_Rb_tree<long, std::pair<const long, std::vector<std::pair<double, long>, std::allocator<std::pair<double, long> > > >, std::_Select1st<std::pair<const long, std::vector<std::pair<double, long>, std::allocator<std::pair<double, long> > > > >, std::less<long>, std::allocator<std::pair<const long, std::vector<std::pair<double, long>, std::allocator<std::pair<double, long> > > > > >::_Rb_tree_impl"* %0, %"struct.std::_Rb_tree<long, std::pair<const long, std::vector<std::pair<double, long>, std::allocator<std::pair<double, long> > > >, std::_Select1st<std::pair<const long, std::vector<std::pair<double, long>, std::allocator<std::pair<double, long> > > > >, std::less<long>, std::allocator<std::pair<const long, std::vector<std::pair<double, long>, std::allocator<std::pair<double, long> > > > > >::_Rb_tree_impl"** %2, align 4
  call void @llvm.dbg.declare(metadata %"struct.std::_Rb_tree<long, std::pair<const long, std::vector<std::pair<double, long>, std::allocator<std::pair<double, long> > > >, std::_Select1st<std::pair<const long, std::vector<std::pair<double, long>, std::allocator<std::pair<double, long> > > > >, std::less<long>, std::allocator<std::pair<const long, std::vector<std::pair<double, long>, std::allocator<std::pair<double, long> > > > > >::_Rb_tree_impl"** %2, metadata !2788, metadata !2533), !dbg !2790
  %3 = load %"struct.std::_Rb_tree<long, std::pair<const long, std::vector<std::pair<double, long>, std::allocator<std::pair<double, long> > > >, std::_Select1st<std::pair<const long, std::vector<std::pair<double, long>, std::allocator<std::pair<double, long> > > > >, std::less<long>, std::allocator<std::pair<const long, std::vector<std::pair<double, long>, std::allocator<std::pair<double, long> > > > > >::_Rb_tree_impl"*, %"struct.std::_Rb_tree<long, std::pair<const long, std::vector<std::pair<double, long>, std::allocator<std::pair<double, long> > > >, std::_Select1st<std::pair<const long, std::vector<std::pair<double, long>, std::allocator<std::pair<double, long> > > > >, std::less<long>, std::allocator<std::pair<const long, std::vector<std::pair<double, long>, std::allocator<std::pair<double, long> > > > > >::_Rb_tree_impl"** %2, align 4
  %4 = bitcast %"struct.std::_Rb_tree<long, std::pair<const long, std::vector<std::pair<double, long>, std::allocator<std::pair<double, long> > > >, std::_Select1st<std::pair<const long, std::vector<std::pair<double, long>, std::allocator<std::pair<double, long> > > > >, std::less<long>, std::allocator<std::pair<const long, std::vector<std::pair<double, long>, std::allocator<std::pair<double, long> > > > > >::_Rb_tree_impl"* %3 to %"class.std::allocator"*, !dbg !2791
  %5 = call %"class.std::allocator"* @_ZNSaISt13_Rb_tree_nodeISt4pairIKlSt6vectorIS0_IdlESaIS3_EEEEEC2Ev(%"class.std::allocator"* %4) #15, !dbg !2791
  %6 = bitcast %"struct.std::_Rb_tree<long, std::pair<const long, std::vector<std::pair<double, long>, std::allocator<std::pair<double, long> > > >, std::_Select1st<std::pair<const long, std::vector<std::pair<double, long>, std::allocator<std::pair<double, long> > > > >, std::less<long>, std::allocator<std::pair<const long, std::vector<std::pair<double, long>, std::allocator<std::pair<double, long> > > > > >::_Rb_tree_impl"* %3 to %"struct.std::_Rb_tree_key_compare"*, !dbg !2791
  %7 = call %"struct.std::_Rb_tree_key_compare"* @_ZNSt20_Rb_tree_key_compareISt4lessIlEEC2Ev(%"struct.std::_Rb_tree_key_compare"* %6) #15, !dbg !2792
  %8 = bitcast %"struct.std::_Rb_tree<long, std::pair<const long, std::vector<std::pair<double, long>, std::allocator<std::pair<double, long> > > >, std::_Select1st<std::pair<const long, std::vector<std::pair<double, long>, std::allocator<std::pair<double, long> > > > >, std::less<long>, std::allocator<std::pair<const long, std::vector<std::pair<double, long>, std::allocator<std::pair<double, long> > > > > >::_Rb_tree_impl"* %3 to i8*, !dbg !2791
  %9 = getelementptr inbounds i8, i8* %8, i32 4, !dbg !2791
  %10 = bitcast i8* %9 to %"struct.std::_Rb_tree_header"*, !dbg !2791
  %11 = call %"struct.std::_Rb_tree_header"* @_ZNSt15_Rb_tree_headerC2Ev(%"struct.std::_Rb_tree_header"* %10) #15, !dbg !2794
  ret %"struct.std::_Rb_tree<long, std::pair<const long, std::vector<std::pair<double, long>, std::allocator<std::pair<double, long> > > >, std::_Select1st<std::pair<const long, std::vector<std::pair<double, long>, std::allocator<std::pair<double, long> > > > >, std::less<long>, std::allocator<std::pair<const long, std::vector<std::pair<double, long>, std::allocator<std::pair<double, long> > > > > >::_Rb_tree_impl"* %3, !dbg !2791
}

; Function Attrs: nounwind
define linkonce_odr %"class.std::allocator"* @_ZNSaISt13_Rb_tree_nodeISt4pairIKlSt6vectorIS0_IdlESaIS3_EEEEEC2Ev(%"class.std::allocator"* returned) unnamed_addr #0 comdat align 2 !dbg !2796 !xidane.fname !2797 !xidane.function_declaration_type !2531 !xidane.function_declaration_filename !2798 {
  %2 = alloca %"class.std::allocator"*, align 4
  store %"class.std::allocator"* %0, %"class.std::allocator"** %2, align 4
  call void @llvm.dbg.declare(metadata %"class.std::allocator"** %2, metadata !2799, metadata !2533), !dbg !2801
  %3 = load %"class.std::allocator"*, %"class.std::allocator"** %2, align 4
  %4 = bitcast %"class.std::allocator"* %3 to %"class.__gnu_cxx::new_allocator"*, !dbg !2802
  %5 = call %"class.__gnu_cxx::new_allocator"* @_ZN9__gnu_cxx13new_allocatorISt13_Rb_tree_nodeISt4pairIKlSt6vectorIS2_IdlESaIS5_EEEEEC2Ev(%"class.__gnu_cxx::new_allocator"* %4) #15, !dbg !2803
  ret %"class.std::allocator"* %3, !dbg !2804
}

; Function Attrs: nounwind
define linkonce_odr %"struct.std::_Rb_tree_key_compare"* @_ZNSt20_Rb_tree_key_compareISt4lessIlEEC2Ev(%"struct.std::_Rb_tree_key_compare"* returned) unnamed_addr #0 comdat align 2 !dbg !2805 !xidane.fname !2806 !xidane.function_declaration_type !2531 !xidane.function_declaration_filename !2747 {
  %2 = alloca %"struct.std::_Rb_tree_key_compare"*, align 4
  store %"struct.std::_Rb_tree_key_compare"* %0, %"struct.std::_Rb_tree_key_compare"** %2, align 4
  call void @llvm.dbg.declare(metadata %"struct.std::_Rb_tree_key_compare"** %2, metadata !2807, metadata !2533), !dbg !2809
  %3 = load %"struct.std::_Rb_tree_key_compare"*, %"struct.std::_Rb_tree_key_compare"** %2, align 4
  %4 = getelementptr inbounds %"struct.std::_Rb_tree_key_compare", %"struct.std::_Rb_tree_key_compare"* %3, i32 0, i32 0, !dbg !2810
  ret %"struct.std::_Rb_tree_key_compare"* %3, !dbg !2811
}

; Function Attrs: nounwind
define linkonce_odr %"struct.std::_Rb_tree_header"* @_ZNSt15_Rb_tree_headerC2Ev(%"struct.std::_Rb_tree_header"* returned) unnamed_addr #0 comdat align 2 personality i8* bitcast (i32 (...)* @__gxx_personality_v0 to i8*) !dbg !2812 !xidane.fname !2813 !xidane.function_declaration_type !2531 !xidane.function_declaration_filename !2747 {
  %2 = alloca %"struct.std::_Rb_tree_header"*, align 4
  store %"struct.std::_Rb_tree_header"* %0, %"struct.std::_Rb_tree_header"** %2, align 4
  call void @llvm.dbg.declare(metadata %"struct.std::_Rb_tree_header"** %2, metadata !2814, metadata !2533), !dbg !2816
  %3 = load %"struct.std::_Rb_tree_header"*, %"struct.std::_Rb_tree_header"** %2, align 4
  %4 = getelementptr inbounds %"struct.std::_Rb_tree_header", %"struct.std::_Rb_tree_header"* %3, i32 0, i32 0, !dbg !2817
  %5 = getelementptr inbounds %"struct.std::_Rb_tree_header", %"struct.std::_Rb_tree_header"* %3, i32 0, i32 0, !dbg !2818
  %6 = getelementptr inbounds %"struct.std::_Rb_tree_node_base", %"struct.std::_Rb_tree_node_base"* %5, i32 0, i32 0, !dbg !2820
  store i32 0, i32* %6, align 4, !dbg !2821
  invoke void @_ZNSt15_Rb_tree_header8_M_resetEv(%"struct.std::_Rb_tree_header"* %3)
          to label %7 unwind label %8, !dbg !2822

; <label>:7:                                      ; preds = %1
  ret %"struct.std::_Rb_tree_header"* %3, !dbg !2823

; <label>:8:                                      ; preds = %1
  %9 = landingpad { i8*, i32 }
          catch i8* null, !dbg !2824
  %10 = extractvalue { i8*, i32 } %9, 0, !dbg !2824
  call void @__clang_call_terminate(i8* %10) #7, !dbg !2824
  unreachable, !dbg !2824
}

; Function Attrs: nounwind
define linkonce_odr %"class.__gnu_cxx::new_allocator"* @_ZN9__gnu_cxx13new_allocatorISt13_Rb_tree_nodeISt4pairIKlSt6vectorIS2_IdlESaIS5_EEEEEC2Ev(%"class.__gnu_cxx::new_allocator"* returned) unnamed_addr #0 comdat align 2 !dbg !2826 !xidane.fname !2827 !xidane.function_declaration_type !2531 !xidane.function_declaration_filename !2828 {
  %2 = alloca %"class.__gnu_cxx::new_allocator"*, align 4
  store %"class.__gnu_cxx::new_allocator"* %0, %"class.__gnu_cxx::new_allocator"** %2, align 4
  call void @llvm.dbg.declare(metadata %"class.__gnu_cxx::new_allocator"** %2, metadata !2829, metadata !2533), !dbg !2831
  %3 = load %"class.__gnu_cxx::new_allocator"*, %"class.__gnu_cxx::new_allocator"** %2, align 4
  ret %"class.__gnu_cxx::new_allocator"* %3, !dbg !2832
}

; Function Attrs: nounwind
define linkonce_odr void @_ZNSt15_Rb_tree_header8_M_resetEv(%"struct.std::_Rb_tree_header"*) #0 comdat align 2 !dbg !2833 !xidane.fname !2834 !xidane.function_declaration_type !2531 !xidane.function_declaration_filename !2747 {
  %2 = alloca %"struct.std::_Rb_tree_header"*, align 4
  store %"struct.std::_Rb_tree_header"* %0, %"struct.std::_Rb_tree_header"** %2, align 4
  call void @llvm.dbg.declare(metadata %"struct.std::_Rb_tree_header"** %2, metadata !2835, metadata !2533), !dbg !2836
  %3 = load %"struct.std::_Rb_tree_header"*, %"struct.std::_Rb_tree_header"** %2, align 4
  %4 = getelementptr inbounds %"struct.std::_Rb_tree_header", %"struct.std::_Rb_tree_header"* %3, i32 0, i32 0, !dbg !2837
  %5 = getelementptr inbounds %"struct.std::_Rb_tree_node_base", %"struct.std::_Rb_tree_node_base"* %4, i32 0, i32 1, !dbg !2838
  store %"struct.std::_Rb_tree_node_base"* null, %"struct.std::_Rb_tree_node_base"** %5, align 4, !dbg !2839
  %6 = getelementptr inbounds %"struct.std::_Rb_tree_header", %"struct.std::_Rb_tree_header"* %3, i32 0, i32 0, !dbg !2840
  %7 = getelementptr inbounds %"struct.std::_Rb_tree_header", %"struct.std::_Rb_tree_header"* %3, i32 0, i32 0, !dbg !2841
  %8 = getelementptr inbounds %"struct.std::_Rb_tree_node_base", %"struct.std::_Rb_tree_node_base"* %7, i32 0, i32 2, !dbg !2842
  store %"struct.std::_Rb_tree_node_base"* %6, %"struct.std::_Rb_tree_node_base"** %8, align 4, !dbg !2843
  %9 = getelementptr inbounds %"struct.std::_Rb_tree_header", %"struct.std::_Rb_tree_header"* %3, i32 0, i32 0, !dbg !2844
  %10 = getelementptr inbounds %"struct.std::_Rb_tree_header", %"struct.std::_Rb_tree_header"* %3, i32 0, i32 0, !dbg !2845
  %11 = getelementptr inbounds %"struct.std::_Rb_tree_node_base", %"struct.std::_Rb_tree_node_base"* %10, i32 0, i32 3, !dbg !2846
  store %"struct.std::_Rb_tree_node_base"* %9, %"struct.std::_Rb_tree_node_base"** %11, align 4, !dbg !2847
  %12 = getelementptr inbounds %"struct.std::_Rb_tree_header", %"struct.std::_Rb_tree_header"* %3, i32 0, i32 1, !dbg !2848
  store i32 0, i32* %12, align 4, !dbg !2849
  ret void, !dbg !2850
}

; Function Attrs: noinline noreturn nounwind
define linkonce_odr hidden void @__clang_call_terminate(i8*) #5 comdat {
  %2 = call i8* @__cxa_begin_catch(i8* %0) #15
  call void @_ZSt9terminatev() #7
  unreachable
}

declare i8* @__cxa_begin_catch(i8*)

declare void @_ZSt9terminatev()

define linkonce_odr i32 @_ZNSt3mapIlSt6vectorISt4pairIdlESaIS2_EESt4lessIlESaIS1_IKlS4_EEE11lower_boundERS7_(%"class.std::map"*, i32* dereferenceable(4)) #1 comdat align 2 !dbg !2851 !xidane.fname !2852 !xidane.function_declaration_type !2853 !xidane.function_declaration_filename !2539 {
  %3 = alloca %"struct.std::_Rb_tree_iterator", align 4
  %4 = alloca %"class.std::map"*, align 4
  %5 = alloca i32*, align 4
  store %"class.std::map"* %0, %"class.std::map"** %4, align 4
  call void @llvm.dbg.declare(metadata %"class.std::map"** %4, metadata !2854, metadata !2533), !dbg !2855
  store i32* %1, i32** %5, align 4
  call void @llvm.dbg.declare(metadata i32** %5, metadata !2856, metadata !2533), !dbg !2857
  %6 = load %"class.std::map"*, %"class.std::map"** %4, align 4
  %7 = getelementptr inbounds %"class.std::map", %"class.std::map"* %6, i32 0, i32 0, !dbg !2858
  %8 = load i32*, i32** %5, align 4, !dbg !2859
  %9 = call i32 @_ZNSt8_Rb_treeIlSt4pairIKlSt6vectorIS0_IdlESaIS3_EEESt10_Select1stIS6_ESt4lessIlESaIS6_EE11lower_boundERS1_(%"class.std::_Rb_tree"* %7, i32* dereferenceable(4) %8), !dbg !2860
  %10 = getelementptr inbounds %"struct.std::_Rb_tree_iterator", %"struct.std::_Rb_tree_iterator"* %3, i32 0, i32 0, !dbg !2860
  %11 = inttoptr i32 %9 to %"struct.std::_Rb_tree_node_base"*, !dbg !2860
  store %"struct.std::_Rb_tree_node_base"* %11, %"struct.std::_Rb_tree_node_base"** %10, align 4, !dbg !2860
  %12 = getelementptr inbounds %"struct.std::_Rb_tree_iterator", %"struct.std::_Rb_tree_iterator"* %3, i32 0, i32 0, !dbg !2861
  %13 = load %"struct.std::_Rb_tree_node_base"*, %"struct.std::_Rb_tree_node_base"** %12, align 4, !dbg !2861
  %14 = ptrtoint %"struct.std::_Rb_tree_node_base"* %13 to i32, !dbg !2861
  ret i32 %14, !dbg !2861
}

; Function Attrs: nounwind
define linkonce_odr zeroext i1 @_ZNKSt17_Rb_tree_iteratorISt4pairIKlSt6vectorIS0_IdlESaIS3_EEEEeqERKS7_(%"struct.std::_Rb_tree_iterator"*, %"struct.std::_Rb_tree_iterator"* dereferenceable(4)) #0 comdat align 2 !dbg !2862 !xidane.fname !2863 !xidane.function_declaration_type !2746 !xidane.function_declaration_filename !2747 {
  %3 = alloca %"struct.std::_Rb_tree_iterator"*, align 4
  %4 = alloca %"struct.std::_Rb_tree_iterator"*, align 4
  store %"struct.std::_Rb_tree_iterator"* %0, %"struct.std::_Rb_tree_iterator"** %3, align 4
  call void @llvm.dbg.declare(metadata %"struct.std::_Rb_tree_iterator"** %3, metadata !2864, metadata !2533), !dbg !2866
  store %"struct.std::_Rb_tree_iterator"* %1, %"struct.std::_Rb_tree_iterator"** %4, align 4
  call void @llvm.dbg.declare(metadata %"struct.std::_Rb_tree_iterator"** %4, metadata !2867, metadata !2533), !dbg !2868
  %5 = load %"struct.std::_Rb_tree_iterator"*, %"struct.std::_Rb_tree_iterator"** %3, align 4
  %6 = getelementptr inbounds %"struct.std::_Rb_tree_iterator", %"struct.std::_Rb_tree_iterator"* %5, i32 0, i32 0, !dbg !2869
  %7 = load %"struct.std::_Rb_tree_node_base"*, %"struct.std::_Rb_tree_node_base"** %6, align 4, !dbg !2869
  %8 = load %"struct.std::_Rb_tree_iterator"*, %"struct.std::_Rb_tree_iterator"** %4, align 4, !dbg !2870
  %9 = getelementptr inbounds %"struct.std::_Rb_tree_iterator", %"struct.std::_Rb_tree_iterator"* %8, i32 0, i32 0, !dbg !2871
  %10 = load %"struct.std::_Rb_tree_node_base"*, %"struct.std::_Rb_tree_node_base"** %9, align 4, !dbg !2871
  %11 = icmp eq %"struct.std::_Rb_tree_node_base"* %7, %10, !dbg !2872
  ret i1 %11, !dbg !2873
}

; Function Attrs: nounwind
define linkonce_odr i32 @_ZNSt3mapIlSt6vectorISt4pairIdlESaIS2_EESt4lessIlESaIS1_IKlS4_EEE3endEv(%"class.std::map"*) #0 comdat align 2 !dbg !2874 !xidane.fname !2759 !xidane.function_declaration_type !2875 !xidane.function_declaration_filename !2539 {
  %2 = alloca %"struct.std::_Rb_tree_iterator", align 4
  %3 = alloca %"class.std::map"*, align 4
  store %"class.std::map"* %0, %"class.std::map"** %3, align 4
  call void @llvm.dbg.declare(metadata %"class.std::map"** %3, metadata !2876, metadata !2533), !dbg !2877
  %4 = load %"class.std::map"*, %"class.std::map"** %3, align 4
  %5 = getelementptr inbounds %"class.std::map", %"class.std::map"* %4, i32 0, i32 0, !dbg !2878
  %6 = call i32 @_ZNSt8_Rb_treeIlSt4pairIKlSt6vectorIS0_IdlESaIS3_EEESt10_Select1stIS6_ESt4lessIlESaIS6_EE3endEv(%"class.std::_Rb_tree"* %5) #15, !dbg !2879
  %7 = getelementptr inbounds %"struct.std::_Rb_tree_iterator", %"struct.std::_Rb_tree_iterator"* %2, i32 0, i32 0, !dbg !2879
  %8 = inttoptr i32 %6 to %"struct.std::_Rb_tree_node_base"*, !dbg !2879
  store %"struct.std::_Rb_tree_node_base"* %8, %"struct.std::_Rb_tree_node_base"** %7, align 4, !dbg !2879
  %9 = getelementptr inbounds %"struct.std::_Rb_tree_iterator", %"struct.std::_Rb_tree_iterator"* %2, i32 0, i32 0, !dbg !2880
  %10 = load %"struct.std::_Rb_tree_node_base"*, %"struct.std::_Rb_tree_node_base"** %9, align 4, !dbg !2880
  %11 = ptrtoint %"struct.std::_Rb_tree_node_base"* %10 to i32, !dbg !2880
  ret i32 %11, !dbg !2880
}

define linkonce_odr void @_ZNKSt3mapIlSt6vectorISt4pairIdlESaIS2_EESt4lessIlESaIS1_IKlS4_EEE8key_compEv(%"class.std::map"*) #1 comdat align 2 !dbg !2881 !xidane.fname !2882 !xidane.function_declaration_type !2883 !xidane.function_declaration_filename !2539 {
  %2 = alloca %"struct.std::less", align 1
  %3 = alloca %"class.std::map"*, align 4
  %4 = alloca %"struct.std::less", align 1
  store %"class.std::map"* %0, %"class.std::map"** %3, align 4
  call void @llvm.dbg.declare(metadata %"class.std::map"** %3, metadata !2884, metadata !2533), !dbg !2885
  %5 = load %"class.std::map"*, %"class.std::map"** %3, align 4
  %6 = getelementptr inbounds %"class.std::map", %"class.std::map"* %5, i32 0, i32 0, !dbg !2886
  call void @_ZNKSt8_Rb_treeIlSt4pairIKlSt6vectorIS0_IdlESaIS3_EEESt10_Select1stIS6_ESt4lessIlESaIS6_EE8key_compEv(%"class.std::_Rb_tree"* %6), !dbg !2887
  ret void, !dbg !2888
}

; Function Attrs: nounwind
define linkonce_odr zeroext i1 @_ZNKSt4lessIlEclERKlS2_(%"struct.std::less"*, i32* dereferenceable(4), i32* dereferenceable(4)) #0 comdat align 2 !dbg !2889 !xidane.fname !2890 !xidane.function_declaration_type !2891 !xidane.function_declaration_filename !2892 {
  %4 = alloca %"struct.std::less"*, align 4
  %5 = alloca i32*, align 4
  %6 = alloca i32*, align 4
  store %"struct.std::less"* %0, %"struct.std::less"** %4, align 4
  call void @llvm.dbg.declare(metadata %"struct.std::less"** %4, metadata !2893, metadata !2533), !dbg !2895
  store i32* %1, i32** %5, align 4
  call void @llvm.dbg.declare(metadata i32** %5, metadata !2896, metadata !2533), !dbg !2897
  store i32* %2, i32** %6, align 4
  call void @llvm.dbg.declare(metadata i32** %6, metadata !2898, metadata !2533), !dbg !2899
  %7 = load %"struct.std::less"*, %"struct.std::less"** %4, align 4
  %8 = load i32*, i32** %5, align 4, !dbg !2900
  %9 = load i32, i32* %8, align 4, !dbg !2900
  %10 = load i32*, i32** %6, align 4, !dbg !2901
  %11 = load i32, i32* %10, align 4, !dbg !2901
  %12 = icmp slt i32 %9, %11, !dbg !2902
  ret i1 %12, !dbg !2903
}

; Function Attrs: nounwind
define linkonce_odr dereferenceable(16) %"struct.std::pair.3"* @_ZNKSt17_Rb_tree_iteratorISt4pairIKlSt6vectorIS0_IdlESaIS3_EEEEdeEv(%"struct.std::_Rb_tree_iterator"*) #0 comdat align 2 personality i8* bitcast (i32 (...)* @__gxx_personality_v0 to i8*) !dbg !2904 !xidane.fname !2905 !xidane.function_declaration_type !2906 !xidane.function_declaration_filename !2747 {
  %2 = alloca %"struct.std::_Rb_tree_iterator"*, align 4
  store %"struct.std::_Rb_tree_iterator"* %0, %"struct.std::_Rb_tree_iterator"** %2, align 4
  call void @llvm.dbg.declare(metadata %"struct.std::_Rb_tree_iterator"** %2, metadata !2907, metadata !2533), !dbg !2908
  %3 = load %"struct.std::_Rb_tree_iterator"*, %"struct.std::_Rb_tree_iterator"** %2, align 4
  %4 = getelementptr inbounds %"struct.std::_Rb_tree_iterator", %"struct.std::_Rb_tree_iterator"* %3, i32 0, i32 0, !dbg !2909
  %5 = load %"struct.std::_Rb_tree_node_base"*, %"struct.std::_Rb_tree_node_base"** %4, align 4, !dbg !2909
  %6 = bitcast %"struct.std::_Rb_tree_node_base"* %5 to %"struct.std::_Rb_tree_node"*, !dbg !2910
  %7 = invoke %"struct.std::pair.3"* @_ZNSt13_Rb_tree_nodeISt4pairIKlSt6vectorIS0_IdlESaIS3_EEEE9_M_valptrEv(%"struct.std::_Rb_tree_node"* %6)
          to label %8 unwind label %9, !dbg !2911

; <label>:8:                                      ; preds = %1
  ret %"struct.std::pair.3"* %7, !dbg !2912

; <label>:9:                                      ; preds = %1
  %10 = landingpad { i8*, i32 }
          catch i8* null, !dbg !2914
  %11 = extractvalue { i8*, i32 } %10, 0, !dbg !2914
  call void @__clang_call_terminate(i8* %11) #7, !dbg !2914
  unreachable, !dbg !2914
}

define linkonce_odr i32 @_ZNSt8_Rb_treeIlSt4pairIKlSt6vectorIS0_IdlESaIS3_EEESt10_Select1stIS6_ESt4lessIlESaIS6_EE22_M_emplace_hint_uniqueIJRKSt21piecewise_construct_tSt5tupleIJRS1_EESH_IJEEEEESt17_Rb_tree_iteratorIS6_ESt23_Rb_tree_const_iteratorIS6_EDpOT_(%"class.std::_Rb_tree"*, [1 x i32], %"struct.std::piecewise_construct_t"* dereferenceable(1), %"class.std::tuple"* dereferenceable(4), %"class.std::tuple.4"* dereferenceable(1)) #1 comdat align 2 personality i8* bitcast (i32 (...)* @__gxx_personality_v0 to i8*) !dbg !2916 !xidane.fname !2940 !xidane.function_declaration_type !2941 !xidane.function_declaration_filename !2747 {
  %6 = alloca %"struct.std::_Rb_tree_iterator", align 4
  %7 = alloca %"struct.std::_Rb_tree_const_iterator", align 4
  %8 = alloca %"class.std::_Rb_tree"*, align 4
  %9 = alloca %"struct.std::piecewise_construct_t"*, align 4
  %10 = alloca %"class.std::tuple"*, align 4
  %11 = alloca %"class.std::tuple.4"*, align 4
  %12 = alloca %"struct.std::_Rb_tree_node"*, align 4
  %13 = alloca %"struct.std::pair.5", align 4
  %14 = alloca %"struct.std::_Rb_tree_const_iterator", align 4
  %15 = alloca i8*
  %16 = alloca i32
  %17 = getelementptr inbounds %"struct.std::_Rb_tree_const_iterator", %"struct.std::_Rb_tree_const_iterator"* %7, i32 0, i32 0
  %18 = bitcast %"struct.std::_Rb_tree_node_base"** %17 to [1 x i32]*
  store [1 x i32] %1, [1 x i32]* %18, align 4
  store %"class.std::_Rb_tree"* %0, %"class.std::_Rb_tree"** %8, align 4
  call void @llvm.dbg.declare(metadata %"class.std::_Rb_tree"** %8, metadata !2942, metadata !2533), !dbg !2943
  call void @llvm.dbg.declare(metadata %"struct.std::_Rb_tree_const_iterator"* %7, metadata !2944, metadata !2533), !dbg !2945
  store %"struct.std::piecewise_construct_t"* %2, %"struct.std::piecewise_construct_t"** %9, align 4
  call void @llvm.dbg.declare(metadata %"struct.std::piecewise_construct_t"** %9, metadata !2946, metadata !2533), !dbg !2947
  store %"class.std::tuple"* %3, %"class.std::tuple"** %10, align 4
  call void @llvm.dbg.declare(metadata %"class.std::tuple"** %10, metadata !2948, metadata !2533), !dbg !2947
  store %"class.std::tuple.4"* %4, %"class.std::tuple.4"** %11, align 4
  call void @llvm.dbg.declare(metadata %"class.std::tuple.4"** %11, metadata !2949, metadata !2533), !dbg !2947
  %19 = load %"class.std::_Rb_tree"*, %"class.std::_Rb_tree"** %8, align 4
  call void @llvm.dbg.declare(metadata %"struct.std::_Rb_tree_node"** %12, metadata !2950, metadata !2533), !dbg !2951
  %20 = load %"struct.std::piecewise_construct_t"*, %"struct.std::piecewise_construct_t"** %9, align 4, !dbg !2952
  %21 = call dereferenceable(1) %"struct.std::piecewise_construct_t"* @_ZSt7forwardIRKSt21piecewise_construct_tEOT_RNSt16remove_referenceIS3_E4typeE(%"struct.std::piecewise_construct_t"* dereferenceable(1) %20) #15, !dbg !2953
  %22 = load %"class.std::tuple"*, %"class.std::tuple"** %10, align 4, !dbg !2952
  %23 = call dereferenceable(4) %"class.std::tuple"* @_ZSt7forwardISt5tupleIJRKlEEEOT_RNSt16remove_referenceIS4_E4typeE(%"class.std::tuple"* dereferenceable(4) %22) #15, !dbg !2954
  %24 = load %"class.std::tuple.4"*, %"class.std::tuple.4"** %11, align 4, !dbg !2952
  %25 = call dereferenceable(1) %"class.std::tuple.4"* @_ZSt7forwardISt5tupleIJEEEOT_RNSt16remove_referenceIS2_E4typeE(%"class.std::tuple.4"* dereferenceable(1) %24) #15, !dbg !2956
  %26 = call %"struct.std::_Rb_tree_node"* @_ZNSt8_Rb_treeIlSt4pairIKlSt6vectorIS0_IdlESaIS3_EEESt10_Select1stIS6_ESt4lessIlESaIS6_EE14_M_create_nodeIJRKSt21piecewise_construct_tSt5tupleIJRS1_EESH_IJEEEEEPSt13_Rb_tree_nodeIS6_EDpOT_(%"class.std::_Rb_tree"* %19, %"struct.std::piecewise_construct_t"* dereferenceable(1) %21, %"class.std::tuple"* dereferenceable(4) %23, %"class.std::tuple.4"* dereferenceable(1) %25), !dbg !2958
  store %"struct.std::_Rb_tree_node"* %26, %"struct.std::_Rb_tree_node"** %12, align 4, !dbg !2951
  call void @llvm.dbg.declare(metadata %"struct.std::pair.5"* %13, metadata !2960, metadata !2533), !dbg !2962
  %27 = bitcast %"struct.std::_Rb_tree_const_iterator"* %14 to i8*, !dbg !2963
  %28 = bitcast %"struct.std::_Rb_tree_const_iterator"* %7 to i8*, !dbg !2963
  call void @llvm.memcpy.p0i8.p0i8.i32(i8* %27, i8* %28, i32 4, i32 4, i1 false), !dbg !2963
  %29 = load %"struct.std::_Rb_tree_node"*, %"struct.std::_Rb_tree_node"** %12, align 4, !dbg !2964
  %30 = invoke dereferenceable(4) i32* @_ZNSt8_Rb_treeIlSt4pairIKlSt6vectorIS0_IdlESaIS3_EEESt10_Select1stIS6_ESt4lessIlESaIS6_EE6_S_keyEPKSt13_Rb_tree_nodeIS6_E(%"struct.std::_Rb_tree_node"* %29)
          to label %31 unwind label %49, !dbg !2965

; <label>:31:                                     ; preds = %5
  %32 = getelementptr inbounds %"struct.std::_Rb_tree_const_iterator", %"struct.std::_Rb_tree_const_iterator"* %14, i32 0, i32 0, !dbg !2966
  %33 = bitcast %"struct.std::_Rb_tree_node_base"** %32 to [1 x i32]*, !dbg !2966
  %34 = load [1 x i32], [1 x i32]* %33, align 4, !dbg !2966
  invoke void @_ZNSt8_Rb_treeIlSt4pairIKlSt6vectorIS0_IdlESaIS3_EEESt10_Select1stIS6_ESt4lessIlESaIS6_EE29_M_get_insert_hint_unique_posESt23_Rb_tree_const_iteratorIS6_ERS1_(%"struct.std::pair.5"* sret %13, %"class.std::_Rb_tree"* %19, [1 x i32] %34, i32* dereferenceable(4) %30)
          to label %35 unwind label %49, !dbg !2966

; <label>:35:                                     ; preds = %31
  %36 = getelementptr inbounds %"struct.std::pair.5", %"struct.std::pair.5"* %13, i32 0, i32 1, !dbg !2968
  %37 = load %"struct.std::_Rb_tree_node_base"*, %"struct.std::_Rb_tree_node_base"** %36, align 4, !dbg !2968
  %38 = icmp ne %"struct.std::_Rb_tree_node_base"* %37, null, !dbg !2970
  br i1 %38, label %39, label %57, !dbg !2971

; <label>:39:                                     ; preds = %35
  %40 = getelementptr inbounds %"struct.std::pair.5", %"struct.std::pair.5"* %13, i32 0, i32 0, !dbg !2972
  %41 = load %"struct.std::_Rb_tree_node_base"*, %"struct.std::_Rb_tree_node_base"** %40, align 4, !dbg !2972
  %42 = getelementptr inbounds %"struct.std::pair.5", %"struct.std::pair.5"* %13, i32 0, i32 1, !dbg !2973
  %43 = load %"struct.std::_Rb_tree_node_base"*, %"struct.std::_Rb_tree_node_base"** %42, align 4, !dbg !2973
  %44 = load %"struct.std::_Rb_tree_node"*, %"struct.std::_Rb_tree_node"** %12, align 4, !dbg !2974
  %45 = invoke i32 @_ZNSt8_Rb_treeIlSt4pairIKlSt6vectorIS0_IdlESaIS3_EEESt10_Select1stIS6_ESt4lessIlESaIS6_EE14_M_insert_nodeEPSt18_Rb_tree_node_baseSE_PSt13_Rb_tree_nodeIS6_E(%"class.std::_Rb_tree"* %19, %"struct.std::_Rb_tree_node_base"* %41, %"struct.std::_Rb_tree_node_base"* %43, %"struct.std::_Rb_tree_node"* %44)
          to label %46 unwind label %49, !dbg !2975

; <label>:46:                                     ; preds = %39
  %47 = getelementptr inbounds %"struct.std::_Rb_tree_iterator", %"struct.std::_Rb_tree_iterator"* %6, i32 0, i32 0, !dbg !2976
  %48 = inttoptr i32 %45 to %"struct.std::_Rb_tree_node_base"*, !dbg !2976
  store %"struct.std::_Rb_tree_node_base"* %48, %"struct.std::_Rb_tree_node_base"** %47, align 4, !dbg !2976
  br label %68, !dbg !2978

; <label>:49:                                     ; preds = %39, %31, %5
  %50 = landingpad { i8*, i32 }
          catch i8* null, !dbg !2979
  %51 = extractvalue { i8*, i32 } %50, 0, !dbg !2979
  store i8* %51, i8** %15, align 4, !dbg !2979
  %52 = extractvalue { i8*, i32 } %50, 1, !dbg !2979
  store i32 %52, i32* %16, align 4, !dbg !2979
  br label %53, !dbg !2979

; <label>:53:                                     ; preds = %49
  %54 = load i8*, i8** %15, align 4, !dbg !2980
  %55 = call i8* @__cxa_begin_catch(i8* %54) #15, !dbg !2980
  %56 = load %"struct.std::_Rb_tree_node"*, %"struct.std::_Rb_tree_node"** %12, align 4, !dbg !2981
  call void @_ZNSt8_Rb_treeIlSt4pairIKlSt6vectorIS0_IdlESaIS3_EEESt10_Select1stIS6_ESt4lessIlESaIS6_EE12_M_drop_nodeEPSt13_Rb_tree_nodeIS6_E(%"class.std::_Rb_tree"* %19, %"struct.std::_Rb_tree_node"* %56) #15, !dbg !2983
  invoke void @__cxa_rethrow() #16
          to label %80 unwind label %62, !dbg !2984

; <label>:57:                                     ; preds = %35
  %58 = load %"struct.std::_Rb_tree_node"*, %"struct.std::_Rb_tree_node"** %12, align 4, !dbg !2985
  call void @_ZNSt8_Rb_treeIlSt4pairIKlSt6vectorIS0_IdlESaIS3_EEESt10_Select1stIS6_ESt4lessIlESaIS6_EE12_M_drop_nodeEPSt13_Rb_tree_nodeIS6_E(%"class.std::_Rb_tree"* %19, %"struct.std::_Rb_tree_node"* %58) #15, !dbg !2986
  %59 = getelementptr inbounds %"struct.std::pair.5", %"struct.std::pair.5"* %13, i32 0, i32 0, !dbg !2987
  %60 = load %"struct.std::_Rb_tree_node_base"*, %"struct.std::_Rb_tree_node_base"** %59, align 4, !dbg !2987
  %61 = call %"struct.std::_Rb_tree_iterator"* @_ZNSt17_Rb_tree_iteratorISt4pairIKlSt6vectorIS0_IdlESaIS3_EEEEC2EPSt18_Rb_tree_node_base(%"struct.std::_Rb_tree_iterator"* %6, %"struct.std::_Rb_tree_node_base"* %60) #15, !dbg !2988
  br label %68, !dbg !2989

; <label>:62:                                     ; preds = %53
  %63 = landingpad { i8*, i32 }
          cleanup, !dbg !2990
  %64 = extractvalue { i8*, i32 } %63, 0, !dbg !2990
  store i8* %64, i8** %15, align 4, !dbg !2990
  %65 = extractvalue { i8*, i32 } %63, 1, !dbg !2990
  store i32 %65, i32* %16, align 4, !dbg !2990
  invoke void @__cxa_end_catch()
          to label %66 unwind label %77, !dbg !2992

; <label>:66:                                     ; preds = %62
  br label %72, !dbg !2993
                                                  ; No predecessors!
  call void @llvm.trap(), !dbg !2994
  unreachable, !dbg !2994

; <label>:68:                                     ; preds = %57, %46
  %69 = getelementptr inbounds %"struct.std::_Rb_tree_iterator", %"struct.std::_Rb_tree_iterator"* %6, i32 0, i32 0, !dbg !2996
  %70 = load %"struct.std::_Rb_tree_node_base"*, %"struct.std::_Rb_tree_node_base"** %69, align 4, !dbg !2996
  %71 = ptrtoint %"struct.std::_Rb_tree_node_base"* %70 to i32, !dbg !2996
  ret i32 %71, !dbg !2996

; <label>:72:                                     ; preds = %66
  %73 = load i8*, i8** %15, align 4, !dbg !2997
  %74 = load i32, i32* %16, align 4, !dbg !2997
  %75 = insertvalue { i8*, i32 } undef, i8* %73, 0, !dbg !2997
  %76 = insertvalue { i8*, i32 } %75, i32 %74, 1, !dbg !2997
  resume { i8*, i32 } %76, !dbg !2997

; <label>:77:                                     ; preds = %62
  %78 = landingpad { i8*, i32 }
          catch i8* null, !dbg !2999
  %79 = extractvalue { i8*, i32 } %78, 0, !dbg !2999
  call void @__clang_call_terminate(i8* %79) #7, !dbg !2999
  unreachable, !dbg !2999

; <label>:80:                                     ; preds = %53
  unreachable
}

; Function Attrs: nounwind
define linkonce_odr %"struct.std::_Rb_tree_const_iterator"* @_ZNSt23_Rb_tree_const_iteratorISt4pairIKlSt6vectorIS0_IdlESaIS3_EEEEC2ERKSt17_Rb_tree_iteratorIS6_E(%"struct.std::_Rb_tree_const_iterator"* returned, %"struct.std::_Rb_tree_iterator"* dereferenceable(4)) unnamed_addr #0 comdat align 2 !dbg !3001 !xidane.fname !3002 !xidane.function_declaration_type !3003 !xidane.function_declaration_filename !2747 {
  %3 = alloca %"struct.std::_Rb_tree_const_iterator"*, align 4
  %4 = alloca %"struct.std::_Rb_tree_iterator"*, align 4
  store %"struct.std::_Rb_tree_const_iterator"* %0, %"struct.std::_Rb_tree_const_iterator"** %3, align 4
  call void @llvm.dbg.declare(metadata %"struct.std::_Rb_tree_const_iterator"** %3, metadata !3004, metadata !2533), !dbg !3006
  store %"struct.std::_Rb_tree_iterator"* %1, %"struct.std::_Rb_tree_iterator"** %4, align 4
  call void @llvm.dbg.declare(metadata %"struct.std::_Rb_tree_iterator"** %4, metadata !3007, metadata !2533), !dbg !3008
  %5 = load %"struct.std::_Rb_tree_const_iterator"*, %"struct.std::_Rb_tree_const_iterator"** %3, align 4
  %6 = getelementptr inbounds %"struct.std::_Rb_tree_const_iterator", %"struct.std::_Rb_tree_const_iterator"* %5, i32 0, i32 0, !dbg !3009
  %7 = load %"struct.std::_Rb_tree_iterator"*, %"struct.std::_Rb_tree_iterator"** %4, align 4, !dbg !3010
  %8 = getelementptr inbounds %"struct.std::_Rb_tree_iterator", %"struct.std::_Rb_tree_iterator"* %7, i32 0, i32 0, !dbg !3011
  %9 = load %"struct.std::_Rb_tree_node_base"*, %"struct.std::_Rb_tree_node_base"** %8, align 4, !dbg !3011
  store %"struct.std::_Rb_tree_node_base"* %9, %"struct.std::_Rb_tree_node_base"** %6, align 4, !dbg !3009
  ret %"struct.std::_Rb_tree_const_iterator"* %5, !dbg !3012
}

define linkonce_odr %"class.std::tuple"* @_ZNSt5tupleIJRKlEEC2IvLb1EEES1_(%"class.std::tuple"* returned, i32* dereferenceable(4)) unnamed_addr #1 comdat align 2 !dbg !3013 !xidane.fname !3019 !xidane.function_declaration_type !3020 !xidane.function_declaration_filename !3021 {
  %3 = alloca %"class.std::tuple"*, align 4
  %4 = alloca i32*, align 4
  store %"class.std::tuple"* %0, %"class.std::tuple"** %3, align 4
  call void @llvm.dbg.declare(metadata %"class.std::tuple"** %3, metadata !3022, metadata !2533), !dbg !3024
  store i32* %1, i32** %4, align 4
  call void @llvm.dbg.declare(metadata i32** %4, metadata !3025, metadata !2533), !dbg !3026
  %5 = load %"class.std::tuple"*, %"class.std::tuple"** %3, align 4
  %6 = bitcast %"class.std::tuple"* %5 to %"struct.std::_Tuple_impl"*, !dbg !3027
  %7 = load i32*, i32** %4, align 4, !dbg !3028
  %8 = call %"struct.std::_Tuple_impl"* @_ZNSt11_Tuple_implILj0EJRKlEEC2ES1_(%"struct.std::_Tuple_impl"* %6, i32* dereferenceable(4) %7), !dbg !3029
  ret %"class.std::tuple"* %5, !dbg !3030
}

; Function Attrs: argmemonly nounwind
declare void @llvm.memcpy.p0i8.p0i8.i32(i8* nocapture writeonly, i8* nocapture readonly, i32, i32, i1) #6

define linkonce_odr i32 @_ZNSt8_Rb_treeIlSt4pairIKlSt6vectorIS0_IdlESaIS3_EEESt10_Select1stIS6_ESt4lessIlESaIS6_EE11lower_boundERS1_(%"class.std::_Rb_tree"*, i32* dereferenceable(4)) #1 comdat align 2 !dbg !3031 !xidane.fname !2852 !xidane.function_declaration_type !2853 !xidane.function_declaration_filename !2747 {
  %3 = alloca %"struct.std::_Rb_tree_iterator", align 4
  %4 = alloca %"class.std::_Rb_tree"*, align 4
  %5 = alloca i32*, align 4
  store %"class.std::_Rb_tree"* %0, %"class.std::_Rb_tree"** %4, align 4
  call void @llvm.dbg.declare(metadata %"class.std::_Rb_tree"** %4, metadata !3032, metadata !2533), !dbg !3033
  store i32* %1, i32** %5, align 4
  call void @llvm.dbg.declare(metadata i32** %5, metadata !3034, metadata !2533), !dbg !3035
  %6 = load %"class.std::_Rb_tree"*, %"class.std::_Rb_tree"** %4, align 4
  %7 = call %"struct.std::_Rb_tree_node"* @_ZNSt8_Rb_treeIlSt4pairIKlSt6vectorIS0_IdlESaIS3_EEESt10_Select1stIS6_ESt4lessIlESaIS6_EE8_M_beginEv(%"class.std::_Rb_tree"* %6) #15, !dbg !3036
  %8 = call %"struct.std::_Rb_tree_node_base"* @_ZNSt8_Rb_treeIlSt4pairIKlSt6vectorIS0_IdlESaIS3_EEESt10_Select1stIS6_ESt4lessIlESaIS6_EE6_M_endEv(%"class.std::_Rb_tree"* %6) #15, !dbg !3037
  %9 = load i32*, i32** %5, align 4, !dbg !3039
  %10 = call i32 @_ZNSt8_Rb_treeIlSt4pairIKlSt6vectorIS0_IdlESaIS3_EEESt10_Select1stIS6_ESt4lessIlESaIS6_EE14_M_lower_boundEPSt13_Rb_tree_nodeIS6_EPSt18_Rb_tree_node_baseRS1_(%"class.std::_Rb_tree"* %6, %"struct.std::_Rb_tree_node"* %7, %"struct.std::_Rb_tree_node_base"* %8, i32* dereferenceable(4) %9), !dbg !3040
  %11 = getelementptr inbounds %"struct.std::_Rb_tree_iterator", %"struct.std::_Rb_tree_iterator"* %3, i32 0, i32 0, !dbg !3042
  %12 = inttoptr i32 %10 to %"struct.std::_Rb_tree_node_base"*, !dbg !3042
  store %"struct.std::_Rb_tree_node_base"* %12, %"struct.std::_Rb_tree_node_base"** %11, align 4, !dbg !3042
  %13 = getelementptr inbounds %"struct.std::_Rb_tree_iterator", %"struct.std::_Rb_tree_iterator"* %3, i32 0, i32 0, !dbg !3043
  %14 = load %"struct.std::_Rb_tree_node_base"*, %"struct.std::_Rb_tree_node_base"** %13, align 4, !dbg !3043
  %15 = ptrtoint %"struct.std::_Rb_tree_node_base"* %14 to i32, !dbg !3043
  ret i32 %15, !dbg !3043
}

define linkonce_odr i32 @_ZNSt8_Rb_treeIlSt4pairIKlSt6vectorIS0_IdlESaIS3_EEESt10_Select1stIS6_ESt4lessIlESaIS6_EE14_M_lower_boundEPSt13_Rb_tree_nodeIS6_EPSt18_Rb_tree_node_baseRS1_(%"class.std::_Rb_tree"*, %"struct.std::_Rb_tree_node"*, %"struct.std::_Rb_tree_node_base"*, i32* dereferenceable(4)) #1 comdat align 2 !dbg !3044 !xidane.fname !3045 !xidane.function_declaration_type !3046 !xidane.function_declaration_filename !2747 {
  %5 = alloca %"struct.std::_Rb_tree_iterator", align 4
  %6 = alloca %"class.std::_Rb_tree"*, align 4
  %7 = alloca %"struct.std::_Rb_tree_node"*, align 4
  %8 = alloca %"struct.std::_Rb_tree_node_base"*, align 4
  %9 = alloca i32*, align 4
  store %"class.std::_Rb_tree"* %0, %"class.std::_Rb_tree"** %6, align 4
  call void @llvm.dbg.declare(metadata %"class.std::_Rb_tree"** %6, metadata !3047, metadata !2533), !dbg !3048
  store %"struct.std::_Rb_tree_node"* %1, %"struct.std::_Rb_tree_node"** %7, align 4
  call void @llvm.dbg.declare(metadata %"struct.std::_Rb_tree_node"** %7, metadata !3049, metadata !2533), !dbg !3050
  store %"struct.std::_Rb_tree_node_base"* %2, %"struct.std::_Rb_tree_node_base"** %8, align 4
  call void @llvm.dbg.declare(metadata %"struct.std::_Rb_tree_node_base"** %8, metadata !3051, metadata !2533), !dbg !3052
  store i32* %3, i32** %9, align 4
  call void @llvm.dbg.declare(metadata i32** %9, metadata !3053, metadata !2533), !dbg !3054
  %10 = load %"class.std::_Rb_tree"*, %"class.std::_Rb_tree"** %6, align 4
  br label %11, !dbg !3055

; <label>:11:                                     ; preds = %32, %4
  %12 = load %"struct.std::_Rb_tree_node"*, %"struct.std::_Rb_tree_node"** %7, align 4, !dbg !3056
  %13 = icmp ne %"struct.std::_Rb_tree_node"* %12, null, !dbg !3058
  br i1 %13, label %14, label %33, !dbg !3059

; <label>:14:                                     ; preds = %11
  %15 = getelementptr inbounds %"class.std::_Rb_tree", %"class.std::_Rb_tree"* %10, i32 0, i32 0, !dbg !3060
  %16 = bitcast %"struct.std::_Rb_tree<long, std::pair<const long, std::vector<std::pair<double, long>, std::allocator<std::pair<double, long> > > >, std::_Select1st<std::pair<const long, std::vector<std::pair<double, long>, std::allocator<std::pair<double, long> > > > >, std::less<long>, std::allocator<std::pair<const long, std::vector<std::pair<double, long>, std::allocator<std::pair<double, long> > > > > >::_Rb_tree_impl"* %15 to %"struct.std::_Rb_tree_key_compare"*, !dbg !3060
  %17 = getelementptr inbounds %"struct.std::_Rb_tree_key_compare", %"struct.std::_Rb_tree_key_compare"* %16, i32 0, i32 0, !dbg !3062
  %18 = load %"struct.std::_Rb_tree_node"*, %"struct.std::_Rb_tree_node"** %7, align 4, !dbg !3063
  %19 = call dereferenceable(4) i32* @_ZNSt8_Rb_treeIlSt4pairIKlSt6vectorIS0_IdlESaIS3_EEESt10_Select1stIS6_ESt4lessIlESaIS6_EE6_S_keyEPKSt13_Rb_tree_nodeIS6_E(%"struct.std::_Rb_tree_node"* %18), !dbg !3064
  %20 = load i32*, i32** %9, align 4, !dbg !3065
  %21 = call zeroext i1 @_ZNKSt4lessIlEclERKlS2_(%"struct.std::less"* %17, i32* dereferenceable(4) %19, i32* dereferenceable(4) %20), !dbg !3066
  br i1 %21, label %28, label %22, !dbg !3068

; <label>:22:                                     ; preds = %14
  %23 = load %"struct.std::_Rb_tree_node"*, %"struct.std::_Rb_tree_node"** %7, align 4, !dbg !3069
  %24 = bitcast %"struct.std::_Rb_tree_node"* %23 to %"struct.std::_Rb_tree_node_base"*, !dbg !3069
  store %"struct.std::_Rb_tree_node_base"* %24, %"struct.std::_Rb_tree_node_base"** %8, align 4, !dbg !3070
  %25 = load %"struct.std::_Rb_tree_node"*, %"struct.std::_Rb_tree_node"** %7, align 4, !dbg !3071
  %26 = bitcast %"struct.std::_Rb_tree_node"* %25 to %"struct.std::_Rb_tree_node_base"*, !dbg !3071
  %27 = call %"struct.std::_Rb_tree_node"* @_ZNSt8_Rb_treeIlSt4pairIKlSt6vectorIS0_IdlESaIS3_EEESt10_Select1stIS6_ESt4lessIlESaIS6_EE7_S_leftEPSt18_Rb_tree_node_base(%"struct.std::_Rb_tree_node_base"* %26) #15, !dbg !3072
  store %"struct.std::_Rb_tree_node"* %27, %"struct.std::_Rb_tree_node"** %7, align 4, !dbg !3073
  br label %32, !dbg !3074

; <label>:28:                                     ; preds = %14
  %29 = load %"struct.std::_Rb_tree_node"*, %"struct.std::_Rb_tree_node"** %7, align 4, !dbg !3075
  %30 = bitcast %"struct.std::_Rb_tree_node"* %29 to %"struct.std::_Rb_tree_node_base"*, !dbg !3075
  %31 = call %"struct.std::_Rb_tree_node"* @_ZNSt8_Rb_treeIlSt4pairIKlSt6vectorIS0_IdlESaIS3_EEESt10_Select1stIS6_ESt4lessIlESaIS6_EE8_S_rightEPSt18_Rb_tree_node_base(%"struct.std::_Rb_tree_node_base"* %30) #15, !dbg !3076
  store %"struct.std::_Rb_tree_node"* %31, %"struct.std::_Rb_tree_node"** %7, align 4, !dbg !3077
  br label %32

; <label>:32:                                     ; preds = %28, %22
  br label %11, !dbg !3078, !llvm.loop !3080

; <label>:33:                                     ; preds = %11
  %34 = load %"struct.std::_Rb_tree_node_base"*, %"struct.std::_Rb_tree_node_base"** %8, align 4, !dbg !3081
  %35 = call %"struct.std::_Rb_tree_iterator"* @_ZNSt17_Rb_tree_iteratorISt4pairIKlSt6vectorIS0_IdlESaIS3_EEEEC2EPSt18_Rb_tree_node_base(%"struct.std::_Rb_tree_iterator"* %5, %"struct.std::_Rb_tree_node_base"* %34) #15, !dbg !3082
  %36 = getelementptr inbounds %"struct.std::_Rb_tree_iterator", %"struct.std::_Rb_tree_iterator"* %5, i32 0, i32 0, !dbg !3083
  %37 = load %"struct.std::_Rb_tree_node_base"*, %"struct.std::_Rb_tree_node_base"** %36, align 4, !dbg !3083
  %38 = ptrtoint %"struct.std::_Rb_tree_node_base"* %37 to i32, !dbg !3083
  ret i32 %38, !dbg !3083
}

; Function Attrs: nounwind
define linkonce_odr %"struct.std::_Rb_tree_node"* @_ZNSt8_Rb_treeIlSt4pairIKlSt6vectorIS0_IdlESaIS3_EEESt10_Select1stIS6_ESt4lessIlESaIS6_EE8_M_beginEv(%"class.std::_Rb_tree"*) #0 comdat align 2 !dbg !3084 !xidane.fname !3085 !xidane.function_declaration_type !3086 !xidane.function_declaration_filename !2747 {
  %2 = alloca %"class.std::_Rb_tree"*, align 4
  store %"class.std::_Rb_tree"* %0, %"class.std::_Rb_tree"** %2, align 4
  call void @llvm.dbg.declare(metadata %"class.std::_Rb_tree"** %2, metadata !3087, metadata !2533), !dbg !3088
  %3 = load %"class.std::_Rb_tree"*, %"class.std::_Rb_tree"** %2, align 4
  %4 = getelementptr inbounds %"class.std::_Rb_tree", %"class.std::_Rb_tree"* %3, i32 0, i32 0, !dbg !3089
  %5 = bitcast %"struct.std::_Rb_tree<long, std::pair<const long, std::vector<std::pair<double, long>, std::allocator<std::pair<double, long> > > >, std::_Select1st<std::pair<const long, std::vector<std::pair<double, long>, std::allocator<std::pair<double, long> > > > >, std::less<long>, std::allocator<std::pair<const long, std::vector<std::pair<double, long>, std::allocator<std::pair<double, long> > > > > >::_Rb_tree_impl"* %4 to i8*, !dbg !3090
  %6 = getelementptr inbounds i8, i8* %5, i32 4, !dbg !3090
  %7 = bitcast i8* %6 to %"struct.std::_Rb_tree_header"*, !dbg !3090
  %8 = getelementptr inbounds %"struct.std::_Rb_tree_header", %"struct.std::_Rb_tree_header"* %7, i32 0, i32 0, !dbg !3091
  %9 = getelementptr inbounds %"struct.std::_Rb_tree_node_base", %"struct.std::_Rb_tree_node_base"* %8, i32 0, i32 1, !dbg !3092
  %10 = load %"struct.std::_Rb_tree_node_base"*, %"struct.std::_Rb_tree_node_base"** %9, align 4, !dbg !3092
  %11 = bitcast %"struct.std::_Rb_tree_node_base"* %10 to %"struct.std::_Rb_tree_node"*, !dbg !3093
  ret %"struct.std::_Rb_tree_node"* %11, !dbg !3094
}

; Function Attrs: nounwind
define linkonce_odr %"struct.std::_Rb_tree_node_base"* @_ZNSt8_Rb_treeIlSt4pairIKlSt6vectorIS0_IdlESaIS3_EEESt10_Select1stIS6_ESt4lessIlESaIS6_EE6_M_endEv(%"class.std::_Rb_tree"*) #0 comdat align 2 !dbg !3095 !xidane.fname !3096 !xidane.function_declaration_type !3097 !xidane.function_declaration_filename !2747 {
  %2 = alloca %"class.std::_Rb_tree"*, align 4
  store %"class.std::_Rb_tree"* %0, %"class.std::_Rb_tree"** %2, align 4
  call void @llvm.dbg.declare(metadata %"class.std::_Rb_tree"** %2, metadata !3098, metadata !2533), !dbg !3099
  %3 = load %"class.std::_Rb_tree"*, %"class.std::_Rb_tree"** %2, align 4
  %4 = getelementptr inbounds %"class.std::_Rb_tree", %"class.std::_Rb_tree"* %3, i32 0, i32 0, !dbg !3100
  %5 = bitcast %"struct.std::_Rb_tree<long, std::pair<const long, std::vector<std::pair<double, long>, std::allocator<std::pair<double, long> > > >, std::_Select1st<std::pair<const long, std::vector<std::pair<double, long>, std::allocator<std::pair<double, long> > > > >, std::less<long>, std::allocator<std::pair<const long, std::vector<std::pair<double, long>, std::allocator<std::pair<double, long> > > > > >::_Rb_tree_impl"* %4 to i8*, !dbg !3101
  %6 = getelementptr inbounds i8, i8* %5, i32 4, !dbg !3101
  %7 = bitcast i8* %6 to %"struct.std::_Rb_tree_header"*, !dbg !3101
  %8 = getelementptr inbounds %"struct.std::_Rb_tree_header", %"struct.std::_Rb_tree_header"* %7, i32 0, i32 0, !dbg !3102
  ret %"struct.std::_Rb_tree_node_base"* %8, !dbg !3103
}

define linkonce_odr dereferenceable(4) i32* @_ZNSt8_Rb_treeIlSt4pairIKlSt6vectorIS0_IdlESaIS3_EEESt10_Select1stIS6_ESt4lessIlESaIS6_EE6_S_keyEPKSt13_Rb_tree_nodeIS6_E(%"struct.std::_Rb_tree_node"*) #1 comdat align 2 !dbg !3104 !xidane.fname !3105 !xidane.function_declaration_type !3106 !xidane.function_declaration_filename !2747 {
  %2 = alloca %"struct.std::_Rb_tree_node"*, align 4
  %3 = alloca %"struct.std::_Select1st", align 1
  store %"struct.std::_Rb_tree_node"* %0, %"struct.std::_Rb_tree_node"** %2, align 4
  call void @llvm.dbg.declare(metadata %"struct.std::_Rb_tree_node"** %2, metadata !3107, metadata !2533), !dbg !3108
  %4 = load %"struct.std::_Rb_tree_node"*, %"struct.std::_Rb_tree_node"** %2, align 4, !dbg !3109
  %5 = call dereferenceable(16) %"struct.std::pair.3"* @_ZNSt8_Rb_treeIlSt4pairIKlSt6vectorIS0_IdlESaIS3_EEESt10_Select1stIS6_ESt4lessIlESaIS6_EE8_S_valueEPKSt13_Rb_tree_nodeIS6_E(%"struct.std::_Rb_tree_node"* %4), !dbg !3110
  %6 = call dereferenceable(4) i32* @_ZNKSt10_Select1stISt4pairIKlSt6vectorIS0_IdlESaIS3_EEEEclERKS6_(%"struct.std::_Select1st"* %3, %"struct.std::pair.3"* dereferenceable(16) %5), !dbg !3111
  ret i32* %6, !dbg !3113
}

; Function Attrs: nounwind
define linkonce_odr %"struct.std::_Rb_tree_node"* @_ZNSt8_Rb_treeIlSt4pairIKlSt6vectorIS0_IdlESaIS3_EEESt10_Select1stIS6_ESt4lessIlESaIS6_EE7_S_leftEPSt18_Rb_tree_node_base(%"struct.std::_Rb_tree_node_base"*) #0 comdat align 2 !dbg !3114 !xidane.fname !3115 !xidane.function_declaration_type !3116 !xidane.function_declaration_filename !2747 {
  %2 = alloca %"struct.std::_Rb_tree_node_base"*, align 4
  store %"struct.std::_Rb_tree_node_base"* %0, %"struct.std::_Rb_tree_node_base"** %2, align 4
  call void @llvm.dbg.declare(metadata %"struct.std::_Rb_tree_node_base"** %2, metadata !3117, metadata !2533), !dbg !3118
  %3 = load %"struct.std::_Rb_tree_node_base"*, %"struct.std::_Rb_tree_node_base"** %2, align 4, !dbg !3119
  %4 = getelementptr inbounds %"struct.std::_Rb_tree_node_base", %"struct.std::_Rb_tree_node_base"* %3, i32 0, i32 2, !dbg !3120
  %5 = load %"struct.std::_Rb_tree_node_base"*, %"struct.std::_Rb_tree_node_base"** %4, align 4, !dbg !3120
  %6 = bitcast %"struct.std::_Rb_tree_node_base"* %5 to %"struct.std::_Rb_tree_node"*, !dbg !3121
  ret %"struct.std::_Rb_tree_node"* %6, !dbg !3122
}

; Function Attrs: nounwind
define linkonce_odr %"struct.std::_Rb_tree_node"* @_ZNSt8_Rb_treeIlSt4pairIKlSt6vectorIS0_IdlESaIS3_EEESt10_Select1stIS6_ESt4lessIlESaIS6_EE8_S_rightEPSt18_Rb_tree_node_base(%"struct.std::_Rb_tree_node_base"*) #0 comdat align 2 !dbg !3123 !xidane.fname !3124 !xidane.function_declaration_type !3116 !xidane.function_declaration_filename !2747 {
  %2 = alloca %"struct.std::_Rb_tree_node_base"*, align 4
  store %"struct.std::_Rb_tree_node_base"* %0, %"struct.std::_Rb_tree_node_base"** %2, align 4
  call void @llvm.dbg.declare(metadata %"struct.std::_Rb_tree_node_base"** %2, metadata !3125, metadata !2533), !dbg !3126
  %3 = load %"struct.std::_Rb_tree_node_base"*, %"struct.std::_Rb_tree_node_base"** %2, align 4, !dbg !3127
  %4 = getelementptr inbounds %"struct.std::_Rb_tree_node_base", %"struct.std::_Rb_tree_node_base"* %3, i32 0, i32 3, !dbg !3128
  %5 = load %"struct.std::_Rb_tree_node_base"*, %"struct.std::_Rb_tree_node_base"** %4, align 4, !dbg !3128
  %6 = bitcast %"struct.std::_Rb_tree_node_base"* %5 to %"struct.std::_Rb_tree_node"*, !dbg !3129
  ret %"struct.std::_Rb_tree_node"* %6, !dbg !3130
}

; Function Attrs: nounwind
define linkonce_odr %"struct.std::_Rb_tree_iterator"* @_ZNSt17_Rb_tree_iteratorISt4pairIKlSt6vectorIS0_IdlESaIS3_EEEEC2EPSt18_Rb_tree_node_base(%"struct.std::_Rb_tree_iterator"* returned, %"struct.std::_Rb_tree_node_base"*) unnamed_addr #0 comdat align 2 !dbg !3131 !xidane.fname !3132 !xidane.function_declaration_type !3133 !xidane.function_declaration_filename !2747 {
  %3 = alloca %"struct.std::_Rb_tree_iterator"*, align 4
  %4 = alloca %"struct.std::_Rb_tree_node_base"*, align 4
  store %"struct.std::_Rb_tree_iterator"* %0, %"struct.std::_Rb_tree_iterator"** %3, align 4
  call void @llvm.dbg.declare(metadata %"struct.std::_Rb_tree_iterator"** %3, metadata !3134, metadata !2533), !dbg !3136
  store %"struct.std::_Rb_tree_node_base"* %1, %"struct.std::_Rb_tree_node_base"** %4, align 4
  call void @llvm.dbg.declare(metadata %"struct.std::_Rb_tree_node_base"** %4, metadata !3137, metadata !2533), !dbg !3138
  %5 = load %"struct.std::_Rb_tree_iterator"*, %"struct.std::_Rb_tree_iterator"** %3, align 4
  %6 = getelementptr inbounds %"struct.std::_Rb_tree_iterator", %"struct.std::_Rb_tree_iterator"* %5, i32 0, i32 0, !dbg !3139
  %7 = load %"struct.std::_Rb_tree_node_base"*, %"struct.std::_Rb_tree_node_base"** %4, align 4, !dbg !3140
  store %"struct.std::_Rb_tree_node_base"* %7, %"struct.std::_Rb_tree_node_base"** %6, align 4, !dbg !3139
  ret %"struct.std::_Rb_tree_iterator"* %5, !dbg !3141
}

; Function Attrs: nounwind
define linkonce_odr dereferenceable(4) i32* @_ZNKSt10_Select1stISt4pairIKlSt6vectorIS0_IdlESaIS3_EEEEclERKS6_(%"struct.std::_Select1st"*, %"struct.std::pair.3"* dereferenceable(16)) #0 comdat align 2 !dbg !3142 !xidane.fname !2890 !xidane.function_declaration_type !3143 !xidane.function_declaration_filename !2892 {
  %3 = alloca %"struct.std::_Select1st"*, align 4
  %4 = alloca %"struct.std::pair.3"*, align 4
  store %"struct.std::_Select1st"* %0, %"struct.std::_Select1st"** %3, align 4
  call void @llvm.dbg.declare(metadata %"struct.std::_Select1st"** %3, metadata !3144, metadata !2533), !dbg !3146
  store %"struct.std::pair.3"* %1, %"struct.std::pair.3"** %4, align 4
  call void @llvm.dbg.declare(metadata %"struct.std::pair.3"** %4, metadata !3147, metadata !2533), !dbg !3148
  %5 = load %"struct.std::_Select1st"*, %"struct.std::_Select1st"** %3, align 4
  %6 = load %"struct.std::pair.3"*, %"struct.std::pair.3"** %4, align 4, !dbg !3149
  %7 = getelementptr inbounds %"struct.std::pair.3", %"struct.std::pair.3"* %6, i32 0, i32 0, !dbg !3150
  ret i32* %7, !dbg !3151
}

define linkonce_odr dereferenceable(16) %"struct.std::pair.3"* @_ZNSt8_Rb_treeIlSt4pairIKlSt6vectorIS0_IdlESaIS3_EEESt10_Select1stIS6_ESt4lessIlESaIS6_EE8_S_valueEPKSt13_Rb_tree_nodeIS6_E(%"struct.std::_Rb_tree_node"*) #1 comdat align 2 !dbg !3152 !xidane.fname !3153 !xidane.function_declaration_type !3154 !xidane.function_declaration_filename !2747 {
  %2 = alloca %"struct.std::_Rb_tree_node"*, align 4
  store %"struct.std::_Rb_tree_node"* %0, %"struct.std::_Rb_tree_node"** %2, align 4
  call void @llvm.dbg.declare(metadata %"struct.std::_Rb_tree_node"** %2, metadata !3155, metadata !2533), !dbg !3156
  %3 = load %"struct.std::_Rb_tree_node"*, %"struct.std::_Rb_tree_node"** %2, align 4, !dbg !3157
  %4 = call %"struct.std::pair.3"* @_ZNKSt13_Rb_tree_nodeISt4pairIKlSt6vectorIS0_IdlESaIS3_EEEE9_M_valptrEv(%"struct.std::_Rb_tree_node"* %3), !dbg !3158
  ret %"struct.std::pair.3"* %4, !dbg !3159
}

; Function Attrs: nounwind
define linkonce_odr %"struct.std::pair.3"* @_ZNKSt13_Rb_tree_nodeISt4pairIKlSt6vectorIS0_IdlESaIS3_EEEE9_M_valptrEv(%"struct.std::_Rb_tree_node"*) #0 comdat align 2 !dbg !3160 !xidane.fname !3161 !xidane.function_declaration_type !3162 !xidane.function_declaration_filename !2747 {
  %2 = alloca %"struct.std::_Rb_tree_node"*, align 4
  store %"struct.std::_Rb_tree_node"* %0, %"struct.std::_Rb_tree_node"** %2, align 4
  call void @llvm.dbg.declare(metadata %"struct.std::_Rb_tree_node"** %2, metadata !3163, metadata !2533), !dbg !3164
  %3 = load %"struct.std::_Rb_tree_node"*, %"struct.std::_Rb_tree_node"** %2, align 4
  %4 = getelementptr inbounds %"struct.std::_Rb_tree_node", %"struct.std::_Rb_tree_node"* %3, i32 0, i32 1, !dbg !3165
  %5 = call %"struct.std::pair.3"* @_ZNK9__gnu_cxx16__aligned_membufISt4pairIKlSt6vectorIS1_IdlESaIS4_EEEE6_M_ptrEv(%"struct.__gnu_cxx::__aligned_membuf"* %4) #15, !dbg !3166
  ret %"struct.std::pair.3"* %5, !dbg !3167
}

; Function Attrs: nounwind
define linkonce_odr %"struct.std::pair.3"* @_ZNK9__gnu_cxx16__aligned_membufISt4pairIKlSt6vectorIS1_IdlESaIS4_EEEE6_M_ptrEv(%"struct.__gnu_cxx::__aligned_membuf"*) #0 comdat align 2 !dbg !3168 !xidane.fname !3169 !xidane.function_declaration_type !3162 !xidane.function_declaration_filename !3170 {
  %2 = alloca %"struct.__gnu_cxx::__aligned_membuf"*, align 4
  store %"struct.__gnu_cxx::__aligned_membuf"* %0, %"struct.__gnu_cxx::__aligned_membuf"** %2, align 4
  call void @llvm.dbg.declare(metadata %"struct.__gnu_cxx::__aligned_membuf"** %2, metadata !3171, metadata !2533), !dbg !3173
  %3 = load %"struct.__gnu_cxx::__aligned_membuf"*, %"struct.__gnu_cxx::__aligned_membuf"** %2, align 4
  %4 = call i8* @_ZNK9__gnu_cxx16__aligned_membufISt4pairIKlSt6vectorIS1_IdlESaIS4_EEEE7_M_addrEv(%"struct.__gnu_cxx::__aligned_membuf"* %3) #15, !dbg !3174
  %5 = bitcast i8* %4 to %"struct.std::pair.3"*, !dbg !3175
  ret %"struct.std::pair.3"* %5, !dbg !3176
}

; Function Attrs: nounwind
define linkonce_odr i8* @_ZNK9__gnu_cxx16__aligned_membufISt4pairIKlSt6vectorIS1_IdlESaIS4_EEEE7_M_addrEv(%"struct.__gnu_cxx::__aligned_membuf"*) #0 comdat align 2 !dbg !3177 !xidane.fname !3178 !xidane.function_declaration_type !3179 !xidane.function_declaration_filename !3170 {
  %2 = alloca %"struct.__gnu_cxx::__aligned_membuf"*, align 4
  store %"struct.__gnu_cxx::__aligned_membuf"* %0, %"struct.__gnu_cxx::__aligned_membuf"** %2, align 4
  call void @llvm.dbg.declare(metadata %"struct.__gnu_cxx::__aligned_membuf"** %2, metadata !3180, metadata !2533), !dbg !3181
  %3 = load %"struct.__gnu_cxx::__aligned_membuf"*, %"struct.__gnu_cxx::__aligned_membuf"** %2, align 4
  %4 = getelementptr inbounds %"struct.__gnu_cxx::__aligned_membuf", %"struct.__gnu_cxx::__aligned_membuf"* %3, i32 0, i32 0, !dbg !3182
  %5 = bitcast [16 x i8]* %4 to i8*, !dbg !3183
  ret i8* %5, !dbg !3184
}

; Function Attrs: nounwind
define linkonce_odr i32 @_ZNSt8_Rb_treeIlSt4pairIKlSt6vectorIS0_IdlESaIS3_EEESt10_Select1stIS6_ESt4lessIlESaIS6_EE3endEv(%"class.std::_Rb_tree"*) #0 comdat align 2 !dbg !3185 !xidane.fname !2759 !xidane.function_declaration_type !2875 !xidane.function_declaration_filename !2747 {
  %2 = alloca %"struct.std::_Rb_tree_iterator", align 4
  %3 = alloca %"class.std::_Rb_tree"*, align 4
  store %"class.std::_Rb_tree"* %0, %"class.std::_Rb_tree"** %3, align 4
  call void @llvm.dbg.declare(metadata %"class.std::_Rb_tree"** %3, metadata !3186, metadata !2533), !dbg !3187
  %4 = load %"class.std::_Rb_tree"*, %"class.std::_Rb_tree"** %3, align 4
  %5 = getelementptr inbounds %"class.std::_Rb_tree", %"class.std::_Rb_tree"* %4, i32 0, i32 0, !dbg !3188
  %6 = bitcast %"struct.std::_Rb_tree<long, std::pair<const long, std::vector<std::pair<double, long>, std::allocator<std::pair<double, long> > > >, std::_Select1st<std::pair<const long, std::vector<std::pair<double, long>, std::allocator<std::pair<double, long> > > > >, std::less<long>, std::allocator<std::pair<const long, std::vector<std::pair<double, long>, std::allocator<std::pair<double, long> > > > > >::_Rb_tree_impl"* %5 to i8*, !dbg !3189
  %7 = getelementptr inbounds i8, i8* %6, i32 4, !dbg !3189
  %8 = bitcast i8* %7 to %"struct.std::_Rb_tree_header"*, !dbg !3189
  %9 = getelementptr inbounds %"struct.std::_Rb_tree_header", %"struct.std::_Rb_tree_header"* %8, i32 0, i32 0, !dbg !3190
  %10 = call %"struct.std::_Rb_tree_iterator"* @_ZNSt17_Rb_tree_iteratorISt4pairIKlSt6vectorIS0_IdlESaIS3_EEEEC2EPSt18_Rb_tree_node_base(%"struct.std::_Rb_tree_iterator"* %2, %"struct.std::_Rb_tree_node_base"* %9) #15, !dbg !3191
  %11 = getelementptr inbounds %"struct.std::_Rb_tree_iterator", %"struct.std::_Rb_tree_iterator"* %2, i32 0, i32 0, !dbg !3192
  %12 = load %"struct.std::_Rb_tree_node_base"*, %"struct.std::_Rb_tree_node_base"** %11, align 4, !dbg !3192
  %13 = ptrtoint %"struct.std::_Rb_tree_node_base"* %12 to i32, !dbg !3192
  ret i32 %13, !dbg !3192
}

; Function Attrs: nounwind
define linkonce_odr void @_ZNKSt8_Rb_treeIlSt4pairIKlSt6vectorIS0_IdlESaIS3_EEESt10_Select1stIS6_ESt4lessIlESaIS6_EE8key_compEv(%"class.std::_Rb_tree"*) #0 comdat align 2 !dbg !3193 !xidane.fname !2882 !xidane.function_declaration_type !3194 !xidane.function_declaration_filename !2747 {
  %2 = alloca %"struct.std::less", align 1
  %3 = alloca %"class.std::_Rb_tree"*, align 4
  store %"class.std::_Rb_tree"* %0, %"class.std::_Rb_tree"** %3, align 4
  call void @llvm.dbg.declare(metadata %"class.std::_Rb_tree"** %3, metadata !3195, metadata !2533), !dbg !3197
  %4 = load %"class.std::_Rb_tree"*, %"class.std::_Rb_tree"** %3, align 4
  %5 = getelementptr inbounds %"class.std::_Rb_tree", %"class.std::_Rb_tree"* %4, i32 0, i32 0, !dbg !3198
  %6 = bitcast %"struct.std::_Rb_tree<long, std::pair<const long, std::vector<std::pair<double, long>, std::allocator<std::pair<double, long> > > >, std::_Select1st<std::pair<const long, std::vector<std::pair<double, long>, std::allocator<std::pair<double, long> > > > >, std::less<long>, std::allocator<std::pair<const long, std::vector<std::pair<double, long>, std::allocator<std::pair<double, long> > > > > >::_Rb_tree_impl"* %5 to %"struct.std::_Rb_tree_key_compare"*, !dbg !3198
  %7 = getelementptr inbounds %"struct.std::_Rb_tree_key_compare", %"struct.std::_Rb_tree_key_compare"* %6, i32 0, i32 0, !dbg !3199
  ret void, !dbg !3200
}

; Function Attrs: nounwind
define linkonce_odr %"struct.std::pair.3"* @_ZNSt13_Rb_tree_nodeISt4pairIKlSt6vectorIS0_IdlESaIS3_EEEE9_M_valptrEv(%"struct.std::_Rb_tree_node"*) #0 comdat align 2 !dbg !3201 !xidane.fname !3161 !xidane.function_declaration_type !3202 !xidane.function_declaration_filename !2747 {
  %2 = alloca %"struct.std::_Rb_tree_node"*, align 4
  store %"struct.std::_Rb_tree_node"* %0, %"struct.std::_Rb_tree_node"** %2, align 4
  call void @llvm.dbg.declare(metadata %"struct.std::_Rb_tree_node"** %2, metadata !3203, metadata !2533), !dbg !3204
  %3 = load %"struct.std::_Rb_tree_node"*, %"struct.std::_Rb_tree_node"** %2, align 4
  %4 = getelementptr inbounds %"struct.std::_Rb_tree_node", %"struct.std::_Rb_tree_node"* %3, i32 0, i32 1, !dbg !3205
  %5 = call %"struct.std::pair.3"* @_ZN9__gnu_cxx16__aligned_membufISt4pairIKlSt6vectorIS1_IdlESaIS4_EEEE6_M_ptrEv(%"struct.__gnu_cxx::__aligned_membuf"* %4) #15, !dbg !3206
  ret %"struct.std::pair.3"* %5, !dbg !3207
}

; Function Attrs: nounwind
define linkonce_odr %"struct.std::pair.3"* @_ZN9__gnu_cxx16__aligned_membufISt4pairIKlSt6vectorIS1_IdlESaIS4_EEEE6_M_ptrEv(%"struct.__gnu_cxx::__aligned_membuf"*) #0 comdat align 2 !dbg !3208 !xidane.fname !3169 !xidane.function_declaration_type !3202 !xidane.function_declaration_filename !3170 {
  %2 = alloca %"struct.__gnu_cxx::__aligned_membuf"*, align 4
  store %"struct.__gnu_cxx::__aligned_membuf"* %0, %"struct.__gnu_cxx::__aligned_membuf"** %2, align 4
  call void @llvm.dbg.declare(metadata %"struct.__gnu_cxx::__aligned_membuf"** %2, metadata !3209, metadata !2533), !dbg !3211
  %3 = load %"struct.__gnu_cxx::__aligned_membuf"*, %"struct.__gnu_cxx::__aligned_membuf"** %2, align 4
  %4 = call i8* @_ZN9__gnu_cxx16__aligned_membufISt4pairIKlSt6vectorIS1_IdlESaIS4_EEEE7_M_addrEv(%"struct.__gnu_cxx::__aligned_membuf"* %3) #15, !dbg !3212
  %5 = bitcast i8* %4 to %"struct.std::pair.3"*, !dbg !3213
  ret %"struct.std::pair.3"* %5, !dbg !3214
}

; Function Attrs: nounwind
define linkonce_odr i8* @_ZN9__gnu_cxx16__aligned_membufISt4pairIKlSt6vectorIS1_IdlESaIS4_EEEE7_M_addrEv(%"struct.__gnu_cxx::__aligned_membuf"*) #0 comdat align 2 !dbg !3215 !xidane.fname !3178 !xidane.function_declaration_type !3216 !xidane.function_declaration_filename !3170 {
  %2 = alloca %"struct.__gnu_cxx::__aligned_membuf"*, align 4
  store %"struct.__gnu_cxx::__aligned_membuf"* %0, %"struct.__gnu_cxx::__aligned_membuf"** %2, align 4
  call void @llvm.dbg.declare(metadata %"struct.__gnu_cxx::__aligned_membuf"** %2, metadata !3217, metadata !2533), !dbg !3218
  %3 = load %"struct.__gnu_cxx::__aligned_membuf"*, %"struct.__gnu_cxx::__aligned_membuf"** %2, align 4
  %4 = getelementptr inbounds %"struct.__gnu_cxx::__aligned_membuf", %"struct.__gnu_cxx::__aligned_membuf"* %3, i32 0, i32 0, !dbg !3219
  %5 = bitcast [16 x i8]* %4 to i8*, !dbg !3220
  ret i8* %5, !dbg !3221
}

define linkonce_odr %"struct.std::_Rb_tree_node"* @_ZNSt8_Rb_treeIlSt4pairIKlSt6vectorIS0_IdlESaIS3_EEESt10_Select1stIS6_ESt4lessIlESaIS6_EE14_M_create_nodeIJRKSt21piecewise_construct_tSt5tupleIJRS1_EESH_IJEEEEEPSt13_Rb_tree_nodeIS6_EDpOT_(%"class.std::_Rb_tree"*, %"struct.std::piecewise_construct_t"* dereferenceable(1), %"class.std::tuple"* dereferenceable(4), %"class.std::tuple.4"* dereferenceable(1)) #1 comdat align 2 !dbg !3222 !xidane.fname !3226 !xidane.function_declaration_type !3227 !xidane.function_declaration_filename !2747 {
  %5 = alloca %"class.std::_Rb_tree"*, align 4
  %6 = alloca %"struct.std::piecewise_construct_t"*, align 4
  %7 = alloca %"class.std::tuple"*, align 4
  %8 = alloca %"class.std::tuple.4"*, align 4
  %9 = alloca %"struct.std::_Rb_tree_node"*, align 4
  store %"class.std::_Rb_tree"* %0, %"class.std::_Rb_tree"** %5, align 4
  call void @llvm.dbg.declare(metadata %"class.std::_Rb_tree"** %5, metadata !3228, metadata !2533), !dbg !3229
  store %"struct.std::piecewise_construct_t"* %1, %"struct.std::piecewise_construct_t"** %6, align 4
  call void @llvm.dbg.declare(metadata %"struct.std::piecewise_construct_t"** %6, metadata !3230, metadata !2533), !dbg !3231
  store %"class.std::tuple"* %2, %"class.std::tuple"** %7, align 4
  call void @llvm.dbg.declare(metadata %"class.std::tuple"** %7, metadata !3232, metadata !2533), !dbg !3231
  store %"class.std::tuple.4"* %3, %"class.std::tuple.4"** %8, align 4
  call void @llvm.dbg.declare(metadata %"class.std::tuple.4"** %8, metadata !3233, metadata !2533), !dbg !3231
  %10 = load %"class.std::_Rb_tree"*, %"class.std::_Rb_tree"** %5, align 4
  call void @llvm.dbg.declare(metadata %"struct.std::_Rb_tree_node"** %9, metadata !3234, metadata !2533), !dbg !3235
  %11 = call %"struct.std::_Rb_tree_node"* @_ZNSt8_Rb_treeIlSt4pairIKlSt6vectorIS0_IdlESaIS3_EEESt10_Select1stIS6_ESt4lessIlESaIS6_EE11_M_get_nodeEv(%"class.std::_Rb_tree"* %10), !dbg !3236
  store %"struct.std::_Rb_tree_node"* %11, %"struct.std::_Rb_tree_node"** %9, align 4, !dbg !3235
  %12 = load %"struct.std::_Rb_tree_node"*, %"struct.std::_Rb_tree_node"** %9, align 4, !dbg !3237
  %13 = load %"struct.std::piecewise_construct_t"*, %"struct.std::piecewise_construct_t"** %6, align 4, !dbg !3238
  %14 = call dereferenceable(1) %"struct.std::piecewise_construct_t"* @_ZSt7forwardIRKSt21piecewise_construct_tEOT_RNSt16remove_referenceIS3_E4typeE(%"struct.std::piecewise_construct_t"* dereferenceable(1) %13) #15, !dbg !3239
  %15 = load %"class.std::tuple"*, %"class.std::tuple"** %7, align 4, !dbg !3238
  %16 = call dereferenceable(4) %"class.std::tuple"* @_ZSt7forwardISt5tupleIJRKlEEEOT_RNSt16remove_referenceIS4_E4typeE(%"class.std::tuple"* dereferenceable(4) %15) #15, !dbg !3240
  %17 = load %"class.std::tuple.4"*, %"class.std::tuple.4"** %8, align 4, !dbg !3238
  %18 = call dereferenceable(1) %"class.std::tuple.4"* @_ZSt7forwardISt5tupleIJEEEOT_RNSt16remove_referenceIS2_E4typeE(%"class.std::tuple.4"* dereferenceable(1) %17) #15, !dbg !3242
  call void @_ZNSt8_Rb_treeIlSt4pairIKlSt6vectorIS0_IdlESaIS3_EEESt10_Select1stIS6_ESt4lessIlESaIS6_EE17_M_construct_nodeIJRKSt21piecewise_construct_tSt5tupleIJRS1_EESH_IJEEEEEvPSt13_Rb_tree_nodeIS6_EDpOT_(%"class.std::_Rb_tree"* %10, %"struct.std::_Rb_tree_node"* %12, %"struct.std::piecewise_construct_t"* dereferenceable(1) %14, %"class.std::tuple"* dereferenceable(4) %16, %"class.std::tuple.4"* dereferenceable(1) %18), !dbg !3244
  %19 = load %"struct.std::_Rb_tree_node"*, %"struct.std::_Rb_tree_node"** %9, align 4, !dbg !3246
  ret %"struct.std::_Rb_tree_node"* %19, !dbg !3247
}

; Function Attrs: nounwind
define linkonce_odr dereferenceable(1) %"struct.std::piecewise_construct_t"* @_ZSt7forwardIRKSt21piecewise_construct_tEOT_RNSt16remove_referenceIS3_E4typeE(%"struct.std::piecewise_construct_t"* dereferenceable(1)) #0 comdat !dbg !3248 !xidane.fname !3257 !xidane.function_declaration_type !3258 !xidane.function_declaration_filename !3259 {
  %2 = alloca %"struct.std::piecewise_construct_t"*, align 4
  store %"struct.std::piecewise_construct_t"* %0, %"struct.std::piecewise_construct_t"** %2, align 4
  call void @llvm.dbg.declare(metadata %"struct.std::piecewise_construct_t"** %2, metadata !3260, metadata !2533), !dbg !3261
  %3 = load %"struct.std::piecewise_construct_t"*, %"struct.std::piecewise_construct_t"** %2, align 4, !dbg !3262
  ret %"struct.std::piecewise_construct_t"* %3, !dbg !3263
}

; Function Attrs: nounwind
define linkonce_odr dereferenceable(4) %"class.std::tuple"* @_ZSt7forwardISt5tupleIJRKlEEEOT_RNSt16remove_referenceIS4_E4typeE(%"class.std::tuple"* dereferenceable(4)) #0 comdat !dbg !3264 !xidane.fname !3257 !xidane.function_declaration_type !3272 !xidane.function_declaration_filename !3259 {
  %2 = alloca %"class.std::tuple"*, align 4
  store %"class.std::tuple"* %0, %"class.std::tuple"** %2, align 4
  call void @llvm.dbg.declare(metadata %"class.std::tuple"** %2, metadata !3273, metadata !2533), !dbg !3274
  %3 = load %"class.std::tuple"*, %"class.std::tuple"** %2, align 4, !dbg !3275
  ret %"class.std::tuple"* %3, !dbg !3276
}

; Function Attrs: nounwind
define linkonce_odr dereferenceable(1) %"class.std::tuple.4"* @_ZSt7forwardISt5tupleIJEEEOT_RNSt16remove_referenceIS2_E4typeE(%"class.std::tuple.4"* dereferenceable(1)) #0 comdat !dbg !3277 !xidane.fname !3257 !xidane.function_declaration_type !3285 !xidane.function_declaration_filename !3259 {
  %2 = alloca %"class.std::tuple.4"*, align 4
  store %"class.std::tuple.4"* %0, %"class.std::tuple.4"** %2, align 4
  call void @llvm.dbg.declare(metadata %"class.std::tuple.4"** %2, metadata !3286, metadata !2533), !dbg !3287
  %3 = load %"class.std::tuple.4"*, %"class.std::tuple.4"** %2, align 4, !dbg !3288
  ret %"class.std::tuple.4"* %3, !dbg !3289
}

define linkonce_odr void @_ZNSt8_Rb_treeIlSt4pairIKlSt6vectorIS0_IdlESaIS3_EEESt10_Select1stIS6_ESt4lessIlESaIS6_EE29_M_get_insert_hint_unique_posESt23_Rb_tree_const_iteratorIS6_ERS1_(%"struct.std::pair.5"* noalias sret, %"class.std::_Rb_tree"*, [1 x i32], i32* dereferenceable(4)) #1 comdat align 2 !dbg !3290 !xidane.fname !3291 !xidane.function_declaration_type !3292 !xidane.function_declaration_filename !2747 {
  %5 = alloca %"struct.std::_Rb_tree_const_iterator", align 4
  %6 = alloca %"class.std::_Rb_tree"*, align 4
  %7 = alloca i32*, align 4
  %8 = alloca %"struct.std::_Rb_tree_iterator", align 4
  %9 = alloca %"struct.std::_Rb_tree_node_base"*, align 4
  %10 = alloca %"struct.std::_Rb_tree_iterator", align 4
  %11 = alloca %"struct.std::_Rb_tree_node_base"*, align 4
  %12 = alloca %"struct.std::_Rb_tree_iterator", align 4
  %13 = alloca %"struct.std::_Rb_tree_node_base"*, align 4
  %14 = alloca %"struct.std::_Rb_tree_node_base"*, align 4
  %15 = alloca %"struct.std::_Rb_tree_node_base"*, align 4
  %16 = getelementptr inbounds %"struct.std::_Rb_tree_const_iterator", %"struct.std::_Rb_tree_const_iterator"* %5, i32 0, i32 0
  %17 = bitcast %"struct.std::_Rb_tree_node_base"** %16 to [1 x i32]*
  store [1 x i32] %2, [1 x i32]* %17, align 4
  store %"class.std::_Rb_tree"* %1, %"class.std::_Rb_tree"** %6, align 4
  call void @llvm.dbg.declare(metadata %"class.std::_Rb_tree"** %6, metadata !3293, metadata !2533), !dbg !3294
  call void @llvm.dbg.declare(metadata %"struct.std::_Rb_tree_const_iterator"* %5, metadata !3295, metadata !2533), !dbg !3296
  store i32* %3, i32** %7, align 4
  call void @llvm.dbg.declare(metadata i32** %7, metadata !3297, metadata !2533), !dbg !3298
  %18 = load %"class.std::_Rb_tree"*, %"class.std::_Rb_tree"** %6, align 4
  call void @llvm.dbg.declare(metadata %"struct.std::_Rb_tree_iterator"* %8, metadata !3299, metadata !2533), !dbg !3300
  %19 = call i32 @_ZNKSt23_Rb_tree_const_iteratorISt4pairIKlSt6vectorIS0_IdlESaIS3_EEEE13_M_const_castEv(%"struct.std::_Rb_tree_const_iterator"* %5) #15, !dbg !3301
  %20 = getelementptr inbounds %"struct.std::_Rb_tree_iterator", %"struct.std::_Rb_tree_iterator"* %8, i32 0, i32 0, !dbg !3301
  %21 = inttoptr i32 %19 to %"struct.std::_Rb_tree_node_base"*, !dbg !3301
  store %"struct.std::_Rb_tree_node_base"* %21, %"struct.std::_Rb_tree_node_base"** %20, align 4, !dbg !3301
  %22 = getelementptr inbounds %"struct.std::_Rb_tree_iterator", %"struct.std::_Rb_tree_iterator"* %8, i32 0, i32 0, !dbg !3302
  %23 = load %"struct.std::_Rb_tree_node_base"*, %"struct.std::_Rb_tree_node_base"** %22, align 4, !dbg !3302
  %24 = call %"struct.std::_Rb_tree_node_base"* @_ZNSt8_Rb_treeIlSt4pairIKlSt6vectorIS0_IdlESaIS3_EEESt10_Select1stIS6_ESt4lessIlESaIS6_EE6_M_endEv(%"class.std::_Rb_tree"* %18) #15, !dbg !3304
  %25 = icmp eq %"struct.std::_Rb_tree_node_base"* %23, %24, !dbg !3305
  br i1 %25, label %26, label %43, !dbg !3306

; <label>:26:                                     ; preds = %4
  %27 = call i32 @_ZNKSt8_Rb_treeIlSt4pairIKlSt6vectorIS0_IdlESaIS3_EEESt10_Select1stIS6_ESt4lessIlESaIS6_EE4sizeEv(%"class.std::_Rb_tree"* %18) #15, !dbg !3307
  %28 = icmp ugt i32 %27, 0, !dbg !3310
  br i1 %28, label %29, label %41, !dbg !3311

; <label>:29:                                     ; preds = %26
  %30 = getelementptr inbounds %"class.std::_Rb_tree", %"class.std::_Rb_tree"* %18, i32 0, i32 0, !dbg !3312
  %31 = bitcast %"struct.std::_Rb_tree<long, std::pair<const long, std::vector<std::pair<double, long>, std::allocator<std::pair<double, long> > > >, std::_Select1st<std::pair<const long, std::vector<std::pair<double, long>, std::allocator<std::pair<double, long> > > > >, std::less<long>, std::allocator<std::pair<const long, std::vector<std::pair<double, long>, std::allocator<std::pair<double, long> > > > > >::_Rb_tree_impl"* %30 to %"struct.std::_Rb_tree_key_compare"*, !dbg !3312
  %32 = getelementptr inbounds %"struct.std::_Rb_tree_key_compare", %"struct.std::_Rb_tree_key_compare"* %31, i32 0, i32 0, !dbg !3314
  %33 = call dereferenceable(4) %"struct.std::_Rb_tree_node_base"** @_ZNSt8_Rb_treeIlSt4pairIKlSt6vectorIS0_IdlESaIS3_EEESt10_Select1stIS6_ESt4lessIlESaIS6_EE12_M_rightmostEv(%"class.std::_Rb_tree"* %18) #15, !dbg !3315
  %34 = load %"struct.std::_Rb_tree_node_base"*, %"struct.std::_Rb_tree_node_base"** %33, align 4, !dbg !3315
  %35 = call dereferenceable(4) i32* @_ZNSt8_Rb_treeIlSt4pairIKlSt6vectorIS0_IdlESaIS3_EEESt10_Select1stIS6_ESt4lessIlESaIS6_EE6_S_keyEPKSt18_Rb_tree_node_base(%"struct.std::_Rb_tree_node_base"* %34), !dbg !3316
  %36 = load i32*, i32** %7, align 4, !dbg !3318
  %37 = call zeroext i1 @_ZNKSt4lessIlEclERKlS2_(%"struct.std::less"* %32, i32* dereferenceable(4) %35, i32* dereferenceable(4) %36), !dbg !3319
  br i1 %37, label %38, label %41, !dbg !3321

; <label>:38:                                     ; preds = %29
  store %"struct.std::_Rb_tree_node_base"* null, %"struct.std::_Rb_tree_node_base"** %9, align 4, !dbg !3323
  %39 = call dereferenceable(4) %"struct.std::_Rb_tree_node_base"** @_ZNSt8_Rb_treeIlSt4pairIKlSt6vectorIS0_IdlESaIS3_EEESt10_Select1stIS6_ESt4lessIlESaIS6_EE12_M_rightmostEv(%"class.std::_Rb_tree"* %18) #15, !dbg !3324
  %40 = call %"struct.std::pair.5"* @_ZNSt4pairIPSt18_Rb_tree_node_baseS1_EC2IRS1_Lb1EEERKS1_OT_(%"struct.std::pair.5"* %0, %"struct.std::_Rb_tree_node_base"** dereferenceable(4) %9, %"struct.std::_Rb_tree_node_base"** dereferenceable(4) %39), !dbg !3325
  br label %135, !dbg !3326

; <label>:41:                                     ; preds = %29, %26
  %42 = load i32*, i32** %7, align 4, !dbg !3327
  call void @_ZNSt8_Rb_treeIlSt4pairIKlSt6vectorIS0_IdlESaIS3_EEESt10_Select1stIS6_ESt4lessIlESaIS6_EE24_M_get_insert_unique_posERS1_(%"struct.std::pair.5"* sret %0, %"class.std::_Rb_tree"* %18, i32* dereferenceable(4) %42), !dbg !3328
  br label %135, !dbg !3329

; <label>:43:                                     ; preds = %4
  %44 = getelementptr inbounds %"class.std::_Rb_tree", %"class.std::_Rb_tree"* %18, i32 0, i32 0, !dbg !3330
  %45 = bitcast %"struct.std::_Rb_tree<long, std::pair<const long, std::vector<std::pair<double, long>, std::allocator<std::pair<double, long> > > >, std::_Select1st<std::pair<const long, std::vector<std::pair<double, long>, std::allocator<std::pair<double, long> > > > >, std::less<long>, std::allocator<std::pair<const long, std::vector<std::pair<double, long>, std::allocator<std::pair<double, long> > > > > >::_Rb_tree_impl"* %44 to %"struct.std::_Rb_tree_key_compare"*, !dbg !3330
  %46 = getelementptr inbounds %"struct.std::_Rb_tree_key_compare", %"struct.std::_Rb_tree_key_compare"* %45, i32 0, i32 0, !dbg !3332
  %47 = load i32*, i32** %7, align 4, !dbg !3333
  %48 = getelementptr inbounds %"struct.std::_Rb_tree_iterator", %"struct.std::_Rb_tree_iterator"* %8, i32 0, i32 0, !dbg !3334
  %49 = load %"struct.std::_Rb_tree_node_base"*, %"struct.std::_Rb_tree_node_base"** %48, align 4, !dbg !3334
  %50 = call dereferenceable(4) i32* @_ZNSt8_Rb_treeIlSt4pairIKlSt6vectorIS0_IdlESaIS3_EEESt10_Select1stIS6_ESt4lessIlESaIS6_EE6_S_keyEPKSt18_Rb_tree_node_base(%"struct.std::_Rb_tree_node_base"* %49), !dbg !3335
  %51 = call zeroext i1 @_ZNKSt4lessIlEclERKlS2_(%"struct.std::less"* %46, i32* dereferenceable(4) %47, i32* dereferenceable(4) %50), !dbg !3336
  br i1 %51, label %52, label %88, !dbg !3338

; <label>:52:                                     ; preds = %43
  call void @llvm.dbg.declare(metadata %"struct.std::_Rb_tree_iterator"* %10, metadata !3339, metadata !2533), !dbg !3341
  %53 = bitcast %"struct.std::_Rb_tree_iterator"* %10 to i8*, !dbg !3342
  %54 = bitcast %"struct.std::_Rb_tree_iterator"* %8 to i8*, !dbg !3342
  call void @llvm.memcpy.p0i8.p0i8.i32(i8* %53, i8* %54, i32 4, i32 4, i1 false), !dbg !3342
  %55 = getelementptr inbounds %"struct.std::_Rb_tree_iterator", %"struct.std::_Rb_tree_iterator"* %8, i32 0, i32 0, !dbg !3343
  %56 = load %"struct.std::_Rb_tree_node_base"*, %"struct.std::_Rb_tree_node_base"** %55, align 4, !dbg !3343
  %57 = call dereferenceable(4) %"struct.std::_Rb_tree_node_base"** @_ZNSt8_Rb_treeIlSt4pairIKlSt6vectorIS0_IdlESaIS3_EEESt10_Select1stIS6_ESt4lessIlESaIS6_EE11_M_leftmostEv(%"class.std::_Rb_tree"* %18) #15, !dbg !3345
  %58 = load %"struct.std::_Rb_tree_node_base"*, %"struct.std::_Rb_tree_node_base"** %57, align 4, !dbg !3345
  %59 = icmp eq %"struct.std::_Rb_tree_node_base"* %56, %58, !dbg !3346
  br i1 %59, label %60, label %64, !dbg !3347

; <label>:60:                                     ; preds = %52
  %61 = call dereferenceable(4) %"struct.std::_Rb_tree_node_base"** @_ZNSt8_Rb_treeIlSt4pairIKlSt6vectorIS0_IdlESaIS3_EEESt10_Select1stIS6_ESt4lessIlESaIS6_EE11_M_leftmostEv(%"class.std::_Rb_tree"* %18) #15, !dbg !3348
  %62 = call dereferenceable(4) %"struct.std::_Rb_tree_node_base"** @_ZNSt8_Rb_treeIlSt4pairIKlSt6vectorIS0_IdlESaIS3_EEESt10_Select1stIS6_ESt4lessIlESaIS6_EE11_M_leftmostEv(%"class.std::_Rb_tree"* %18) #15, !dbg !3349
  %63 = call %"struct.std::pair.5"* @_ZNSt4pairIPSt18_Rb_tree_node_baseS1_EC2IRS1_S4_Lb1EEEOT_OT0_(%"struct.std::pair.5"* %0, %"struct.std::_Rb_tree_node_base"** dereferenceable(4) %61, %"struct.std::_Rb_tree_node_base"** dereferenceable(4) %62), !dbg !3351
  br label %135, !dbg !3353

; <label>:64:                                     ; preds = %52
  %65 = getelementptr inbounds %"class.std::_Rb_tree", %"class.std::_Rb_tree"* %18, i32 0, i32 0, !dbg !3354
  %66 = bitcast %"struct.std::_Rb_tree<long, std::pair<const long, std::vector<std::pair<double, long>, std::allocator<std::pair<double, long> > > >, std::_Select1st<std::pair<const long, std::vector<std::pair<double, long>, std::allocator<std::pair<double, long> > > > >, std::less<long>, std::allocator<std::pair<const long, std::vector<std::pair<double, long>, std::allocator<std::pair<double, long> > > > > >::_Rb_tree_impl"* %65 to %"struct.std::_Rb_tree_key_compare"*, !dbg !3354
  %67 = getelementptr inbounds %"struct.std::_Rb_tree_key_compare", %"struct.std::_Rb_tree_key_compare"* %66, i32 0, i32 0, !dbg !3356
  %68 = call dereferenceable(4) %"struct.std::_Rb_tree_iterator"* @_ZNSt17_Rb_tree_iteratorISt4pairIKlSt6vectorIS0_IdlESaIS3_EEEEmmEv(%"struct.std::_Rb_tree_iterator"* %10) #15, !dbg !3357
  %69 = getelementptr inbounds %"struct.std::_Rb_tree_iterator", %"struct.std::_Rb_tree_iterator"* %68, i32 0, i32 0, !dbg !3358
  %70 = load %"struct.std::_Rb_tree_node_base"*, %"struct.std::_Rb_tree_node_base"** %69, align 4, !dbg !3358
  %71 = call dereferenceable(4) i32* @_ZNSt8_Rb_treeIlSt4pairIKlSt6vectorIS0_IdlESaIS3_EEESt10_Select1stIS6_ESt4lessIlESaIS6_EE6_S_keyEPKSt18_Rb_tree_node_base(%"struct.std::_Rb_tree_node_base"* %70), !dbg !3359
  %72 = load i32*, i32** %7, align 4, !dbg !3361
  %73 = call zeroext i1 @_ZNKSt4lessIlEclERKlS2_(%"struct.std::less"* %67, i32* dereferenceable(4) %71, i32* dereferenceable(4) %72), !dbg !3362
  br i1 %73, label %74, label %86, !dbg !3364

; <label>:74:                                     ; preds = %64
  %75 = getelementptr inbounds %"struct.std::_Rb_tree_iterator", %"struct.std::_Rb_tree_iterator"* %10, i32 0, i32 0, !dbg !3365
  %76 = load %"struct.std::_Rb_tree_node_base"*, %"struct.std::_Rb_tree_node_base"** %75, align 4, !dbg !3365
  %77 = call %"struct.std::_Rb_tree_node"* @_ZNSt8_Rb_treeIlSt4pairIKlSt6vectorIS0_IdlESaIS3_EEESt10_Select1stIS6_ESt4lessIlESaIS6_EE8_S_rightEPSt18_Rb_tree_node_base(%"struct.std::_Rb_tree_node_base"* %76) #15, !dbg !3368
  %78 = icmp eq %"struct.std::_Rb_tree_node"* %77, null, !dbg !3369
  br i1 %78, label %79, label %82, !dbg !3370

; <label>:79:                                     ; preds = %74
  store %"struct.std::_Rb_tree_node_base"* null, %"struct.std::_Rb_tree_node_base"** %11, align 4, !dbg !3371
  %80 = getelementptr inbounds %"struct.std::_Rb_tree_iterator", %"struct.std::_Rb_tree_iterator"* %10, i32 0, i32 0, !dbg !3372
  %81 = call %"struct.std::pair.5"* @_ZNSt4pairIPSt18_Rb_tree_node_baseS1_EC2IRS1_Lb1EEERKS1_OT_(%"struct.std::pair.5"* %0, %"struct.std::_Rb_tree_node_base"** dereferenceable(4) %11, %"struct.std::_Rb_tree_node_base"** dereferenceable(4) %80), !dbg !3373
  br label %135, !dbg !3374

; <label>:82:                                     ; preds = %74
  %83 = getelementptr inbounds %"struct.std::_Rb_tree_iterator", %"struct.std::_Rb_tree_iterator"* %8, i32 0, i32 0, !dbg !3375
  %84 = getelementptr inbounds %"struct.std::_Rb_tree_iterator", %"struct.std::_Rb_tree_iterator"* %8, i32 0, i32 0, !dbg !3376
  %85 = call %"struct.std::pair.5"* @_ZNSt4pairIPSt18_Rb_tree_node_baseS1_EC2IRS1_S4_Lb1EEEOT_OT0_(%"struct.std::pair.5"* %0, %"struct.std::_Rb_tree_node_base"** dereferenceable(4) %83, %"struct.std::_Rb_tree_node_base"** dereferenceable(4) %84), !dbg !3377
  br label %135, !dbg !3378

; <label>:86:                                     ; preds = %64
  %87 = load i32*, i32** %7, align 4, !dbg !3379
  call void @_ZNSt8_Rb_treeIlSt4pairIKlSt6vectorIS0_IdlESaIS3_EEESt10_Select1stIS6_ESt4lessIlESaIS6_EE24_M_get_insert_unique_posERS1_(%"struct.std::pair.5"* sret %0, %"class.std::_Rb_tree"* %18, i32* dereferenceable(4) %87), !dbg !3380
  br label %135, !dbg !3381

; <label>:88:                                     ; preds = %43
  %89 = getelementptr inbounds %"class.std::_Rb_tree", %"class.std::_Rb_tree"* %18, i32 0, i32 0, !dbg !3382
  %90 = bitcast %"struct.std::_Rb_tree<long, std::pair<const long, std::vector<std::pair<double, long>, std::allocator<std::pair<double, long> > > >, std::_Select1st<std::pair<const long, std::vector<std::pair<double, long>, std::allocator<std::pair<double, long> > > > >, std::less<long>, std::allocator<std::pair<const long, std::vector<std::pair<double, long>, std::allocator<std::pair<double, long> > > > > >::_Rb_tree_impl"* %89 to %"struct.std::_Rb_tree_key_compare"*, !dbg !3382
  %91 = getelementptr inbounds %"struct.std::_Rb_tree_key_compare", %"struct.std::_Rb_tree_key_compare"* %90, i32 0, i32 0, !dbg !3384
  %92 = getelementptr inbounds %"struct.std::_Rb_tree_iterator", %"struct.std::_Rb_tree_iterator"* %8, i32 0, i32 0, !dbg !3385
  %93 = load %"struct.std::_Rb_tree_node_base"*, %"struct.std::_Rb_tree_node_base"** %92, align 4, !dbg !3385
  %94 = call dereferenceable(4) i32* @_ZNSt8_Rb_treeIlSt4pairIKlSt6vectorIS0_IdlESaIS3_EEESt10_Select1stIS6_ESt4lessIlESaIS6_EE6_S_keyEPKSt18_Rb_tree_node_base(%"struct.std::_Rb_tree_node_base"* %93), !dbg !3386
  %95 = load i32*, i32** %7, align 4, !dbg !3387
  %96 = call zeroext i1 @_ZNKSt4lessIlEclERKlS2_(%"struct.std::less"* %91, i32* dereferenceable(4) %94, i32* dereferenceable(4) %95), !dbg !3388
  br i1 %96, label %97, label %132, !dbg !3390

; <label>:97:                                     ; preds = %88
  call void @llvm.dbg.declare(metadata %"struct.std::_Rb_tree_iterator"* %12, metadata !3391, metadata !2533), !dbg !3393
  %98 = bitcast %"struct.std::_Rb_tree_iterator"* %12 to i8*, !dbg !3394
  %99 = bitcast %"struct.std::_Rb_tree_iterator"* %8 to i8*, !dbg !3394
  call void @llvm.memcpy.p0i8.p0i8.i32(i8* %98, i8* %99, i32 4, i32 4, i1 false), !dbg !3394
  %100 = getelementptr inbounds %"struct.std::_Rb_tree_iterator", %"struct.std::_Rb_tree_iterator"* %8, i32 0, i32 0, !dbg !3395
  %101 = load %"struct.std::_Rb_tree_node_base"*, %"struct.std::_Rb_tree_node_base"** %100, align 4, !dbg !3395
  %102 = call dereferenceable(4) %"struct.std::_Rb_tree_node_base"** @_ZNSt8_Rb_treeIlSt4pairIKlSt6vectorIS0_IdlESaIS3_EEESt10_Select1stIS6_ESt4lessIlESaIS6_EE12_M_rightmostEv(%"class.std::_Rb_tree"* %18) #15, !dbg !3397
  %103 = load %"struct.std::_Rb_tree_node_base"*, %"struct.std::_Rb_tree_node_base"** %102, align 4, !dbg !3397
  %104 = icmp eq %"struct.std::_Rb_tree_node_base"* %101, %103, !dbg !3398
  br i1 %104, label %105, label %108, !dbg !3399

; <label>:105:                                    ; preds = %97
  store %"struct.std::_Rb_tree_node_base"* null, %"struct.std::_Rb_tree_node_base"** %13, align 4, !dbg !3400
  %106 = call dereferenceable(4) %"struct.std::_Rb_tree_node_base"** @_ZNSt8_Rb_treeIlSt4pairIKlSt6vectorIS0_IdlESaIS3_EEESt10_Select1stIS6_ESt4lessIlESaIS6_EE12_M_rightmostEv(%"class.std::_Rb_tree"* %18) #15, !dbg !3401
  %107 = call %"struct.std::pair.5"* @_ZNSt4pairIPSt18_Rb_tree_node_baseS1_EC2IRS1_Lb1EEERKS1_OT_(%"struct.std::pair.5"* %0, %"struct.std::_Rb_tree_node_base"** dereferenceable(4) %13, %"struct.std::_Rb_tree_node_base"** dereferenceable(4) %106), !dbg !3402
  br label %135, !dbg !3404

; <label>:108:                                    ; preds = %97
  %109 = getelementptr inbounds %"class.std::_Rb_tree", %"class.std::_Rb_tree"* %18, i32 0, i32 0, !dbg !3405
  %110 = bitcast %"struct.std::_Rb_tree<long, std::pair<const long, std::vector<std::pair<double, long>, std::allocator<std::pair<double, long> > > >, std::_Select1st<std::pair<const long, std::vector<std::pair<double, long>, std::allocator<std::pair<double, long> > > > >, std::less<long>, std::allocator<std::pair<const long, std::vector<std::pair<double, long>, std::allocator<std::pair<double, long> > > > > >::_Rb_tree_impl"* %109 to %"struct.std::_Rb_tree_key_compare"*, !dbg !3405
  %111 = getelementptr inbounds %"struct.std::_Rb_tree_key_compare", %"struct.std::_Rb_tree_key_compare"* %110, i32 0, i32 0, !dbg !3407
  %112 = load i32*, i32** %7, align 4, !dbg !3408
  %113 = call dereferenceable(4) %"struct.std::_Rb_tree_iterator"* @_ZNSt17_Rb_tree_iteratorISt4pairIKlSt6vectorIS0_IdlESaIS3_EEEEppEv(%"struct.std::_Rb_tree_iterator"* %12) #15, !dbg !3409
  %114 = getelementptr inbounds %"struct.std::_Rb_tree_iterator", %"struct.std::_Rb_tree_iterator"* %113, i32 0, i32 0, !dbg !3410
  %115 = load %"struct.std::_Rb_tree_node_base"*, %"struct.std::_Rb_tree_node_base"** %114, align 4, !dbg !3410
  %116 = call dereferenceable(4) i32* @_ZNSt8_Rb_treeIlSt4pairIKlSt6vectorIS0_IdlESaIS3_EEESt10_Select1stIS6_ESt4lessIlESaIS6_EE6_S_keyEPKSt18_Rb_tree_node_base(%"struct.std::_Rb_tree_node_base"* %115), !dbg !3411
  %117 = call zeroext i1 @_ZNKSt4lessIlEclERKlS2_(%"struct.std::less"* %111, i32* dereferenceable(4) %112, i32* dereferenceable(4) %116), !dbg !3413
  br i1 %117, label %118, label %130, !dbg !3415

; <label>:118:                                    ; preds = %108
  %119 = getelementptr inbounds %"struct.std::_Rb_tree_iterator", %"struct.std::_Rb_tree_iterator"* %8, i32 0, i32 0, !dbg !3416
  %120 = load %"struct.std::_Rb_tree_node_base"*, %"struct.std::_Rb_tree_node_base"** %119, align 4, !dbg !3416
  %121 = call %"struct.std::_Rb_tree_node"* @_ZNSt8_Rb_treeIlSt4pairIKlSt6vectorIS0_IdlESaIS3_EEESt10_Select1stIS6_ESt4lessIlESaIS6_EE8_S_rightEPSt18_Rb_tree_node_base(%"struct.std::_Rb_tree_node_base"* %120) #15, !dbg !3419
  %122 = icmp eq %"struct.std::_Rb_tree_node"* %121, null, !dbg !3420
  br i1 %122, label %123, label %126, !dbg !3421

; <label>:123:                                    ; preds = %118
  store %"struct.std::_Rb_tree_node_base"* null, %"struct.std::_Rb_tree_node_base"** %14, align 4, !dbg !3422
  %124 = getelementptr inbounds %"struct.std::_Rb_tree_iterator", %"struct.std::_Rb_tree_iterator"* %8, i32 0, i32 0, !dbg !3423
  %125 = call %"struct.std::pair.5"* @_ZNSt4pairIPSt18_Rb_tree_node_baseS1_EC2IRS1_Lb1EEERKS1_OT_(%"struct.std::pair.5"* %0, %"struct.std::_Rb_tree_node_base"** dereferenceable(4) %14, %"struct.std::_Rb_tree_node_base"** dereferenceable(4) %124), !dbg !3424
  br label %135, !dbg !3425

; <label>:126:                                    ; preds = %118
  %127 = getelementptr inbounds %"struct.std::_Rb_tree_iterator", %"struct.std::_Rb_tree_iterator"* %12, i32 0, i32 0, !dbg !3426
  %128 = getelementptr inbounds %"struct.std::_Rb_tree_iterator", %"struct.std::_Rb_tree_iterator"* %12, i32 0, i32 0, !dbg !3427
  %129 = call %"struct.std::pair.5"* @_ZNSt4pairIPSt18_Rb_tree_node_baseS1_EC2IRS1_S4_Lb1EEEOT_OT0_(%"struct.std::pair.5"* %0, %"struct.std::_Rb_tree_node_base"** dereferenceable(4) %127, %"struct.std::_Rb_tree_node_base"** dereferenceable(4) %128), !dbg !3428
  br label %135, !dbg !3429

; <label>:130:                                    ; preds = %108
  %131 = load i32*, i32** %7, align 4, !dbg !3430
  call void @_ZNSt8_Rb_treeIlSt4pairIKlSt6vectorIS0_IdlESaIS3_EEESt10_Select1stIS6_ESt4lessIlESaIS6_EE24_M_get_insert_unique_posERS1_(%"struct.std::pair.5"* sret %0, %"class.std::_Rb_tree"* %18, i32* dereferenceable(4) %131), !dbg !3431
  br label %135, !dbg !3432

; <label>:132:                                    ; preds = %88
  %133 = getelementptr inbounds %"struct.std::_Rb_tree_iterator", %"struct.std::_Rb_tree_iterator"* %8, i32 0, i32 0, !dbg !3433
  store %"struct.std::_Rb_tree_node_base"* null, %"struct.std::_Rb_tree_node_base"** %15, align 4, !dbg !3434
  %134 = call %"struct.std::pair.5"* @_ZNSt4pairIPSt18_Rb_tree_node_baseS1_EC2IRS1_Lb1EEEOT_RKS1_(%"struct.std::pair.5"* %0, %"struct.std::_Rb_tree_node_base"** dereferenceable(4) %133, %"struct.std::_Rb_tree_node_base"** dereferenceable(4) %15), !dbg !3435
  br label %135, !dbg !3436

; <label>:135:                                    ; preds = %132, %130, %126, %123, %105, %86, %82, %79, %60, %41, %38
  ret void, !dbg !3437
}

define linkonce_odr i32 @_ZNSt8_Rb_treeIlSt4pairIKlSt6vectorIS0_IdlESaIS3_EEESt10_Select1stIS6_ESt4lessIlESaIS6_EE14_M_insert_nodeEPSt18_Rb_tree_node_baseSE_PSt13_Rb_tree_nodeIS6_E(%"class.std::_Rb_tree"*, %"struct.std::_Rb_tree_node_base"*, %"struct.std::_Rb_tree_node_base"*, %"struct.std::_Rb_tree_node"*) #1 comdat align 2 !dbg !3438 !xidane.fname !3439 !xidane.function_declaration_type !3440 !xidane.function_declaration_filename !2747 {
  %5 = alloca %"struct.std::_Rb_tree_iterator", align 4
  %6 = alloca %"class.std::_Rb_tree"*, align 4
  %7 = alloca %"struct.std::_Rb_tree_node_base"*, align 4
  %8 = alloca %"struct.std::_Rb_tree_node_base"*, align 4
  %9 = alloca %"struct.std::_Rb_tree_node"*, align 4
  %10 = alloca i8, align 1
  store %"class.std::_Rb_tree"* %0, %"class.std::_Rb_tree"** %6, align 4
  call void @llvm.dbg.declare(metadata %"class.std::_Rb_tree"** %6, metadata !3441, metadata !2533), !dbg !3442
  store %"struct.std::_Rb_tree_node_base"* %1, %"struct.std::_Rb_tree_node_base"** %7, align 4
  call void @llvm.dbg.declare(metadata %"struct.std::_Rb_tree_node_base"** %7, metadata !3443, metadata !2533), !dbg !3444
  store %"struct.std::_Rb_tree_node_base"* %2, %"struct.std::_Rb_tree_node_base"** %8, align 4
  call void @llvm.dbg.declare(metadata %"struct.std::_Rb_tree_node_base"** %8, metadata !3445, metadata !2533), !dbg !3446
  store %"struct.std::_Rb_tree_node"* %3, %"struct.std::_Rb_tree_node"** %9, align 4
  call void @llvm.dbg.declare(metadata %"struct.std::_Rb_tree_node"** %9, metadata !3447, metadata !2533), !dbg !3448
  %11 = load %"class.std::_Rb_tree"*, %"class.std::_Rb_tree"** %6, align 4
  call void @llvm.dbg.declare(metadata i8* %10, metadata !3449, metadata !2533), !dbg !3450
  %12 = load %"struct.std::_Rb_tree_node_base"*, %"struct.std::_Rb_tree_node_base"** %7, align 4, !dbg !3451
  %13 = icmp ne %"struct.std::_Rb_tree_node_base"* %12, null, !dbg !3452
  br i1 %13, label %27, label %14, !dbg !3453

; <label>:14:                                     ; preds = %4
  %15 = load %"struct.std::_Rb_tree_node_base"*, %"struct.std::_Rb_tree_node_base"** %8, align 4, !dbg !3454
  %16 = call %"struct.std::_Rb_tree_node_base"* @_ZNSt8_Rb_treeIlSt4pairIKlSt6vectorIS0_IdlESaIS3_EEESt10_Select1stIS6_ESt4lessIlESaIS6_EE6_M_endEv(%"class.std::_Rb_tree"* %11) #15, !dbg !3456
  %17 = icmp eq %"struct.std::_Rb_tree_node_base"* %15, %16, !dbg !3457
  br i1 %17, label %27, label %18, !dbg !3458

; <label>:18:                                     ; preds = %14
  %19 = getelementptr inbounds %"class.std::_Rb_tree", %"class.std::_Rb_tree"* %11, i32 0, i32 0, !dbg !3459
  %20 = bitcast %"struct.std::_Rb_tree<long, std::pair<const long, std::vector<std::pair<double, long>, std::allocator<std::pair<double, long> > > >, std::_Select1st<std::pair<const long, std::vector<std::pair<double, long>, std::allocator<std::pair<double, long> > > > >, std::less<long>, std::allocator<std::pair<const long, std::vector<std::pair<double, long>, std::allocator<std::pair<double, long> > > > > >::_Rb_tree_impl"* %19 to %"struct.std::_Rb_tree_key_compare"*, !dbg !3459
  %21 = getelementptr inbounds %"struct.std::_Rb_tree_key_compare", %"struct.std::_Rb_tree_key_compare"* %20, i32 0, i32 0, !dbg !3460
  %22 = load %"struct.std::_Rb_tree_node"*, %"struct.std::_Rb_tree_node"** %9, align 4, !dbg !3461
  %23 = call dereferenceable(4) i32* @_ZNSt8_Rb_treeIlSt4pairIKlSt6vectorIS0_IdlESaIS3_EEESt10_Select1stIS6_ESt4lessIlESaIS6_EE6_S_keyEPKSt13_Rb_tree_nodeIS6_E(%"struct.std::_Rb_tree_node"* %22), !dbg !3462
  %24 = load %"struct.std::_Rb_tree_node_base"*, %"struct.std::_Rb_tree_node_base"** %8, align 4, !dbg !3463
  %25 = call dereferenceable(4) i32* @_ZNSt8_Rb_treeIlSt4pairIKlSt6vectorIS0_IdlESaIS3_EEESt10_Select1stIS6_ESt4lessIlESaIS6_EE6_S_keyEPKSt18_Rb_tree_node_base(%"struct.std::_Rb_tree_node_base"* %24), !dbg !3464
  %26 = call zeroext i1 @_ZNKSt4lessIlEclERKlS2_(%"struct.std::less"* %21, i32* dereferenceable(4) %23, i32* dereferenceable(4) %25), !dbg !3465
  br label %27, !dbg !3467

; <label>:27:                                     ; preds = %18, %14, %4
  %28 = phi i1 [ true, %14 ], [ true, %4 ], [ %26, %18 ]
  %29 = zext i1 %28 to i8, !dbg !3468
  store i8 %29, i8* %10, align 1, !dbg !3468
  %30 = load i8, i8* %10, align 1, !dbg !3470
  %31 = trunc i8 %30 to i1, !dbg !3470
  %32 = load %"struct.std::_Rb_tree_node"*, %"struct.std::_Rb_tree_node"** %9, align 4, !dbg !3471
  %33 = bitcast %"struct.std::_Rb_tree_node"* %32 to %"struct.std::_Rb_tree_node_base"*, !dbg !3471
  %34 = load %"struct.std::_Rb_tree_node_base"*, %"struct.std::_Rb_tree_node_base"** %8, align 4, !dbg !3472
  %35 = getelementptr inbounds %"class.std::_Rb_tree", %"class.std::_Rb_tree"* %11, i32 0, i32 0, !dbg !3473
  %36 = bitcast %"struct.std::_Rb_tree<long, std::pair<const long, std::vector<std::pair<double, long>, std::allocator<std::pair<double, long> > > >, std::_Select1st<std::pair<const long, std::vector<std::pair<double, long>, std::allocator<std::pair<double, long> > > > >, std::less<long>, std::allocator<std::pair<const long, std::vector<std::pair<double, long>, std::allocator<std::pair<double, long> > > > > >::_Rb_tree_impl"* %35 to i8*, !dbg !3474
  %37 = getelementptr inbounds i8, i8* %36, i32 4, !dbg !3474
  %38 = bitcast i8* %37 to %"struct.std::_Rb_tree_header"*, !dbg !3474
  %39 = getelementptr inbounds %"struct.std::_Rb_tree_header", %"struct.std::_Rb_tree_header"* %38, i32 0, i32 0, !dbg !3475
  call void @_ZSt29_Rb_tree_insert_and_rebalancebPSt18_Rb_tree_node_baseS0_RS_(i1 zeroext %31, %"struct.std::_Rb_tree_node_base"* %33, %"struct.std::_Rb_tree_node_base"* %34, %"struct.std::_Rb_tree_node_base"* dereferenceable(16) %39) #15, !dbg !3476
  %40 = getelementptr inbounds %"class.std::_Rb_tree", %"class.std::_Rb_tree"* %11, i32 0, i32 0, !dbg !3477
  %41 = bitcast %"struct.std::_Rb_tree<long, std::pair<const long, std::vector<std::pair<double, long>, std::allocator<std::pair<double, long> > > >, std::_Select1st<std::pair<const long, std::vector<std::pair<double, long>, std::allocator<std::pair<double, long> > > > >, std::less<long>, std::allocator<std::pair<const long, std::vector<std::pair<double, long>, std::allocator<std::pair<double, long> > > > > >::_Rb_tree_impl"* %40 to i8*, !dbg !3477
  %42 = getelementptr inbounds i8, i8* %41, i32 4, !dbg !3477
  %43 = bitcast i8* %42 to %"struct.std::_Rb_tree_header"*, !dbg !3477
  %44 = getelementptr inbounds %"struct.std::_Rb_tree_header", %"struct.std::_Rb_tree_header"* %43, i32 0, i32 1, !dbg !3478
  %45 = load i32, i32* %44, align 4, !dbg !3479
  %46 = add i32 %45, 1, !dbg !3479
  store i32 %46, i32* %44, align 4, !dbg !3479
  %47 = load %"struct.std::_Rb_tree_node"*, %"struct.std::_Rb_tree_node"** %9, align 4, !dbg !3480
  %48 = bitcast %"struct.std::_Rb_tree_node"* %47 to %"struct.std::_Rb_tree_node_base"*, !dbg !3480
  %49 = call %"struct.std::_Rb_tree_iterator"* @_ZNSt17_Rb_tree_iteratorISt4pairIKlSt6vectorIS0_IdlESaIS3_EEEEC2EPSt18_Rb_tree_node_base(%"struct.std::_Rb_tree_iterator"* %5, %"struct.std::_Rb_tree_node_base"* %48) #15, !dbg !3481
  %50 = getelementptr inbounds %"struct.std::_Rb_tree_iterator", %"struct.std::_Rb_tree_iterator"* %5, i32 0, i32 0, !dbg !3482
  %51 = load %"struct.std::_Rb_tree_node_base"*, %"struct.std::_Rb_tree_node_base"** %50, align 4, !dbg !3482
  %52 = ptrtoint %"struct.std::_Rb_tree_node_base"* %51 to i32, !dbg !3482
  ret i32 %52, !dbg !3482
}

; Function Attrs: nounwind
define linkonce_odr void @_ZNSt8_Rb_treeIlSt4pairIKlSt6vectorIS0_IdlESaIS3_EEESt10_Select1stIS6_ESt4lessIlESaIS6_EE12_M_drop_nodeEPSt13_Rb_tree_nodeIS6_E(%"class.std::_Rb_tree"*, %"struct.std::_Rb_tree_node"*) #0 comdat align 2 !dbg !3483 !xidane.fname !3484 !xidane.function_declaration_type !3485 !xidane.function_declaration_filename !2747 {
  %3 = alloca %"class.std::_Rb_tree"*, align 4
  %4 = alloca %"struct.std::_Rb_tree_node"*, align 4
  store %"class.std::_Rb_tree"* %0, %"class.std::_Rb_tree"** %3, align 4
  call void @llvm.dbg.declare(metadata %"class.std::_Rb_tree"** %3, metadata !3486, metadata !2533), !dbg !3487
  store %"struct.std::_Rb_tree_node"* %1, %"struct.std::_Rb_tree_node"** %4, align 4
  call void @llvm.dbg.declare(metadata %"struct.std::_Rb_tree_node"** %4, metadata !3488, metadata !2533), !dbg !3489
  %5 = load %"class.std::_Rb_tree"*, %"class.std::_Rb_tree"** %3, align 4
  %6 = load %"struct.std::_Rb_tree_node"*, %"struct.std::_Rb_tree_node"** %4, align 4, !dbg !3490
  call void @_ZNSt8_Rb_treeIlSt4pairIKlSt6vectorIS0_IdlESaIS3_EEESt10_Select1stIS6_ESt4lessIlESaIS6_EE15_M_destroy_nodeEPSt13_Rb_tree_nodeIS6_E(%"class.std::_Rb_tree"* %5, %"struct.std::_Rb_tree_node"* %6) #15, !dbg !3491
  %7 = load %"struct.std::_Rb_tree_node"*, %"struct.std::_Rb_tree_node"** %4, align 4, !dbg !3492
  call void @_ZNSt8_Rb_treeIlSt4pairIKlSt6vectorIS0_IdlESaIS3_EEESt10_Select1stIS6_ESt4lessIlESaIS6_EE11_M_put_nodeEPSt13_Rb_tree_nodeIS6_E(%"class.std::_Rb_tree"* %5, %"struct.std::_Rb_tree_node"* %7) #15, !dbg !3493
  ret void, !dbg !3494
}

declare void @__cxa_rethrow()

declare void @__cxa_end_catch()

; Function Attrs: noreturn nounwind
declare void @llvm.trap() #7

define linkonce_odr %"struct.std::_Rb_tree_node"* @_ZNSt8_Rb_treeIlSt4pairIKlSt6vectorIS0_IdlESaIS3_EEESt10_Select1stIS6_ESt4lessIlESaIS6_EE11_M_get_nodeEv(%"class.std::_Rb_tree"*) #1 comdat align 2 !dbg !3495 !xidane.fname !3496 !xidane.function_declaration_type !3086 !xidane.function_declaration_filename !2747 {
  %2 = alloca %"class.std::_Rb_tree"*, align 4
  store %"class.std::_Rb_tree"* %0, %"class.std::_Rb_tree"** %2, align 4
  call void @llvm.dbg.declare(metadata %"class.std::_Rb_tree"** %2, metadata !3497, metadata !2533), !dbg !3498
  %3 = load %"class.std::_Rb_tree"*, %"class.std::_Rb_tree"** %2, align 4
  %4 = call dereferenceable(1) %"class.std::allocator"* @_ZNSt8_Rb_treeIlSt4pairIKlSt6vectorIS0_IdlESaIS3_EEESt10_Select1stIS6_ESt4lessIlESaIS6_EE21_M_get_Node_allocatorEv(%"class.std::_Rb_tree"* %3) #15, !dbg !3499
  %5 = call %"struct.std::_Rb_tree_node"* @_ZNSt16allocator_traitsISaISt13_Rb_tree_nodeISt4pairIKlSt6vectorIS1_IdlESaIS4_EEEEEE8allocateERS9_j(%"class.std::allocator"* dereferenceable(1) %4, i32 1), !dbg !3500
  ret %"struct.std::_Rb_tree_node"* %5, !dbg !3502
}

define linkonce_odr void @_ZNSt8_Rb_treeIlSt4pairIKlSt6vectorIS0_IdlESaIS3_EEESt10_Select1stIS6_ESt4lessIlESaIS6_EE17_M_construct_nodeIJRKSt21piecewise_construct_tSt5tupleIJRS1_EESH_IJEEEEEvPSt13_Rb_tree_nodeIS6_EDpOT_(%"class.std::_Rb_tree"*, %"struct.std::_Rb_tree_node"*, %"struct.std::piecewise_construct_t"* dereferenceable(1), %"class.std::tuple"* dereferenceable(4), %"class.std::tuple.4"* dereferenceable(1)) #1 comdat align 2 personality i8* bitcast (i32 (...)* @__gxx_personality_v0 to i8*) !dbg !3503 !xidane.fname !3507 !xidane.function_declaration_type !3508 !xidane.function_declaration_filename !2747 {
  %6 = alloca %"class.std::_Rb_tree"*, align 4
  %7 = alloca %"struct.std::_Rb_tree_node"*, align 4
  %8 = alloca %"struct.std::piecewise_construct_t"*, align 4
  %9 = alloca %"class.std::tuple"*, align 4
  %10 = alloca %"class.std::tuple.4"*, align 4
  %11 = alloca i8*
  %12 = alloca i32
  store %"class.std::_Rb_tree"* %0, %"class.std::_Rb_tree"** %6, align 4
  call void @llvm.dbg.declare(metadata %"class.std::_Rb_tree"** %6, metadata !3509, metadata !2533), !dbg !3510
  store %"struct.std::_Rb_tree_node"* %1, %"struct.std::_Rb_tree_node"** %7, align 4
  call void @llvm.dbg.declare(metadata %"struct.std::_Rb_tree_node"** %7, metadata !3511, metadata !2533), !dbg !3512
  store %"struct.std::piecewise_construct_t"* %2, %"struct.std::piecewise_construct_t"** %8, align 4
  call void @llvm.dbg.declare(metadata %"struct.std::piecewise_construct_t"** %8, metadata !3513, metadata !2533), !dbg !3514
  store %"class.std::tuple"* %3, %"class.std::tuple"** %9, align 4
  call void @llvm.dbg.declare(metadata %"class.std::tuple"** %9, metadata !3515, metadata !2533), !dbg !3514
  store %"class.std::tuple.4"* %4, %"class.std::tuple.4"** %10, align 4
  call void @llvm.dbg.declare(metadata %"class.std::tuple.4"** %10, metadata !3516, metadata !2533), !dbg !3514
  %13 = load %"class.std::_Rb_tree"*, %"class.std::_Rb_tree"** %6, align 4
  %14 = load %"struct.std::_Rb_tree_node"*, %"struct.std::_Rb_tree_node"** %7, align 4, !dbg !3517
  %15 = bitcast %"struct.std::_Rb_tree_node"* %14 to i8*, !dbg !3519
  %16 = bitcast i8* %15 to %"struct.std::_Rb_tree_node"*, !dbg !3519
  %17 = call dereferenceable(1) %"class.std::allocator"* @_ZNSt8_Rb_treeIlSt4pairIKlSt6vectorIS0_IdlESaIS3_EEESt10_Select1stIS6_ESt4lessIlESaIS6_EE21_M_get_Node_allocatorEv(%"class.std::_Rb_tree"* %13) #15, !dbg !3520
  %18 = load %"struct.std::_Rb_tree_node"*, %"struct.std::_Rb_tree_node"** %7, align 4, !dbg !3521
  %19 = invoke %"struct.std::pair.3"* @_ZNSt13_Rb_tree_nodeISt4pairIKlSt6vectorIS0_IdlESaIS3_EEEE9_M_valptrEv(%"struct.std::_Rb_tree_node"* %18)
          to label %20 unwind label %28, !dbg !3522

; <label>:20:                                     ; preds = %5
  %21 = load %"struct.std::piecewise_construct_t"*, %"struct.std::piecewise_construct_t"** %8, align 4, !dbg !3523
  %22 = call dereferenceable(1) %"struct.std::piecewise_construct_t"* @_ZSt7forwardIRKSt21piecewise_construct_tEOT_RNSt16remove_referenceIS3_E4typeE(%"struct.std::piecewise_construct_t"* dereferenceable(1) %21) #15, !dbg !3524
  %23 = load %"class.std::tuple"*, %"class.std::tuple"** %9, align 4, !dbg !3523
  %24 = call dereferenceable(4) %"class.std::tuple"* @_ZSt7forwardISt5tupleIJRKlEEEOT_RNSt16remove_referenceIS4_E4typeE(%"class.std::tuple"* dereferenceable(4) %23) #15, !dbg !3525
  %25 = load %"class.std::tuple.4"*, %"class.std::tuple.4"** %10, align 4, !dbg !3523
  %26 = call dereferenceable(1) %"class.std::tuple.4"* @_ZSt7forwardISt5tupleIJEEEOT_RNSt16remove_referenceIS2_E4typeE(%"class.std::tuple.4"* dereferenceable(1) %25) #15, !dbg !3527
  invoke void @_ZNSt16allocator_traitsISaISt13_Rb_tree_nodeISt4pairIKlSt6vectorIS1_IdlESaIS4_EEEEEE9constructIS7_JRKSt21piecewise_construct_tSt5tupleIJRS2_EESF_IJEEEEEvRS9_PT_DpOT0_(%"class.std::allocator"* dereferenceable(1) %17, %"struct.std::pair.3"* %19, %"struct.std::piecewise_construct_t"* dereferenceable(1) %22, %"class.std::tuple"* dereferenceable(4) %24, %"class.std::tuple.4"* dereferenceable(1) %26)
          to label %27 unwind label %28, !dbg !3529

; <label>:27:                                     ; preds = %20
  br label %42, !dbg !3530

; <label>:28:                                     ; preds = %20, %5
  %29 = landingpad { i8*, i32 }
          catch i8* null, !dbg !3531
  %30 = extractvalue { i8*, i32 } %29, 0, !dbg !3531
  store i8* %30, i8** %11, align 4, !dbg !3531
  %31 = extractvalue { i8*, i32 } %29, 1, !dbg !3531
  store i32 %31, i32* %12, align 4, !dbg !3531
  br label %32, !dbg !3531

; <label>:32:                                     ; preds = %28
  %33 = load i8*, i8** %11, align 4, !dbg !3532
  %34 = call i8* @__cxa_begin_catch(i8* %33) #15, !dbg !3532
  %35 = load %"struct.std::_Rb_tree_node"*, %"struct.std::_Rb_tree_node"** %7, align 4, !dbg !3533
  %36 = load %"struct.std::_Rb_tree_node"*, %"struct.std::_Rb_tree_node"** %7, align 4, !dbg !3535
  call void @_ZNSt8_Rb_treeIlSt4pairIKlSt6vectorIS0_IdlESaIS3_EEESt10_Select1stIS6_ESt4lessIlESaIS6_EE11_M_put_nodeEPSt13_Rb_tree_nodeIS6_E(%"class.std::_Rb_tree"* %13, %"struct.std::_Rb_tree_node"* %36) #15, !dbg !3536
  invoke void @__cxa_rethrow() #16
          to label %51 unwind label %37, !dbg !3537

; <label>:37:                                     ; preds = %32
  %38 = landingpad { i8*, i32 }
          cleanup, !dbg !3538
  %39 = extractvalue { i8*, i32 } %38, 0, !dbg !3538
  store i8* %39, i8** %11, align 4, !dbg !3538
  %40 = extractvalue { i8*, i32 } %38, 1, !dbg !3538
  store i32 %40, i32* %12, align 4, !dbg !3538
  invoke void @__cxa_end_catch()
          to label %41 unwind label %48, !dbg !3540

; <label>:41:                                     ; preds = %37
  br label %43, !dbg !3541

; <label>:42:                                     ; preds = %27
  ret void, !dbg !3542

; <label>:43:                                     ; preds = %41
  %44 = load i8*, i8** %11, align 4, !dbg !3544
  %45 = load i32, i32* %12, align 4, !dbg !3544
  %46 = insertvalue { i8*, i32 } undef, i8* %44, 0, !dbg !3544
  %47 = insertvalue { i8*, i32 } %46, i32 %45, 1, !dbg !3544
  resume { i8*, i32 } %47, !dbg !3544

; <label>:48:                                     ; preds = %37
  %49 = landingpad { i8*, i32 }
          catch i8* null, !dbg !3546
  %50 = extractvalue { i8*, i32 } %49, 0, !dbg !3546
  call void @__clang_call_terminate(i8* %50) #7, !dbg !3546
  unreachable, !dbg !3546

; <label>:51:                                     ; preds = %32
  unreachable
}

define linkonce_odr %"struct.std::_Rb_tree_node"* @_ZNSt16allocator_traitsISaISt13_Rb_tree_nodeISt4pairIKlSt6vectorIS1_IdlESaIS4_EEEEEE8allocateERS9_j(%"class.std::allocator"* dereferenceable(1), i32) #1 comdat align 2 !dbg !3548 !xidane.fname !3574 !xidane.function_declaration_type !3575 !xidane.function_declaration_filename !3576 {
  %3 = alloca %"class.std::allocator"*, align 4
  %4 = alloca i32, align 4
  store %"class.std::allocator"* %0, %"class.std::allocator"** %3, align 4
  call void @llvm.dbg.declare(metadata %"class.std::allocator"** %3, metadata !3577, metadata !2533), !dbg !3578
  store i32 %1, i32* %4, align 4
  call void @llvm.dbg.declare(metadata i32* %4, metadata !3579, metadata !2533), !dbg !3580
  %5 = load %"class.std::allocator"*, %"class.std::allocator"** %3, align 4, !dbg !3581
  %6 = bitcast %"class.std::allocator"* %5 to %"class.__gnu_cxx::new_allocator"*, !dbg !3581
  %7 = load i32, i32* %4, align 4, !dbg !3582
  %8 = call %"struct.std::_Rb_tree_node"* @_ZN9__gnu_cxx13new_allocatorISt13_Rb_tree_nodeISt4pairIKlSt6vectorIS2_IdlESaIS5_EEEEE8allocateEjPKv(%"class.__gnu_cxx::new_allocator"* %6, i32 %7, i8* null), !dbg !3583
  ret %"struct.std::_Rb_tree_node"* %8, !dbg !3584
}

; Function Attrs: nounwind
define linkonce_odr dereferenceable(1) %"class.std::allocator"* @_ZNSt8_Rb_treeIlSt4pairIKlSt6vectorIS0_IdlESaIS3_EEESt10_Select1stIS6_ESt4lessIlESaIS6_EE21_M_get_Node_allocatorEv(%"class.std::_Rb_tree"*) #0 comdat align 2 !dbg !3585 !xidane.fname !3586 !xidane.function_declaration_type !3587 !xidane.function_declaration_filename !2747 {
  %2 = alloca %"class.std::_Rb_tree"*, align 4
  store %"class.std::_Rb_tree"* %0, %"class.std::_Rb_tree"** %2, align 4
  call void @llvm.dbg.declare(metadata %"class.std::_Rb_tree"** %2, metadata !3588, metadata !2533), !dbg !3589
  %3 = load %"class.std::_Rb_tree"*, %"class.std::_Rb_tree"** %2, align 4
  %4 = getelementptr inbounds %"class.std::_Rb_tree", %"class.std::_Rb_tree"* %3, i32 0, i32 0, !dbg !3590
  %5 = bitcast %"struct.std::_Rb_tree<long, std::pair<const long, std::vector<std::pair<double, long>, std::allocator<std::pair<double, long> > > >, std::_Select1st<std::pair<const long, std::vector<std::pair<double, long>, std::allocator<std::pair<double, long> > > > >, std::less<long>, std::allocator<std::pair<const long, std::vector<std::pair<double, long>, std::allocator<std::pair<double, long> > > > > >::_Rb_tree_impl"* %4 to %"class.std::allocator"*, !dbg !3591
  ret %"class.std::allocator"* %5, !dbg !3592
}

define linkonce_odr %"struct.std::_Rb_tree_node"* @_ZN9__gnu_cxx13new_allocatorISt13_Rb_tree_nodeISt4pairIKlSt6vectorIS2_IdlESaIS5_EEEEE8allocateEjPKv(%"class.__gnu_cxx::new_allocator"*, i32, i8*) #1 comdat align 2 !dbg !3593 !xidane.fname !3574 !xidane.function_declaration_type !3594 !xidane.function_declaration_filename !2828 {
  %4 = alloca %"class.__gnu_cxx::new_allocator"*, align 4
  %5 = alloca i32, align 4
  %6 = alloca i8*, align 4
  store %"class.__gnu_cxx::new_allocator"* %0, %"class.__gnu_cxx::new_allocator"** %4, align 4
  call void @llvm.dbg.declare(metadata %"class.__gnu_cxx::new_allocator"** %4, metadata !3595, metadata !2533), !dbg !3596
  store i32 %1, i32* %5, align 4
  call void @llvm.dbg.declare(metadata i32* %5, metadata !3597, metadata !2533), !dbg !3598
  store i8* %2, i8** %6, align 4
  call void @llvm.dbg.declare(metadata i8** %6, metadata !3599, metadata !2533), !dbg !3600
  %7 = load %"class.__gnu_cxx::new_allocator"*, %"class.__gnu_cxx::new_allocator"** %4, align 4
  %8 = load i32, i32* %5, align 4, !dbg !3601
  %9 = call i32 @_ZNK9__gnu_cxx13new_allocatorISt13_Rb_tree_nodeISt4pairIKlSt6vectorIS2_IdlESaIS5_EEEEE8max_sizeEv(%"class.__gnu_cxx::new_allocator"* %7) #15, !dbg !3603
  %10 = icmp ugt i32 %8, %9, !dbg !3604
  br i1 %10, label %11, label %12, !dbg !3605

; <label>:11:                                     ; preds = %3
  call void @_ZSt17__throw_bad_allocv() #16, !dbg !3606
  unreachable, !dbg !3606

; <label>:12:                                     ; preds = %3
  %13 = load i32, i32* %5, align 4, !dbg !3607
  %14 = mul i32 %13, 32, !dbg !3608
  %15 = call i8* @_Znwj(i32 %14), !dbg !3609
  %16 = bitcast i8* %15 to %"struct.std::_Rb_tree_node"*, !dbg !3610
  ret %"struct.std::_Rb_tree_node"* %16, !dbg !3611
}

; Function Attrs: nounwind
define linkonce_odr i32 @_ZNK9__gnu_cxx13new_allocatorISt13_Rb_tree_nodeISt4pairIKlSt6vectorIS2_IdlESaIS5_EEEEE8max_sizeEv(%"class.__gnu_cxx::new_allocator"*) #0 comdat align 2 !dbg !3612 !xidane.fname !3613 !xidane.function_declaration_type !3614 !xidane.function_declaration_filename !2828 {
  %2 = alloca %"class.__gnu_cxx::new_allocator"*, align 4
  store %"class.__gnu_cxx::new_allocator"* %0, %"class.__gnu_cxx::new_allocator"** %2, align 4
  call void @llvm.dbg.declare(metadata %"class.__gnu_cxx::new_allocator"** %2, metadata !3615, metadata !2533), !dbg !3617
  %3 = load %"class.__gnu_cxx::new_allocator"*, %"class.__gnu_cxx::new_allocator"** %2, align 4
  ret i32 134217727, !dbg !3618
}

; Function Attrs: noreturn
declare !xidane.fname !3619 !xidane.function_declaration_type !2531 !xidane.function_declaration_filename !3620 void @_ZSt17__throw_bad_allocv() #8

define linkonce_odr void @_ZNSt16allocator_traitsISaISt13_Rb_tree_nodeISt4pairIKlSt6vectorIS1_IdlESaIS4_EEEEEE9constructIS7_JRKSt21piecewise_construct_tSt5tupleIJRS2_EESF_IJEEEEEvRS9_PT_DpOT0_(%"class.std::allocator"* dereferenceable(1), %"struct.std::pair.3"*, %"struct.std::piecewise_construct_t"* dereferenceable(1), %"class.std::tuple"* dereferenceable(4), %"class.std::tuple.4"* dereferenceable(1)) #1 comdat align 2 !dbg !3621 !xidane.fname !3627 !xidane.function_declaration_type !3628 !xidane.function_declaration_filename !3576 {
  %6 = alloca %"class.std::allocator"*, align 4
  %7 = alloca %"struct.std::pair.3"*, align 4
  %8 = alloca %"struct.std::piecewise_construct_t"*, align 4
  %9 = alloca %"class.std::tuple"*, align 4
  %10 = alloca %"class.std::tuple.4"*, align 4
  store %"class.std::allocator"* %0, %"class.std::allocator"** %6, align 4
  call void @llvm.dbg.declare(metadata %"class.std::allocator"** %6, metadata !3629, metadata !2533), !dbg !3630
  store %"struct.std::pair.3"* %1, %"struct.std::pair.3"** %7, align 4
  call void @llvm.dbg.declare(metadata %"struct.std::pair.3"** %7, metadata !3631, metadata !2533), !dbg !3632
  store %"struct.std::piecewise_construct_t"* %2, %"struct.std::piecewise_construct_t"** %8, align 4
  call void @llvm.dbg.declare(metadata %"struct.std::piecewise_construct_t"** %8, metadata !3633, metadata !2533), !dbg !3634
  store %"class.std::tuple"* %3, %"class.std::tuple"** %9, align 4
  call void @llvm.dbg.declare(metadata %"class.std::tuple"** %9, metadata !3635, metadata !2533), !dbg !3634
  store %"class.std::tuple.4"* %4, %"class.std::tuple.4"** %10, align 4
  call void @llvm.dbg.declare(metadata %"class.std::tuple.4"** %10, metadata !3636, metadata !2533), !dbg !3634
  %11 = load %"class.std::allocator"*, %"class.std::allocator"** %6, align 4, !dbg !3637
  %12 = bitcast %"class.std::allocator"* %11 to %"class.__gnu_cxx::new_allocator"*, !dbg !3637
  %13 = load %"struct.std::pair.3"*, %"struct.std::pair.3"** %7, align 4, !dbg !3638
  %14 = load %"struct.std::piecewise_construct_t"*, %"struct.std::piecewise_construct_t"** %8, align 4, !dbg !3639
  %15 = call dereferenceable(1) %"struct.std::piecewise_construct_t"* @_ZSt7forwardIRKSt21piecewise_construct_tEOT_RNSt16remove_referenceIS3_E4typeE(%"struct.std::piecewise_construct_t"* dereferenceable(1) %14) #15, !dbg !3640
  %16 = load %"class.std::tuple"*, %"class.std::tuple"** %9, align 4, !dbg !3639
  %17 = call dereferenceable(4) %"class.std::tuple"* @_ZSt7forwardISt5tupleIJRKlEEEOT_RNSt16remove_referenceIS4_E4typeE(%"class.std::tuple"* dereferenceable(4) %16) #15, !dbg !3641
  %18 = load %"class.std::tuple.4"*, %"class.std::tuple.4"** %10, align 4, !dbg !3639
  %19 = call dereferenceable(1) %"class.std::tuple.4"* @_ZSt7forwardISt5tupleIJEEEOT_RNSt16remove_referenceIS2_E4typeE(%"class.std::tuple.4"* dereferenceable(1) %18) #15, !dbg !3643
  call void @_ZN9__gnu_cxx13new_allocatorISt13_Rb_tree_nodeISt4pairIKlSt6vectorIS2_IdlESaIS5_EEEEE9constructIS8_JRKSt21piecewise_construct_tSt5tupleIJRS3_EESF_IJEEEEEvPT_DpOT0_(%"class.__gnu_cxx::new_allocator"* %12, %"struct.std::pair.3"* %13, %"struct.std::piecewise_construct_t"* dereferenceable(1) %15, %"class.std::tuple"* dereferenceable(4) %17, %"class.std::tuple.4"* dereferenceable(1) %19), !dbg !3645
  ret void, !dbg !3647
}

; Function Attrs: nounwind
define linkonce_odr void @_ZNSt8_Rb_treeIlSt4pairIKlSt6vectorIS0_IdlESaIS3_EEESt10_Select1stIS6_ESt4lessIlESaIS6_EE11_M_put_nodeEPSt13_Rb_tree_nodeIS6_E(%"class.std::_Rb_tree"*, %"struct.std::_Rb_tree_node"*) #0 comdat align 2 personality i8* bitcast (i32 (...)* @__gxx_personality_v0 to i8*) !dbg !3648 !xidane.fname !3649 !xidane.function_declaration_type !3485 !xidane.function_declaration_filename !2747 {
  %3 = alloca %"class.std::_Rb_tree"*, align 4
  %4 = alloca %"struct.std::_Rb_tree_node"*, align 4
  store %"class.std::_Rb_tree"* %0, %"class.std::_Rb_tree"** %3, align 4
  call void @llvm.dbg.declare(metadata %"class.std::_Rb_tree"** %3, metadata !3650, metadata !2533), !dbg !3651
  store %"struct.std::_Rb_tree_node"* %1, %"struct.std::_Rb_tree_node"** %4, align 4
  call void @llvm.dbg.declare(metadata %"struct.std::_Rb_tree_node"** %4, metadata !3652, metadata !2533), !dbg !3653
  %5 = load %"class.std::_Rb_tree"*, %"class.std::_Rb_tree"** %3, align 4
  %6 = call dereferenceable(1) %"class.std::allocator"* @_ZNSt8_Rb_treeIlSt4pairIKlSt6vectorIS0_IdlESaIS3_EEESt10_Select1stIS6_ESt4lessIlESaIS6_EE21_M_get_Node_allocatorEv(%"class.std::_Rb_tree"* %5) #15, !dbg !3654
  %7 = load %"struct.std::_Rb_tree_node"*, %"struct.std::_Rb_tree_node"** %4, align 4, !dbg !3655
  invoke void @_ZNSt16allocator_traitsISaISt13_Rb_tree_nodeISt4pairIKlSt6vectorIS1_IdlESaIS4_EEEEEE10deallocateERS9_PS8_j(%"class.std::allocator"* dereferenceable(1) %6, %"struct.std::_Rb_tree_node"* %7, i32 1)
          to label %8 unwind label %9, !dbg !3656

; <label>:8:                                      ; preds = %2
  ret void, !dbg !3657

; <label>:9:                                      ; preds = %2
  %10 = landingpad { i8*, i32 }
          catch i8* null, !dbg !3659
  %11 = extractvalue { i8*, i32 } %10, 0, !dbg !3659
  call void @__clang_call_terminate(i8* %11) #7, !dbg !3659
  unreachable, !dbg !3659
}

define linkonce_odr void @_ZN9__gnu_cxx13new_allocatorISt13_Rb_tree_nodeISt4pairIKlSt6vectorIS2_IdlESaIS5_EEEEE9constructIS8_JRKSt21piecewise_construct_tSt5tupleIJRS3_EESF_IJEEEEEvPT_DpOT0_(%"class.__gnu_cxx::new_allocator"*, %"struct.std::pair.3"*, %"struct.std::piecewise_construct_t"* dereferenceable(1), %"class.std::tuple"* dereferenceable(4), %"class.std::tuple.4"* dereferenceable(1)) #1 comdat align 2 !dbg !3661 !xidane.fname !3665 !xidane.function_declaration_type !3666 !xidane.function_declaration_filename !2828 {
  %6 = alloca %"class.__gnu_cxx::new_allocator"*, align 4
  %7 = alloca %"struct.std::pair.3"*, align 4
  %8 = alloca %"struct.std::piecewise_construct_t"*, align 4
  %9 = alloca %"class.std::tuple"*, align 4
  %10 = alloca %"class.std::tuple.4"*, align 4
  %11 = alloca %"struct.std::piecewise_construct_t", align 1
  %12 = alloca %"class.std::tuple", align 4
  %13 = alloca %"class.std::tuple.4", align 1
  store %"class.__gnu_cxx::new_allocator"* %0, %"class.__gnu_cxx::new_allocator"** %6, align 4
  call void @llvm.dbg.declare(metadata %"class.__gnu_cxx::new_allocator"** %6, metadata !3667, metadata !2533), !dbg !3668
  store %"struct.std::pair.3"* %1, %"struct.std::pair.3"** %7, align 4
  call void @llvm.dbg.declare(metadata %"struct.std::pair.3"** %7, metadata !3669, metadata !2533), !dbg !3670
  store %"struct.std::piecewise_construct_t"* %2, %"struct.std::piecewise_construct_t"** %8, align 4
  call void @llvm.dbg.declare(metadata %"struct.std::piecewise_construct_t"** %8, metadata !3671, metadata !2533), !dbg !3672
  store %"class.std::tuple"* %3, %"class.std::tuple"** %9, align 4
  call void @llvm.dbg.declare(metadata %"class.std::tuple"** %9, metadata !3673, metadata !2533), !dbg !3672
  store %"class.std::tuple.4"* %4, %"class.std::tuple.4"** %10, align 4
  call void @llvm.dbg.declare(metadata %"class.std::tuple.4"** %10, metadata !3674, metadata !2533), !dbg !3672
  %14 = load %"class.__gnu_cxx::new_allocator"*, %"class.__gnu_cxx::new_allocator"** %6, align 4
  %15 = load %"struct.std::pair.3"*, %"struct.std::pair.3"** %7, align 4, !dbg !3675
  %16 = bitcast %"struct.std::pair.3"* %15 to i8*, !dbg !3675
  %17 = bitcast i8* %16 to %"struct.std::pair.3"*, !dbg !3676
  %18 = load %"struct.std::piecewise_construct_t"*, %"struct.std::piecewise_construct_t"** %8, align 4, !dbg !3677
  %19 = call dereferenceable(1) %"struct.std::piecewise_construct_t"* @_ZSt7forwardIRKSt21piecewise_construct_tEOT_RNSt16remove_referenceIS3_E4typeE(%"struct.std::piecewise_construct_t"* dereferenceable(1) %18) #15, !dbg !3678
  %20 = load %"class.std::tuple"*, %"class.std::tuple"** %9, align 4, !dbg !3677
  %21 = call dereferenceable(4) %"class.std::tuple"* @_ZSt7forwardISt5tupleIJRKlEEEOT_RNSt16remove_referenceIS4_E4typeE(%"class.std::tuple"* dereferenceable(4) %20) #15, !dbg !3679
  %22 = call %"class.std::tuple"* @_ZNSt5tupleIJRKlEEC2EOS2_(%"class.std::tuple"* %12, %"class.std::tuple"* dereferenceable(4) %21) #15, !dbg !3681
  %23 = load %"class.std::tuple.4"*, %"class.std::tuple.4"** %10, align 4, !dbg !3677
  %24 = call dereferenceable(1) %"class.std::tuple.4"* @_ZSt7forwardISt5tupleIJEEEOT_RNSt16remove_referenceIS2_E4typeE(%"class.std::tuple.4"* dereferenceable(1) %23) #15, !dbg !3683
  %25 = getelementptr inbounds %"class.std::tuple", %"class.std::tuple"* %12, i32 0, i32 0, !dbg !3685
  %26 = getelementptr inbounds %"struct.std::_Tuple_impl", %"struct.std::_Tuple_impl"* %25, i32 0, i32 0, !dbg !3685
  %27 = getelementptr inbounds %"struct.std::_Head_base", %"struct.std::_Head_base"* %26, i32 0, i32 0, !dbg !3685
  %28 = bitcast i32** %27 to [1 x i32]*, !dbg !3685
  %29 = load [1 x i32], [1 x i32]* %28, align 4, !dbg !3685
  %30 = call %"struct.std::pair.3"* @_ZNSt4pairIKlSt6vectorIS_IdlESaIS2_EEEC2IJRS0_EJEEESt21piecewise_construct_tSt5tupleIJDpT_EES9_IJDpT0_EE(%"struct.std::pair.3"* %17, [1 x i32] %29), !dbg !3686
  ret void, !dbg !3688
}

; Function Attrs: nounwind
define linkonce_odr %"class.std::tuple"* @_ZNSt5tupleIJRKlEEC2EOS2_(%"class.std::tuple"* returned, %"class.std::tuple"* dereferenceable(4)) unnamed_addr #0 comdat align 2 !dbg !3689 !xidane.fname !3690 !xidane.function_declaration_type !3691 !xidane.function_declaration_filename !3021 {
  %3 = alloca %"class.std::tuple"*, align 4
  %4 = alloca %"class.std::tuple"*, align 4
  store %"class.std::tuple"* %0, %"class.std::tuple"** %3, align 4
  call void @llvm.dbg.declare(metadata %"class.std::tuple"** %3, metadata !3692, metadata !2533), !dbg !3693
  store %"class.std::tuple"* %1, %"class.std::tuple"** %4, align 4
  call void @llvm.dbg.declare(metadata %"class.std::tuple"** %4, metadata !3694, metadata !2533), !dbg !3695
  %5 = load %"class.std::tuple"*, %"class.std::tuple"** %3, align 4
  %6 = bitcast %"class.std::tuple"* %5 to %"struct.std::_Tuple_impl"*, !dbg !3696
  %7 = load %"class.std::tuple"*, %"class.std::tuple"** %4, align 4, !dbg !3696
  %8 = bitcast %"class.std::tuple"* %7 to %"struct.std::_Tuple_impl"*, !dbg !3696
  %9 = call %"struct.std::_Tuple_impl"* @_ZNSt11_Tuple_implILj0EJRKlEEC2EOS2_(%"struct.std::_Tuple_impl"* %6, %"struct.std::_Tuple_impl"* dereferenceable(4) %8) #15, !dbg !3696
  ret %"class.std::tuple"* %5, !dbg !3696
}

define linkonce_odr %"struct.std::pair.3"* @_ZNSt4pairIKlSt6vectorIS_IdlESaIS2_EEEC2IJRS0_EJEEESt21piecewise_construct_tSt5tupleIJDpT_EES9_IJDpT0_EE(%"struct.std::pair.3"* returned, [1 x i32]) unnamed_addr #1 comdat align 2 !dbg !3697 !xidane.fname !3704 !xidane.function_declaration_type !3705 !xidane.function_declaration_filename !3706 {
  %3 = alloca %"struct.std::piecewise_construct_t", align 1
  %4 = alloca %"class.std::tuple", align 4
  %5 = alloca %"class.std::tuple.4", align 1
  %6 = alloca %"struct.std::pair.3"*, align 4
  %7 = alloca %"struct.std::_Index_tuple", align 1
  %8 = alloca %"struct.std::_Index_tuple.6", align 1
  %9 = getelementptr inbounds %"class.std::tuple", %"class.std::tuple"* %4, i32 0, i32 0
  %10 = getelementptr inbounds %"struct.std::_Tuple_impl", %"struct.std::_Tuple_impl"* %9, i32 0, i32 0
  %11 = getelementptr inbounds %"struct.std::_Head_base", %"struct.std::_Head_base"* %10, i32 0, i32 0
  %12 = bitcast i32** %11 to [1 x i32]*
  store [1 x i32] %1, [1 x i32]* %12, align 4
  store %"struct.std::pair.3"* %0, %"struct.std::pair.3"** %6, align 4
  call void @llvm.dbg.declare(metadata %"struct.std::pair.3"** %6, metadata !3707, metadata !2533), !dbg !3708
  call void @llvm.dbg.declare(metadata %"struct.std::piecewise_construct_t"* %3, metadata !3709, metadata !2533), !dbg !3710
  call void @llvm.dbg.declare(metadata %"class.std::tuple"* %4, metadata !3711, metadata !2533), !dbg !3712
  call void @llvm.dbg.declare(metadata %"class.std::tuple.4"* %5, metadata !3713, metadata !2533), !dbg !3714
  %13 = load %"struct.std::pair.3"*, %"struct.std::pair.3"** %6, align 4
  %14 = call %"struct.std::pair.3"* @_ZNSt4pairIKlSt6vectorIS_IdlESaIS2_EEEC2IJRS0_EJLj0EEJEJEEERSt5tupleIJDpT_EERS8_IJDpT1_EESt12_Index_tupleIJXspT0_EEESH_IJXspT2_EEE(%"struct.std::pair.3"* %13, %"class.std::tuple"* dereferenceable(4) %4, %"class.std::tuple.4"* dereferenceable(1) %5), !dbg !3715
  ret %"struct.std::pair.3"* %13, !dbg !3716
}

; Function Attrs: nounwind
define linkonce_odr %"struct.std::_Tuple_impl"* @_ZNSt11_Tuple_implILj0EJRKlEEC2EOS2_(%"struct.std::_Tuple_impl"* returned, %"struct.std::_Tuple_impl"* dereferenceable(4)) unnamed_addr #0 comdat align 2 personality i8* bitcast (i32 (...)* @__gxx_personality_v0 to i8*) !dbg !3717 !xidane.fname !3718 !xidane.function_declaration_type !3719 !xidane.function_declaration_filename !3021 {
  %3 = alloca %"struct.std::_Tuple_impl"*, align 4
  %4 = alloca %"struct.std::_Tuple_impl"*, align 4
  store %"struct.std::_Tuple_impl"* %0, %"struct.std::_Tuple_impl"** %3, align 4
  call void @llvm.dbg.declare(metadata %"struct.std::_Tuple_impl"** %3, metadata !3720, metadata !2533), !dbg !3722
  store %"struct.std::_Tuple_impl"* %1, %"struct.std::_Tuple_impl"** %4, align 4
  call void @llvm.dbg.declare(metadata %"struct.std::_Tuple_impl"** %4, metadata !3723, metadata !2533), !dbg !3724
  %5 = load %"struct.std::_Tuple_impl"*, %"struct.std::_Tuple_impl"** %3, align 4
  %6 = bitcast %"struct.std::_Tuple_impl"* %5 to %"struct.std::_Head_base"*, !dbg !3725
  %7 = load %"struct.std::_Tuple_impl"*, %"struct.std::_Tuple_impl"** %4, align 4, !dbg !3726
  %8 = call dereferenceable(4) i32* @_ZNSt11_Tuple_implILj0EJRKlEE7_M_headERS2_(%"struct.std::_Tuple_impl"* dereferenceable(4) %7) #15, !dbg !3727
  %9 = call dereferenceable(4) i32* @_ZSt7forwardIRKlEOT_RNSt16remove_referenceIS2_E4typeE(i32* dereferenceable(4) %8) #15, !dbg !3728
  %10 = invoke %"struct.std::_Head_base"* @_ZNSt10_Head_baseILj0ERKlLb0EEC2ES1_(%"struct.std::_Head_base"* %6, i32* dereferenceable(4) %9)
          to label %11 unwind label %12, !dbg !3730

; <label>:11:                                     ; preds = %2
  ret %"struct.std::_Tuple_impl"* %5, !dbg !3731

; <label>:12:                                     ; preds = %2
  %13 = landingpad { i8*, i32 }
          catch i8* null, !dbg !3733
  %14 = extractvalue { i8*, i32 } %13, 0, !dbg !3733
  call void @__clang_call_terminate(i8* %14) #7, !dbg !3733
  unreachable, !dbg !3733
}

; Function Attrs: nounwind
define linkonce_odr dereferenceable(4) i32* @_ZSt7forwardIRKlEOT_RNSt16remove_referenceIS2_E4typeE(i32* dereferenceable(4)) #0 comdat !dbg !3735 !xidane.fname !3257 !xidane.function_declaration_type !3743 !xidane.function_declaration_filename !3259 {
  %2 = alloca i32*, align 4
  store i32* %0, i32** %2, align 4
  call void @llvm.dbg.declare(metadata i32** %2, metadata !3744, metadata !2533), !dbg !3745
  %3 = load i32*, i32** %2, align 4, !dbg !3746
  ret i32* %3, !dbg !3747
}

; Function Attrs: nounwind
define linkonce_odr dereferenceable(4) i32* @_ZNSt11_Tuple_implILj0EJRKlEE7_M_headERS2_(%"struct.std::_Tuple_impl"* dereferenceable(4)) #0 comdat align 2 !dbg !3748 !xidane.fname !3749 !xidane.function_declaration_type !3750 !xidane.function_declaration_filename !3021 {
  %2 = alloca %"struct.std::_Tuple_impl"*, align 4
  store %"struct.std::_Tuple_impl"* %0, %"struct.std::_Tuple_impl"** %2, align 4
  call void @llvm.dbg.declare(metadata %"struct.std::_Tuple_impl"** %2, metadata !3751, metadata !2533), !dbg !3752
  %3 = load %"struct.std::_Tuple_impl"*, %"struct.std::_Tuple_impl"** %2, align 4, !dbg !3753
  %4 = bitcast %"struct.std::_Tuple_impl"* %3 to %"struct.std::_Head_base"*, !dbg !3753
  %5 = call dereferenceable(4) i32* @_ZNSt10_Head_baseILj0ERKlLb0EE7_M_headERS2_(%"struct.std::_Head_base"* dereferenceable(4) %4) #15, !dbg !3754
  ret i32* %5, !dbg !3755
}

; Function Attrs: nounwind
define linkonce_odr %"struct.std::_Head_base"* @_ZNSt10_Head_baseILj0ERKlLb0EEC2ES1_(%"struct.std::_Head_base"* returned, i32* dereferenceable(4)) unnamed_addr #0 comdat align 2 !dbg !3756 !xidane.fname !3757 !xidane.function_declaration_type !3020 !xidane.function_declaration_filename !3021 {
  %3 = alloca %"struct.std::_Head_base"*, align 4
  %4 = alloca i32*, align 4
  store %"struct.std::_Head_base"* %0, %"struct.std::_Head_base"** %3, align 4
  call void @llvm.dbg.declare(metadata %"struct.std::_Head_base"** %3, metadata !3758, metadata !2533), !dbg !3760
  store i32* %1, i32** %4, align 4
  call void @llvm.dbg.declare(metadata i32** %4, metadata !3761, metadata !2533), !dbg !3762
  %5 = load %"struct.std::_Head_base"*, %"struct.std::_Head_base"** %3, align 4
  %6 = getelementptr inbounds %"struct.std::_Head_base", %"struct.std::_Head_base"* %5, i32 0, i32 0, !dbg !3763
  %7 = load i32*, i32** %4, align 4, !dbg !3764
  store i32* %7, i32** %6, align 4, !dbg !3763
  ret %"struct.std::_Head_base"* %5, !dbg !3765
}

; Function Attrs: nounwind
define linkonce_odr dereferenceable(4) i32* @_ZNSt10_Head_baseILj0ERKlLb0EE7_M_headERS2_(%"struct.std::_Head_base"* dereferenceable(4)) #0 comdat align 2 !dbg !3766 !xidane.fname !3749 !xidane.function_declaration_type !3767 !xidane.function_declaration_filename !3021 {
  %2 = alloca %"struct.std::_Head_base"*, align 4
  store %"struct.std::_Head_base"* %0, %"struct.std::_Head_base"** %2, align 4
  call void @llvm.dbg.declare(metadata %"struct.std::_Head_base"** %2, metadata !3768, metadata !2533), !dbg !3769
  %3 = load %"struct.std::_Head_base"*, %"struct.std::_Head_base"** %2, align 4, !dbg !3770
  %4 = getelementptr inbounds %"struct.std::_Head_base", %"struct.std::_Head_base"* %3, i32 0, i32 0, !dbg !3771
  %5 = load i32*, i32** %4, align 4, !dbg !3771
  ret i32* %5, !dbg !3772
}

; Function Attrs: nounwind
define linkonce_odr %"struct.std::pair.3"* @_ZNSt4pairIKlSt6vectorIS_IdlESaIS2_EEEC2IJRS0_EJLj0EEJEJEEERSt5tupleIJDpT_EERS8_IJDpT1_EESt12_Index_tupleIJXspT0_EEESH_IJXspT2_EEE(%"struct.std::pair.3"* returned, %"class.std::tuple"* dereferenceable(4), %"class.std::tuple.4"* dereferenceable(1)) unnamed_addr #0 comdat align 2 !dbg !3773 !xidane.fname !3704 !xidane.function_declaration_type !3789 !xidane.function_declaration_filename !3706 {
  %4 = alloca %"struct.std::_Index_tuple", align 1
  %5 = alloca %"struct.std::_Index_tuple.6", align 1
  %6 = alloca %"struct.std::pair.3"*, align 4
  %7 = alloca %"class.std::tuple"*, align 4
  %8 = alloca %"class.std::tuple.4"*, align 4
  store %"struct.std::pair.3"* %0, %"struct.std::pair.3"** %6, align 4
  call void @llvm.dbg.declare(metadata %"struct.std::pair.3"** %6, metadata !3790, metadata !2533), !dbg !3791
  store %"class.std::tuple"* %1, %"class.std::tuple"** %7, align 4
  call void @llvm.dbg.declare(metadata %"class.std::tuple"** %7, metadata !3792, metadata !2533), !dbg !3793
  store %"class.std::tuple.4"* %2, %"class.std::tuple.4"** %8, align 4
  call void @llvm.dbg.declare(metadata %"class.std::tuple.4"** %8, metadata !3794, metadata !2533), !dbg !3795
  call void @llvm.dbg.declare(metadata %"struct.std::_Index_tuple"* %4, metadata !3796, metadata !2533), !dbg !3797
  call void @llvm.dbg.declare(metadata %"struct.std::_Index_tuple.6"* %5, metadata !3798, metadata !2533), !dbg !3799
  %9 = load %"struct.std::pair.3"*, %"struct.std::pair.3"** %6, align 4
  %10 = getelementptr inbounds %"struct.std::pair.3", %"struct.std::pair.3"* %9, i32 0, i32 0, !dbg !3800
  %11 = load %"class.std::tuple"*, %"class.std::tuple"** %7, align 4, !dbg !3801
  %12 = call dereferenceable(4) i32* @_ZSt3getILj0EJRKlEERNSt13tuple_elementIXT_ESt5tupleIJDpT0_EEE4typeERS6_(%"class.std::tuple"* dereferenceable(4) %11) #15, !dbg !3802
  %13 = call dereferenceable(4) i32* @_ZSt7forwardIRKlEOT_RNSt16remove_referenceIS2_E4typeE(i32* dereferenceable(4) %12) #15, !dbg !3803
  %14 = load i32, i32* %13, align 4, !dbg !3805
  store i32 %14, i32* %10, align 4, !dbg !3800
  %15 = getelementptr inbounds %"struct.std::pair.3", %"struct.std::pair.3"* %9, i32 0, i32 1, !dbg !3806
  %16 = call %"class.std::vector"* @_ZNSt6vectorISt4pairIdlESaIS1_EEC2Ev(%"class.std::vector"* %15) #15, !dbg !3806
  ret %"struct.std::pair.3"* %9, !dbg !3807
}

; Function Attrs: nounwind
define linkonce_odr dereferenceable(4) i32* @_ZSt3getILj0EJRKlEERNSt13tuple_elementIXT_ESt5tupleIJDpT0_EEE4typeERS6_(%"class.std::tuple"* dereferenceable(4)) #0 comdat !dbg !3808 !xidane.fname !3813 !xidane.function_declaration_type !3814 !xidane.function_declaration_filename !3021 {
  %2 = alloca %"class.std::tuple"*, align 4
  store %"class.std::tuple"* %0, %"class.std::tuple"** %2, align 4
  call void @llvm.dbg.declare(metadata %"class.std::tuple"** %2, metadata !3815, metadata !2533), !dbg !3816
  %3 = load %"class.std::tuple"*, %"class.std::tuple"** %2, align 4, !dbg !3817
  %4 = bitcast %"class.std::tuple"* %3 to %"struct.std::_Tuple_impl"*, !dbg !3817
  %5 = call dereferenceable(4) i32* @_ZSt12__get_helperILj0ERKlJEERT0_RSt11_Tuple_implIXT_EJS2_DpT1_EE(%"struct.std::_Tuple_impl"* dereferenceable(4) %4) #15, !dbg !3818
  ret i32* %5, !dbg !3819
}

; Function Attrs: nounwind
define linkonce_odr %"class.std::vector"* @_ZNSt6vectorISt4pairIdlESaIS1_EEC2Ev(%"class.std::vector"* returned) unnamed_addr #0 comdat align 2 personality i8* bitcast (i32 (...)* @__gxx_personality_v0 to i8*) !dbg !3820 !xidane.fname !2679 !xidane.function_declaration_type !2531 !xidane.function_declaration_filename !2602 {
  %2 = alloca %"class.std::vector"*, align 4
  store %"class.std::vector"* %0, %"class.std::vector"** %2, align 4
  call void @llvm.dbg.declare(metadata %"class.std::vector"** %2, metadata !3821, metadata !2533), !dbg !3822
  %3 = load %"class.std::vector"*, %"class.std::vector"** %2, align 4
  %4 = bitcast %"class.std::vector"* %3 to %"struct.std::_Vector_base"*, !dbg !3823
  %5 = invoke %"struct.std::_Vector_base"* @_ZNSt12_Vector_baseISt4pairIdlESaIS1_EEC2Ev(%"struct.std::_Vector_base"* %4)
          to label %6 unwind label %7, !dbg !3824

; <label>:6:                                      ; preds = %1
  ret %"class.std::vector"* %3, !dbg !3825

; <label>:7:                                      ; preds = %1
  %8 = landingpad { i8*, i32 }
          catch i8* null, !dbg !3827
  %9 = extractvalue { i8*, i32 } %8, 0, !dbg !3827
  call void @__clang_call_terminate(i8* %9) #7, !dbg !3827
  unreachable, !dbg !3827
}

; Function Attrs: nounwind
define linkonce_odr dereferenceable(4) i32* @_ZSt12__get_helperILj0ERKlJEERT0_RSt11_Tuple_implIXT_EJS2_DpT1_EE(%"struct.std::_Tuple_impl"* dereferenceable(4)) #0 comdat !dbg !3829 !xidane.fname !3832 !xidane.function_declaration_type !3833 !xidane.function_declaration_filename !3021 {
  %2 = alloca %"struct.std::_Tuple_impl"*, align 4
  store %"struct.std::_Tuple_impl"* %0, %"struct.std::_Tuple_impl"** %2, align 4
  call void @llvm.dbg.declare(metadata %"struct.std::_Tuple_impl"** %2, metadata !3834, metadata !2533), !dbg !3835
  %3 = load %"struct.std::_Tuple_impl"*, %"struct.std::_Tuple_impl"** %2, align 4, !dbg !3836
  %4 = call dereferenceable(4) i32* @_ZNSt11_Tuple_implILj0EJRKlEE7_M_headERS2_(%"struct.std::_Tuple_impl"* dereferenceable(4) %3) #15, !dbg !3837
  ret i32* %4, !dbg !3838
}

define linkonce_odr %"struct.std::_Vector_base"* @_ZNSt12_Vector_baseISt4pairIdlESaIS1_EEC2Ev(%"struct.std::_Vector_base"* returned) unnamed_addr #1 comdat align 2 !dbg !3839 !xidane.fname !3840 !xidane.function_declaration_type !2531 !xidane.function_declaration_filename !2602 {
  %2 = alloca %"struct.std::_Vector_base"*, align 4
  store %"struct.std::_Vector_base"* %0, %"struct.std::_Vector_base"** %2, align 4
  call void @llvm.dbg.declare(metadata %"struct.std::_Vector_base"** %2, metadata !3841, metadata !2533), !dbg !3843
  %3 = load %"struct.std::_Vector_base"*, %"struct.std::_Vector_base"** %2, align 4
  %4 = getelementptr inbounds %"struct.std::_Vector_base", %"struct.std::_Vector_base"* %3, i32 0, i32 0, !dbg !3844
  %5 = call %"struct.std::_Vector_base<std::pair<double, long>, std::allocator<std::pair<double, long> > >::_Vector_impl"* @_ZNSt12_Vector_baseISt4pairIdlESaIS1_EE12_Vector_implC2Ev(%"struct.std::_Vector_base<std::pair<double, long>, std::allocator<std::pair<double, long> > >::_Vector_impl"* %4), !dbg !3844
  ret %"struct.std::_Vector_base"* %3, !dbg !3845
}

; Function Attrs: nounwind
define linkonce_odr %"struct.std::_Vector_base<std::pair<double, long>, std::allocator<std::pair<double, long> > >::_Vector_impl"* @_ZNSt12_Vector_baseISt4pairIdlESaIS1_EE12_Vector_implC2Ev(%"struct.std::_Vector_base<std::pair<double, long>, std::allocator<std::pair<double, long> > >::_Vector_impl"* returned) unnamed_addr #0 comdat align 2 !dbg !3846 !xidane.fname !3847 !xidane.function_declaration_type !2531 !xidane.function_declaration_filename !2602 {
  %2 = alloca %"struct.std::_Vector_base<std::pair<double, long>, std::allocator<std::pair<double, long> > >::_Vector_impl"*, align 4
  store %"struct.std::_Vector_base<std::pair<double, long>, std::allocator<std::pair<double, long> > >::_Vector_impl"* %0, %"struct.std::_Vector_base<std::pair<double, long>, std::allocator<std::pair<double, long> > >::_Vector_impl"** %2, align 4
  call void @llvm.dbg.declare(metadata %"struct.std::_Vector_base<std::pair<double, long>, std::allocator<std::pair<double, long> > >::_Vector_impl"** %2, metadata !3848, metadata !2533), !dbg !3850
  %3 = load %"struct.std::_Vector_base<std::pair<double, long>, std::allocator<std::pair<double, long> > >::_Vector_impl"*, %"struct.std::_Vector_base<std::pair<double, long>, std::allocator<std::pair<double, long> > >::_Vector_impl"** %2, align 4
  %4 = bitcast %"struct.std::_Vector_base<std::pair<double, long>, std::allocator<std::pair<double, long> > >::_Vector_impl"* %3 to %"class.std::allocator.0"*, !dbg !3851
  %5 = call %"class.std::allocator.0"* @_ZNSaISt4pairIdlEEC2Ev(%"class.std::allocator.0"* %4) #15, !dbg !3852
  %6 = getelementptr inbounds %"struct.std::_Vector_base<std::pair<double, long>, std::allocator<std::pair<double, long> > >::_Vector_impl", %"struct.std::_Vector_base<std::pair<double, long>, std::allocator<std::pair<double, long> > >::_Vector_impl"* %3, i32 0, i32 0, !dbg !3853
  store %"struct.std::pair"* null, %"struct.std::pair"** %6, align 4, !dbg !3853
  %7 = getelementptr inbounds %"struct.std::_Vector_base<std::pair<double, long>, std::allocator<std::pair<double, long> > >::_Vector_impl", %"struct.std::_Vector_base<std::pair<double, long>, std::allocator<std::pair<double, long> > >::_Vector_impl"* %3, i32 0, i32 1, !dbg !3854
  store %"struct.std::pair"* null, %"struct.std::pair"** %7, align 4, !dbg !3854
  %8 = getelementptr inbounds %"struct.std::_Vector_base<std::pair<double, long>, std::allocator<std::pair<double, long> > >::_Vector_impl", %"struct.std::_Vector_base<std::pair<double, long>, std::allocator<std::pair<double, long> > >::_Vector_impl"* %3, i32 0, i32 2, !dbg !3855
  store %"struct.std::pair"* null, %"struct.std::pair"** %8, align 4, !dbg !3855
  ret %"struct.std::_Vector_base<std::pair<double, long>, std::allocator<std::pair<double, long> > >::_Vector_impl"* %3, !dbg !3856
}

; Function Attrs: nounwind
define linkonce_odr %"class.std::allocator.0"* @_ZNSaISt4pairIdlEEC2Ev(%"class.std::allocator.0"* returned) unnamed_addr #0 comdat align 2 !dbg !3857 !xidane.fname !2797 !xidane.function_declaration_type !2531 !xidane.function_declaration_filename !2798 {
  %2 = alloca %"class.std::allocator.0"*, align 4
  store %"class.std::allocator.0"* %0, %"class.std::allocator.0"** %2, align 4
  call void @llvm.dbg.declare(metadata %"class.std::allocator.0"** %2, metadata !3858, metadata !2533), !dbg !3860
  %3 = load %"class.std::allocator.0"*, %"class.std::allocator.0"** %2, align 4
  %4 = bitcast %"class.std::allocator.0"* %3 to %"class.__gnu_cxx::new_allocator.1"*, !dbg !3861
  %5 = call %"class.__gnu_cxx::new_allocator.1"* @_ZN9__gnu_cxx13new_allocatorISt4pairIdlEEC2Ev(%"class.__gnu_cxx::new_allocator.1"* %4) #15, !dbg !3862
  ret %"class.std::allocator.0"* %3, !dbg !3863
}

; Function Attrs: nounwind
define linkonce_odr %"class.__gnu_cxx::new_allocator.1"* @_ZN9__gnu_cxx13new_allocatorISt4pairIdlEEC2Ev(%"class.__gnu_cxx::new_allocator.1"* returned) unnamed_addr #0 comdat align 2 !dbg !3864 !xidane.fname !2827 !xidane.function_declaration_type !2531 !xidane.function_declaration_filename !2828 {
  %2 = alloca %"class.__gnu_cxx::new_allocator.1"*, align 4
  store %"class.__gnu_cxx::new_allocator.1"* %0, %"class.__gnu_cxx::new_allocator.1"** %2, align 4
  call void @llvm.dbg.declare(metadata %"class.__gnu_cxx::new_allocator.1"** %2, metadata !3865, metadata !2533), !dbg !3867
  %3 = load %"class.__gnu_cxx::new_allocator.1"*, %"class.__gnu_cxx::new_allocator.1"** %2, align 4
  ret %"class.__gnu_cxx::new_allocator.1"* %3, !dbg !3868
}

define linkonce_odr void @_ZNSt16allocator_traitsISaISt13_Rb_tree_nodeISt4pairIKlSt6vectorIS1_IdlESaIS4_EEEEEE10deallocateERS9_PS8_j(%"class.std::allocator"* dereferenceable(1), %"struct.std::_Rb_tree_node"*, i32) #1 comdat align 2 !dbg !3869 !xidane.fname !3870 !xidane.function_declaration_type !3871 !xidane.function_declaration_filename !3576 {
  %4 = alloca %"class.std::allocator"*, align 4
  %5 = alloca %"struct.std::_Rb_tree_node"*, align 4
  %6 = alloca i32, align 4
  store %"class.std::allocator"* %0, %"class.std::allocator"** %4, align 4
  call void @llvm.dbg.declare(metadata %"class.std::allocator"** %4, metadata !3872, metadata !2533), !dbg !3873
  store %"struct.std::_Rb_tree_node"* %1, %"struct.std::_Rb_tree_node"** %5, align 4
  call void @llvm.dbg.declare(metadata %"struct.std::_Rb_tree_node"** %5, metadata !3874, metadata !2533), !dbg !3875
  store i32 %2, i32* %6, align 4
  call void @llvm.dbg.declare(metadata i32* %6, metadata !3876, metadata !2533), !dbg !3877
  %7 = load %"class.std::allocator"*, %"class.std::allocator"** %4, align 4, !dbg !3878
  %8 = bitcast %"class.std::allocator"* %7 to %"class.__gnu_cxx::new_allocator"*, !dbg !3878
  %9 = load %"struct.std::_Rb_tree_node"*, %"struct.std::_Rb_tree_node"** %5, align 4, !dbg !3879
  %10 = load i32, i32* %6, align 4, !dbg !3880
  call void @_ZN9__gnu_cxx13new_allocatorISt13_Rb_tree_nodeISt4pairIKlSt6vectorIS2_IdlESaIS5_EEEEE10deallocateEPS9_j(%"class.__gnu_cxx::new_allocator"* %8, %"struct.std::_Rb_tree_node"* %9, i32 %10), !dbg !3881
  ret void, !dbg !3882
}

; Function Attrs: nounwind
define linkonce_odr void @_ZN9__gnu_cxx13new_allocatorISt13_Rb_tree_nodeISt4pairIKlSt6vectorIS2_IdlESaIS5_EEEEE10deallocateEPS9_j(%"class.__gnu_cxx::new_allocator"*, %"struct.std::_Rb_tree_node"*, i32) #0 comdat align 2 !dbg !3883 !xidane.fname !3870 !xidane.function_declaration_type !3884 !xidane.function_declaration_filename !2828 {
  %4 = alloca %"class.__gnu_cxx::new_allocator"*, align 4
  %5 = alloca %"struct.std::_Rb_tree_node"*, align 4
  %6 = alloca i32, align 4
  store %"class.__gnu_cxx::new_allocator"* %0, %"class.__gnu_cxx::new_allocator"** %4, align 4
  call void @llvm.dbg.declare(metadata %"class.__gnu_cxx::new_allocator"** %4, metadata !3885, metadata !2533), !dbg !3886
  store %"struct.std::_Rb_tree_node"* %1, %"struct.std::_Rb_tree_node"** %5, align 4
  call void @llvm.dbg.declare(metadata %"struct.std::_Rb_tree_node"** %5, metadata !3887, metadata !2533), !dbg !3888
  store i32 %2, i32* %6, align 4
  call void @llvm.dbg.declare(metadata i32* %6, metadata !3889, metadata !2533), !dbg !3890
  %7 = load %"class.__gnu_cxx::new_allocator"*, %"class.__gnu_cxx::new_allocator"** %4, align 4
  %8 = load %"struct.std::_Rb_tree_node"*, %"struct.std::_Rb_tree_node"** %5, align 4, !dbg !3891
  %9 = bitcast %"struct.std::_Rb_tree_node"* %8 to i8*, !dbg !3891
  call void @_ZdlPv(i8* %9) #15, !dbg !3892
  ret void, !dbg !3893
}

; Function Attrs: nounwind
define linkonce_odr i32 @_ZNKSt23_Rb_tree_const_iteratorISt4pairIKlSt6vectorIS0_IdlESaIS3_EEEE13_M_const_castEv(%"struct.std::_Rb_tree_const_iterator"*) #0 comdat align 2 !dbg !3894 !xidane.fname !3895 !xidane.function_declaration_type !2875 !xidane.function_declaration_filename !2747 {
  %2 = alloca %"struct.std::_Rb_tree_iterator", align 4
  %3 = alloca %"struct.std::_Rb_tree_const_iterator"*, align 4
  store %"struct.std::_Rb_tree_const_iterator"* %0, %"struct.std::_Rb_tree_const_iterator"** %3, align 4
  call void @llvm.dbg.declare(metadata %"struct.std::_Rb_tree_const_iterator"** %3, metadata !3896, metadata !2533), !dbg !3897
  %4 = load %"struct.std::_Rb_tree_const_iterator"*, %"struct.std::_Rb_tree_const_iterator"** %3, align 4
  %5 = getelementptr inbounds %"struct.std::_Rb_tree_const_iterator", %"struct.std::_Rb_tree_const_iterator"* %4, i32 0, i32 0, !dbg !3898
  %6 = load %"struct.std::_Rb_tree_node_base"*, %"struct.std::_Rb_tree_node_base"** %5, align 4, !dbg !3898
  %7 = call %"struct.std::_Rb_tree_iterator"* @_ZNSt17_Rb_tree_iteratorISt4pairIKlSt6vectorIS0_IdlESaIS3_EEEEC2EPSt18_Rb_tree_node_base(%"struct.std::_Rb_tree_iterator"* %2, %"struct.std::_Rb_tree_node_base"* %6) #15, !dbg !3899
  %8 = getelementptr inbounds %"struct.std::_Rb_tree_iterator", %"struct.std::_Rb_tree_iterator"* %2, i32 0, i32 0, !dbg !3900
  %9 = load %"struct.std::_Rb_tree_node_base"*, %"struct.std::_Rb_tree_node_base"** %8, align 4, !dbg !3900
  %10 = ptrtoint %"struct.std::_Rb_tree_node_base"* %9 to i32, !dbg !3900
  ret i32 %10, !dbg !3900
}

; Function Attrs: nounwind
define linkonce_odr i32 @_ZNKSt8_Rb_treeIlSt4pairIKlSt6vectorIS0_IdlESaIS3_EEESt10_Select1stIS6_ESt4lessIlESaIS6_EE4sizeEv(%"class.std::_Rb_tree"*) #0 comdat align 2 !dbg !3901 !xidane.fname !3902 !xidane.function_declaration_type !3614 !xidane.function_declaration_filename !2747 {
  %2 = alloca %"class.std::_Rb_tree"*, align 4
  store %"class.std::_Rb_tree"* %0, %"class.std::_Rb_tree"** %2, align 4
  call void @llvm.dbg.declare(metadata %"class.std::_Rb_tree"** %2, metadata !3903, metadata !2533), !dbg !3904
  %3 = load %"class.std::_Rb_tree"*, %"class.std::_Rb_tree"** %2, align 4
  %4 = getelementptr inbounds %"class.std::_Rb_tree", %"class.std::_Rb_tree"* %3, i32 0, i32 0, !dbg !3905
  %5 = bitcast %"struct.std::_Rb_tree<long, std::pair<const long, std::vector<std::pair<double, long>, std::allocator<std::pair<double, long> > > >, std::_Select1st<std::pair<const long, std::vector<std::pair<double, long>, std::allocator<std::pair<double, long> > > > >, std::less<long>, std::allocator<std::pair<const long, std::vector<std::pair<double, long>, std::allocator<std::pair<double, long> > > > > >::_Rb_tree_impl"* %4 to i8*, !dbg !3905
  %6 = getelementptr inbounds i8, i8* %5, i32 4, !dbg !3905
  %7 = bitcast i8* %6 to %"struct.std::_Rb_tree_header"*, !dbg !3905
  %8 = getelementptr inbounds %"struct.std::_Rb_tree_header", %"struct.std::_Rb_tree_header"* %7, i32 0, i32 1, !dbg !3906
  %9 = load i32, i32* %8, align 4, !dbg !3906
  ret i32 %9, !dbg !3907
}

define linkonce_odr dereferenceable(4) i32* @_ZNSt8_Rb_treeIlSt4pairIKlSt6vectorIS0_IdlESaIS3_EEESt10_Select1stIS6_ESt4lessIlESaIS6_EE6_S_keyEPKSt18_Rb_tree_node_base(%"struct.std::_Rb_tree_node_base"*) #1 comdat align 2 !dbg !3908 !xidane.fname !3105 !xidane.function_declaration_type !3909 !xidane.function_declaration_filename !2747 {
  %2 = alloca %"struct.std::_Rb_tree_node_base"*, align 4
  %3 = alloca %"struct.std::_Select1st", align 1
  store %"struct.std::_Rb_tree_node_base"* %0, %"struct.std::_Rb_tree_node_base"** %2, align 4
  call void @llvm.dbg.declare(metadata %"struct.std::_Rb_tree_node_base"** %2, metadata !3910, metadata !2533), !dbg !3911
  %4 = load %"struct.std::_Rb_tree_node_base"*, %"struct.std::_Rb_tree_node_base"** %2, align 4, !dbg !3912
  %5 = call dereferenceable(16) %"struct.std::pair.3"* @_ZNSt8_Rb_treeIlSt4pairIKlSt6vectorIS0_IdlESaIS3_EEESt10_Select1stIS6_ESt4lessIlESaIS6_EE8_S_valueEPKSt18_Rb_tree_node_base(%"struct.std::_Rb_tree_node_base"* %4), !dbg !3913
  %6 = call dereferenceable(4) i32* @_ZNKSt10_Select1stISt4pairIKlSt6vectorIS0_IdlESaIS3_EEEEclERKS6_(%"struct.std::_Select1st"* %3, %"struct.std::pair.3"* dereferenceable(16) %5), !dbg !3914
  ret i32* %6, !dbg !3916
}

; Function Attrs: nounwind
define linkonce_odr dereferenceable(4) %"struct.std::_Rb_tree_node_base"** @_ZNSt8_Rb_treeIlSt4pairIKlSt6vectorIS0_IdlESaIS3_EEESt10_Select1stIS6_ESt4lessIlESaIS6_EE12_M_rightmostEv(%"class.std::_Rb_tree"*) #0 comdat align 2 !dbg !3917 !xidane.fname !3918 !xidane.function_declaration_type !3919 !xidane.function_declaration_filename !2747 {
  %2 = alloca %"class.std::_Rb_tree"*, align 4
  store %"class.std::_Rb_tree"* %0, %"class.std::_Rb_tree"** %2, align 4
  call void @llvm.dbg.declare(metadata %"class.std::_Rb_tree"** %2, metadata !3920, metadata !2533), !dbg !3921
  %3 = load %"class.std::_Rb_tree"*, %"class.std::_Rb_tree"** %2, align 4
  %4 = getelementptr inbounds %"class.std::_Rb_tree", %"class.std::_Rb_tree"* %3, i32 0, i32 0, !dbg !3922
  %5 = bitcast %"struct.std::_Rb_tree<long, std::pair<const long, std::vector<std::pair<double, long>, std::allocator<std::pair<double, long> > > >, std::_Select1st<std::pair<const long, std::vector<std::pair<double, long>, std::allocator<std::pair<double, long> > > > >, std::less<long>, std::allocator<std::pair<const long, std::vector<std::pair<double, long>, std::allocator<std::pair<double, long> > > > > >::_Rb_tree_impl"* %4 to i8*, !dbg !3923
  %6 = getelementptr inbounds i8, i8* %5, i32 4, !dbg !3923
  %7 = bitcast i8* %6 to %"struct.std::_Rb_tree_header"*, !dbg !3923
  %8 = getelementptr inbounds %"struct.std::_Rb_tree_header", %"struct.std::_Rb_tree_header"* %7, i32 0, i32 0, !dbg !3924
  %9 = getelementptr inbounds %"struct.std::_Rb_tree_node_base", %"struct.std::_Rb_tree_node_base"* %8, i32 0, i32 3, !dbg !3925
  ret %"struct.std::_Rb_tree_node_base"** %9, !dbg !3926
}

; Function Attrs: nounwind
define linkonce_odr %"struct.std::pair.5"* @_ZNSt4pairIPSt18_Rb_tree_node_baseS1_EC2IRS1_Lb1EEERKS1_OT_(%"struct.std::pair.5"* returned, %"struct.std::_Rb_tree_node_base"** dereferenceable(4), %"struct.std::_Rb_tree_node_base"** dereferenceable(4)) unnamed_addr #0 comdat align 2 !dbg !3927 !xidane.fname !3704 !xidane.function_declaration_type !3936 !xidane.function_declaration_filename !3706 {
  %4 = alloca %"struct.std::pair.5"*, align 4
  %5 = alloca %"struct.std::_Rb_tree_node_base"**, align 4
  %6 = alloca %"struct.std::_Rb_tree_node_base"**, align 4
  store %"struct.std::pair.5"* %0, %"struct.std::pair.5"** %4, align 4
  call void @llvm.dbg.declare(metadata %"struct.std::pair.5"** %4, metadata !3937, metadata !2533), !dbg !3939
  store %"struct.std::_Rb_tree_node_base"** %1, %"struct.std::_Rb_tree_node_base"*** %5, align 4
  call void @llvm.dbg.declare(metadata %"struct.std::_Rb_tree_node_base"*** %5, metadata !3940, metadata !2533), !dbg !3941
  store %"struct.std::_Rb_tree_node_base"** %2, %"struct.std::_Rb_tree_node_base"*** %6, align 4
  call void @llvm.dbg.declare(metadata %"struct.std::_Rb_tree_node_base"*** %6, metadata !3942, metadata !2533), !dbg !3943
  %7 = load %"struct.std::pair.5"*, %"struct.std::pair.5"** %4, align 4
  %8 = getelementptr inbounds %"struct.std::pair.5", %"struct.std::pair.5"* %7, i32 0, i32 0, !dbg !3944
  %9 = load %"struct.std::_Rb_tree_node_base"**, %"struct.std::_Rb_tree_node_base"*** %5, align 4, !dbg !3945
  %10 = load %"struct.std::_Rb_tree_node_base"*, %"struct.std::_Rb_tree_node_base"** %9, align 4, !dbg !3945
  store %"struct.std::_Rb_tree_node_base"* %10, %"struct.std::_Rb_tree_node_base"** %8, align 4, !dbg !3944
  %11 = getelementptr inbounds %"struct.std::pair.5", %"struct.std::pair.5"* %7, i32 0, i32 1, !dbg !3946
  %12 = load %"struct.std::_Rb_tree_node_base"**, %"struct.std::_Rb_tree_node_base"*** %6, align 4, !dbg !3947
  %13 = call dereferenceable(4) %"struct.std::_Rb_tree_node_base"** @_ZSt7forwardIRPSt18_Rb_tree_node_baseEOT_RNSt16remove_referenceIS3_E4typeE(%"struct.std::_Rb_tree_node_base"** dereferenceable(4) %12) #15, !dbg !3948
  %14 = load %"struct.std::_Rb_tree_node_base"*, %"struct.std::_Rb_tree_node_base"** %13, align 4, !dbg !3948
  store %"struct.std::_Rb_tree_node_base"* %14, %"struct.std::_Rb_tree_node_base"** %11, align 4, !dbg !3946
  ret %"struct.std::pair.5"* %7, !dbg !3949
}

define linkonce_odr void @_ZNSt8_Rb_treeIlSt4pairIKlSt6vectorIS0_IdlESaIS3_EEESt10_Select1stIS6_ESt4lessIlESaIS6_EE24_M_get_insert_unique_posERS1_(%"struct.std::pair.5"* noalias sret, %"class.std::_Rb_tree"*, i32* dereferenceable(4)) #1 comdat align 2 !dbg !3950 !xidane.fname !3951 !xidane.function_declaration_type !3952 !xidane.function_declaration_filename !2747 {
  %4 = alloca %"class.std::_Rb_tree"*, align 4
  %5 = alloca i32*, align 4
  %6 = alloca %"struct.std::_Rb_tree_node"*, align 4
  %7 = alloca %"struct.std::_Rb_tree_node_base"*, align 4
  %8 = alloca i8, align 1
  %9 = alloca %"struct.std::_Rb_tree_iterator", align 4
  %10 = alloca %"struct.std::_Rb_tree_iterator", align 4
  %11 = alloca %"struct.std::_Rb_tree_node_base"*, align 4
  store %"class.std::_Rb_tree"* %1, %"class.std::_Rb_tree"** %4, align 4
  call void @llvm.dbg.declare(metadata %"class.std::_Rb_tree"** %4, metadata !3953, metadata !2533), !dbg !3954
  store i32* %2, i32** %5, align 4
  call void @llvm.dbg.declare(metadata i32** %5, metadata !3955, metadata !2533), !dbg !3956
  %12 = load %"class.std::_Rb_tree"*, %"class.std::_Rb_tree"** %4, align 4
  call void @llvm.dbg.declare(metadata %"struct.std::_Rb_tree_node"** %6, metadata !3957, metadata !2533), !dbg !3958
  %13 = call %"struct.std::_Rb_tree_node"* @_ZNSt8_Rb_treeIlSt4pairIKlSt6vectorIS0_IdlESaIS3_EEESt10_Select1stIS6_ESt4lessIlESaIS6_EE8_M_beginEv(%"class.std::_Rb_tree"* %12) #15, !dbg !3959
  store %"struct.std::_Rb_tree_node"* %13, %"struct.std::_Rb_tree_node"** %6, align 4, !dbg !3958
  call void @llvm.dbg.declare(metadata %"struct.std::_Rb_tree_node_base"** %7, metadata !3960, metadata !2533), !dbg !3961
  %14 = call %"struct.std::_Rb_tree_node_base"* @_ZNSt8_Rb_treeIlSt4pairIKlSt6vectorIS0_IdlESaIS3_EEESt10_Select1stIS6_ESt4lessIlESaIS6_EE6_M_endEv(%"class.std::_Rb_tree"* %12) #15, !dbg !3962
  store %"struct.std::_Rb_tree_node_base"* %14, %"struct.std::_Rb_tree_node_base"** %7, align 4, !dbg !3961
  call void @llvm.dbg.declare(metadata i8* %8, metadata !3963, metadata !2533), !dbg !3964
  store i8 1, i8* %8, align 1, !dbg !3964
  br label %15, !dbg !3965

; <label>:15:                                     ; preds = %39, %3
  %16 = load %"struct.std::_Rb_tree_node"*, %"struct.std::_Rb_tree_node"** %6, align 4, !dbg !3966
  %17 = icmp ne %"struct.std::_Rb_tree_node"* %16, null, !dbg !3968
  br i1 %17, label %18, label %41, !dbg !3969

; <label>:18:                                     ; preds = %15
  %19 = load %"struct.std::_Rb_tree_node"*, %"struct.std::_Rb_tree_node"** %6, align 4, !dbg !3970
  %20 = bitcast %"struct.std::_Rb_tree_node"* %19 to %"struct.std::_Rb_tree_node_base"*, !dbg !3970
  store %"struct.std::_Rb_tree_node_base"* %20, %"struct.std::_Rb_tree_node_base"** %7, align 4, !dbg !3972
  %21 = getelementptr inbounds %"class.std::_Rb_tree", %"class.std::_Rb_tree"* %12, i32 0, i32 0, !dbg !3973
  %22 = bitcast %"struct.std::_Rb_tree<long, std::pair<const long, std::vector<std::pair<double, long>, std::allocator<std::pair<double, long> > > >, std::_Select1st<std::pair<const long, std::vector<std::pair<double, long>, std::allocator<std::pair<double, long> > > > >, std::less<long>, std::allocator<std::pair<const long, std::vector<std::pair<double, long>, std::allocator<std::pair<double, long> > > > > >::_Rb_tree_impl"* %21 to %"struct.std::_Rb_tree_key_compare"*, !dbg !3973
  %23 = getelementptr inbounds %"struct.std::_Rb_tree_key_compare", %"struct.std::_Rb_tree_key_compare"* %22, i32 0, i32 0, !dbg !3974
  %24 = load i32*, i32** %5, align 4, !dbg !3975
  %25 = load %"struct.std::_Rb_tree_node"*, %"struct.std::_Rb_tree_node"** %6, align 4, !dbg !3976
  %26 = call dereferenceable(4) i32* @_ZNSt8_Rb_treeIlSt4pairIKlSt6vectorIS0_IdlESaIS3_EEESt10_Select1stIS6_ESt4lessIlESaIS6_EE6_S_keyEPKSt13_Rb_tree_nodeIS6_E(%"struct.std::_Rb_tree_node"* %25), !dbg !3977
  %27 = call zeroext i1 @_ZNKSt4lessIlEclERKlS2_(%"struct.std::less"* %23, i32* dereferenceable(4) %24, i32* dereferenceable(4) %26), !dbg !3978
  %28 = zext i1 %27 to i8, !dbg !3980
  store i8 %28, i8* %8, align 1, !dbg !3980
  %29 = load i8, i8* %8, align 1, !dbg !3981
  %30 = trunc i8 %29 to i1, !dbg !3981
  br i1 %30, label %31, label %35, !dbg !3981

; <label>:31:                                     ; preds = %18
  %32 = load %"struct.std::_Rb_tree_node"*, %"struct.std::_Rb_tree_node"** %6, align 4, !dbg !3982
  %33 = bitcast %"struct.std::_Rb_tree_node"* %32 to %"struct.std::_Rb_tree_node_base"*, !dbg !3982
  %34 = call %"struct.std::_Rb_tree_node"* @_ZNSt8_Rb_treeIlSt4pairIKlSt6vectorIS0_IdlESaIS3_EEESt10_Select1stIS6_ESt4lessIlESaIS6_EE7_S_leftEPSt18_Rb_tree_node_base(%"struct.std::_Rb_tree_node_base"* %33) #15, !dbg !3983
  br label %39, !dbg !3984

; <label>:35:                                     ; preds = %18
  %36 = load %"struct.std::_Rb_tree_node"*, %"struct.std::_Rb_tree_node"** %6, align 4, !dbg !3985
  %37 = bitcast %"struct.std::_Rb_tree_node"* %36 to %"struct.std::_Rb_tree_node_base"*, !dbg !3985
  %38 = call %"struct.std::_Rb_tree_node"* @_ZNSt8_Rb_treeIlSt4pairIKlSt6vectorIS0_IdlESaIS3_EEESt10_Select1stIS6_ESt4lessIlESaIS6_EE8_S_rightEPSt18_Rb_tree_node_base(%"struct.std::_Rb_tree_node_base"* %37) #15, !dbg !3987
  br label %39, !dbg !3988

; <label>:39:                                     ; preds = %35, %31
  %40 = phi %"struct.std::_Rb_tree_node"* [ %34, %31 ], [ %38, %35 ], !dbg !3989
  store %"struct.std::_Rb_tree_node"* %40, %"struct.std::_Rb_tree_node"** %6, align 4, !dbg !3991
  br label %15, !dbg !3992, !llvm.loop !3994

; <label>:41:                                     ; preds = %15
  call void @llvm.dbg.declare(metadata %"struct.std::_Rb_tree_iterator"* %9, metadata !3995, metadata !2533), !dbg !3996
  %42 = load %"struct.std::_Rb_tree_node_base"*, %"struct.std::_Rb_tree_node_base"** %7, align 4, !dbg !3997
  %43 = call %"struct.std::_Rb_tree_iterator"* @_ZNSt17_Rb_tree_iteratorISt4pairIKlSt6vectorIS0_IdlESaIS3_EEEEC2EPSt18_Rb_tree_node_base(%"struct.std::_Rb_tree_iterator"* %9, %"struct.std::_Rb_tree_node_base"* %42) #15, !dbg !3998
  %44 = load i8, i8* %8, align 1, !dbg !3999
  %45 = trunc i8 %44 to i1, !dbg !3999
  br i1 %45, label %46, label %56, !dbg !4001

; <label>:46:                                     ; preds = %41
  %47 = call i32 @_ZNSt8_Rb_treeIlSt4pairIKlSt6vectorIS0_IdlESaIS3_EEESt10_Select1stIS6_ESt4lessIlESaIS6_EE5beginEv(%"class.std::_Rb_tree"* %12) #15, !dbg !4002
  %48 = getelementptr inbounds %"struct.std::_Rb_tree_iterator", %"struct.std::_Rb_tree_iterator"* %10, i32 0, i32 0, !dbg !4002
  %49 = inttoptr i32 %47 to %"struct.std::_Rb_tree_node_base"*, !dbg !4002
  store %"struct.std::_Rb_tree_node_base"* %49, %"struct.std::_Rb_tree_node_base"** %48, align 4, !dbg !4002
  %50 = call zeroext i1 @_ZNKSt17_Rb_tree_iteratorISt4pairIKlSt6vectorIS0_IdlESaIS3_EEEEeqERKS7_(%"struct.std::_Rb_tree_iterator"* %9, %"struct.std::_Rb_tree_iterator"* dereferenceable(4) %10) #15, !dbg !4005
  br i1 %50, label %51, label %53, !dbg !4007

; <label>:51:                                     ; preds = %46
  %52 = call %"struct.std::pair.5"* @_ZNSt4pairIPSt18_Rb_tree_node_baseS1_EC2IRPSt13_Rb_tree_nodeIS_IKlSt6vectorIS_IdlESaIS7_EEEERS1_Lb1EEEOT_OT0_(%"struct.std::pair.5"* %0, %"struct.std::_Rb_tree_node"** dereferenceable(4) %6, %"struct.std::_Rb_tree_node_base"** dereferenceable(4) %7), !dbg !4008
  br label %70, !dbg !4009

; <label>:53:                                     ; preds = %46
  %54 = call dereferenceable(4) %"struct.std::_Rb_tree_iterator"* @_ZNSt17_Rb_tree_iteratorISt4pairIKlSt6vectorIS0_IdlESaIS3_EEEEmmEv(%"struct.std::_Rb_tree_iterator"* %9) #15, !dbg !4010
  br label %55

; <label>:55:                                     ; preds = %53
  br label %56, !dbg !4011

; <label>:56:                                     ; preds = %55, %41
  %57 = getelementptr inbounds %"class.std::_Rb_tree", %"class.std::_Rb_tree"* %12, i32 0, i32 0, !dbg !4012
  %58 = bitcast %"struct.std::_Rb_tree<long, std::pair<const long, std::vector<std::pair<double, long>, std::allocator<std::pair<double, long> > > >, std::_Select1st<std::pair<const long, std::vector<std::pair<double, long>, std::allocator<std::pair<double, long> > > > >, std::less<long>, std::allocator<std::pair<const long, std::vector<std::pair<double, long>, std::allocator<std::pair<double, long> > > > > >::_Rb_tree_impl"* %57 to %"struct.std::_Rb_tree_key_compare"*, !dbg !4012
  %59 = getelementptr inbounds %"struct.std::_Rb_tree_key_compare", %"struct.std::_Rb_tree_key_compare"* %58, i32 0, i32 0, !dbg !4014
  %60 = getelementptr inbounds %"struct.std::_Rb_tree_iterator", %"struct.std::_Rb_tree_iterator"* %9, i32 0, i32 0, !dbg !4015
  %61 = load %"struct.std::_Rb_tree_node_base"*, %"struct.std::_Rb_tree_node_base"** %60, align 4, !dbg !4015
  %62 = call dereferenceable(4) i32* @_ZNSt8_Rb_treeIlSt4pairIKlSt6vectorIS0_IdlESaIS3_EEESt10_Select1stIS6_ESt4lessIlESaIS6_EE6_S_keyEPKSt18_Rb_tree_node_base(%"struct.std::_Rb_tree_node_base"* %61), !dbg !4016
  %63 = load i32*, i32** %5, align 4, !dbg !4017
  %64 = call zeroext i1 @_ZNKSt4lessIlEclERKlS2_(%"struct.std::less"* %59, i32* dereferenceable(4) %62, i32* dereferenceable(4) %63), !dbg !4018
  br i1 %64, label %65, label %67, !dbg !4020

; <label>:65:                                     ; preds = %56
  %66 = call %"struct.std::pair.5"* @_ZNSt4pairIPSt18_Rb_tree_node_baseS1_EC2IRPSt13_Rb_tree_nodeIS_IKlSt6vectorIS_IdlESaIS7_EEEERS1_Lb1EEEOT_OT0_(%"struct.std::pair.5"* %0, %"struct.std::_Rb_tree_node"** dereferenceable(4) %6, %"struct.std::_Rb_tree_node_base"** dereferenceable(4) %7), !dbg !4021
  br label %70, !dbg !4022

; <label>:67:                                     ; preds = %56
  %68 = getelementptr inbounds %"struct.std::_Rb_tree_iterator", %"struct.std::_Rb_tree_iterator"* %9, i32 0, i32 0, !dbg !4023
  store %"struct.std::_Rb_tree_node_base"* null, %"struct.std::_Rb_tree_node_base"** %11, align 4, !dbg !4024
  %69 = call %"struct.std::pair.5"* @_ZNSt4pairIPSt18_Rb_tree_node_baseS1_EC2IRS1_Lb1EEEOT_RKS1_(%"struct.std::pair.5"* %0, %"struct.std::_Rb_tree_node_base"** dereferenceable(4) %68, %"struct.std::_Rb_tree_node_base"** dereferenceable(4) %11), !dbg !4025
  br label %70, !dbg !4026

; <label>:70:                                     ; preds = %67, %65, %51
  ret void, !dbg !4027
}

; Function Attrs: nounwind
define linkonce_odr dereferenceable(4) %"struct.std::_Rb_tree_node_base"** @_ZNSt8_Rb_treeIlSt4pairIKlSt6vectorIS0_IdlESaIS3_EEESt10_Select1stIS6_ESt4lessIlESaIS6_EE11_M_leftmostEv(%"class.std::_Rb_tree"*) #0 comdat align 2 !dbg !4028 !xidane.fname !4029 !xidane.function_declaration_type !3919 !xidane.function_declaration_filename !2747 {
  %2 = alloca %"class.std::_Rb_tree"*, align 4
  store %"class.std::_Rb_tree"* %0, %"class.std::_Rb_tree"** %2, align 4
  call void @llvm.dbg.declare(metadata %"class.std::_Rb_tree"** %2, metadata !4030, metadata !2533), !dbg !4031
  %3 = load %"class.std::_Rb_tree"*, %"class.std::_Rb_tree"** %2, align 4
  %4 = getelementptr inbounds %"class.std::_Rb_tree", %"class.std::_Rb_tree"* %3, i32 0, i32 0, !dbg !4032
  %5 = bitcast %"struct.std::_Rb_tree<long, std::pair<const long, std::vector<std::pair<double, long>, std::allocator<std::pair<double, long> > > >, std::_Select1st<std::pair<const long, std::vector<std::pair<double, long>, std::allocator<std::pair<double, long> > > > >, std::less<long>, std::allocator<std::pair<const long, std::vector<std::pair<double, long>, std::allocator<std::pair<double, long> > > > > >::_Rb_tree_impl"* %4 to i8*, !dbg !4033
  %6 = getelementptr inbounds i8, i8* %5, i32 4, !dbg !4033
  %7 = bitcast i8* %6 to %"struct.std::_Rb_tree_header"*, !dbg !4033
  %8 = getelementptr inbounds %"struct.std::_Rb_tree_header", %"struct.std::_Rb_tree_header"* %7, i32 0, i32 0, !dbg !4034
  %9 = getelementptr inbounds %"struct.std::_Rb_tree_node_base", %"struct.std::_Rb_tree_node_base"* %8, i32 0, i32 2, !dbg !4035
  ret %"struct.std::_Rb_tree_node_base"** %9, !dbg !4036
}

; Function Attrs: nounwind
define linkonce_odr %"struct.std::pair.5"* @_ZNSt4pairIPSt18_Rb_tree_node_baseS1_EC2IRS1_S4_Lb1EEEOT_OT0_(%"struct.std::pair.5"* returned, %"struct.std::_Rb_tree_node_base"** dereferenceable(4), %"struct.std::_Rb_tree_node_base"** dereferenceable(4)) unnamed_addr #0 comdat align 2 !dbg !4037 !xidane.fname !3704 !xidane.function_declaration_type !4043 !xidane.function_declaration_filename !3706 {
  %4 = alloca %"struct.std::pair.5"*, align 4
  %5 = alloca %"struct.std::_Rb_tree_node_base"**, align 4
  %6 = alloca %"struct.std::_Rb_tree_node_base"**, align 4
  store %"struct.std::pair.5"* %0, %"struct.std::pair.5"** %4, align 4
  call void @llvm.dbg.declare(metadata %"struct.std::pair.5"** %4, metadata !4044, metadata !2533), !dbg !4045
  store %"struct.std::_Rb_tree_node_base"** %1, %"struct.std::_Rb_tree_node_base"*** %5, align 4
  call void @llvm.dbg.declare(metadata %"struct.std::_Rb_tree_node_base"*** %5, metadata !4046, metadata !2533), !dbg !4047
  store %"struct.std::_Rb_tree_node_base"** %2, %"struct.std::_Rb_tree_node_base"*** %6, align 4
  call void @llvm.dbg.declare(metadata %"struct.std::_Rb_tree_node_base"*** %6, metadata !4048, metadata !2533), !dbg !4049
  %7 = load %"struct.std::pair.5"*, %"struct.std::pair.5"** %4, align 4
  %8 = getelementptr inbounds %"struct.std::pair.5", %"struct.std::pair.5"* %7, i32 0, i32 0, !dbg !4050
  %9 = load %"struct.std::_Rb_tree_node_base"**, %"struct.std::_Rb_tree_node_base"*** %5, align 4, !dbg !4051
  %10 = call dereferenceable(4) %"struct.std::_Rb_tree_node_base"** @_ZSt7forwardIRPSt18_Rb_tree_node_baseEOT_RNSt16remove_referenceIS3_E4typeE(%"struct.std::_Rb_tree_node_base"** dereferenceable(4) %9) #15, !dbg !4052
  %11 = load %"struct.std::_Rb_tree_node_base"*, %"struct.std::_Rb_tree_node_base"** %10, align 4, !dbg !4052
  store %"struct.std::_Rb_tree_node_base"* %11, %"struct.std::_Rb_tree_node_base"** %8, align 4, !dbg !4050
  %12 = getelementptr inbounds %"struct.std::pair.5", %"struct.std::pair.5"* %7, i32 0, i32 1, !dbg !4053
  %13 = load %"struct.std::_Rb_tree_node_base"**, %"struct.std::_Rb_tree_node_base"*** %6, align 4, !dbg !4054
  %14 = call dereferenceable(4) %"struct.std::_Rb_tree_node_base"** @_ZSt7forwardIRPSt18_Rb_tree_node_baseEOT_RNSt16remove_referenceIS3_E4typeE(%"struct.std::_Rb_tree_node_base"** dereferenceable(4) %13) #15, !dbg !4055
  %15 = load %"struct.std::_Rb_tree_node_base"*, %"struct.std::_Rb_tree_node_base"** %14, align 4, !dbg !4057
  store %"struct.std::_Rb_tree_node_base"* %15, %"struct.std::_Rb_tree_node_base"** %12, align 4, !dbg !4053
  ret %"struct.std::pair.5"* %7, !dbg !4058
}

; Function Attrs: nounwind
define linkonce_odr dereferenceable(4) %"struct.std::_Rb_tree_iterator"* @_ZNSt17_Rb_tree_iteratorISt4pairIKlSt6vectorIS0_IdlESaIS3_EEEEmmEv(%"struct.std::_Rb_tree_iterator"*) #0 comdat align 2 !dbg !4059 !xidane.fname !4060 !xidane.function_declaration_type !4061 !xidane.function_declaration_filename !2747 {
  %2 = alloca %"struct.std::_Rb_tree_iterator"*, align 4
  store %"struct.std::_Rb_tree_iterator"* %0, %"struct.std::_Rb_tree_iterator"** %2, align 4
  call void @llvm.dbg.declare(metadata %"struct.std::_Rb_tree_iterator"** %2, metadata !4062, metadata !2533), !dbg !4063
  %3 = load %"struct.std::_Rb_tree_iterator"*, %"struct.std::_Rb_tree_iterator"** %2, align 4
  %4 = getelementptr inbounds %"struct.std::_Rb_tree_iterator", %"struct.std::_Rb_tree_iterator"* %3, i32 0, i32 0, !dbg !4064
  %5 = load %"struct.std::_Rb_tree_node_base"*, %"struct.std::_Rb_tree_node_base"** %4, align 4, !dbg !4064
  %6 = call %"struct.std::_Rb_tree_node_base"* @_ZSt18_Rb_tree_decrementPSt18_Rb_tree_node_base(%"struct.std::_Rb_tree_node_base"* %5) #17, !dbg !4065
  %7 = getelementptr inbounds %"struct.std::_Rb_tree_iterator", %"struct.std::_Rb_tree_iterator"* %3, i32 0, i32 0, !dbg !4066
  store %"struct.std::_Rb_tree_node_base"* %6, %"struct.std::_Rb_tree_node_base"** %7, align 4, !dbg !4067
  ret %"struct.std::_Rb_tree_iterator"* %3, !dbg !4068
}

; Function Attrs: nounwind
define linkonce_odr dereferenceable(4) %"struct.std::_Rb_tree_iterator"* @_ZNSt17_Rb_tree_iteratorISt4pairIKlSt6vectorIS0_IdlESaIS3_EEEEppEv(%"struct.std::_Rb_tree_iterator"*) #0 comdat align 2 !dbg !4069 !xidane.fname !4070 !xidane.function_declaration_type !4061 !xidane.function_declaration_filename !2747 {
  %2 = alloca %"struct.std::_Rb_tree_iterator"*, align 4
  store %"struct.std::_Rb_tree_iterator"* %0, %"struct.std::_Rb_tree_iterator"** %2, align 4
  call void @llvm.dbg.declare(metadata %"struct.std::_Rb_tree_iterator"** %2, metadata !4071, metadata !2533), !dbg !4072
  %3 = load %"struct.std::_Rb_tree_iterator"*, %"struct.std::_Rb_tree_iterator"** %2, align 4
  %4 = getelementptr inbounds %"struct.std::_Rb_tree_iterator", %"struct.std::_Rb_tree_iterator"* %3, i32 0, i32 0, !dbg !4073
  %5 = load %"struct.std::_Rb_tree_node_base"*, %"struct.std::_Rb_tree_node_base"** %4, align 4, !dbg !4073
  %6 = call %"struct.std::_Rb_tree_node_base"* @_ZSt18_Rb_tree_incrementPSt18_Rb_tree_node_base(%"struct.std::_Rb_tree_node_base"* %5) #17, !dbg !4074
  %7 = getelementptr inbounds %"struct.std::_Rb_tree_iterator", %"struct.std::_Rb_tree_iterator"* %3, i32 0, i32 0, !dbg !4075
  store %"struct.std::_Rb_tree_node_base"* %6, %"struct.std::_Rb_tree_node_base"** %7, align 4, !dbg !4076
  ret %"struct.std::_Rb_tree_iterator"* %3, !dbg !4077
}

; Function Attrs: nounwind
define linkonce_odr %"struct.std::pair.5"* @_ZNSt4pairIPSt18_Rb_tree_node_baseS1_EC2IRS1_Lb1EEEOT_RKS1_(%"struct.std::pair.5"* returned, %"struct.std::_Rb_tree_node_base"** dereferenceable(4), %"struct.std::_Rb_tree_node_base"** dereferenceable(4)) unnamed_addr #0 comdat align 2 !dbg !4078 !xidane.fname !3704 !xidane.function_declaration_type !4083 !xidane.function_declaration_filename !3706 {
  %4 = alloca %"struct.std::pair.5"*, align 4
  %5 = alloca %"struct.std::_Rb_tree_node_base"**, align 4
  %6 = alloca %"struct.std::_Rb_tree_node_base"**, align 4
  store %"struct.std::pair.5"* %0, %"struct.std::pair.5"** %4, align 4
  call void @llvm.dbg.declare(metadata %"struct.std::pair.5"** %4, metadata !4084, metadata !2533), !dbg !4085
  store %"struct.std::_Rb_tree_node_base"** %1, %"struct.std::_Rb_tree_node_base"*** %5, align 4
  call void @llvm.dbg.declare(metadata %"struct.std::_Rb_tree_node_base"*** %5, metadata !4086, metadata !2533), !dbg !4087
  store %"struct.std::_Rb_tree_node_base"** %2, %"struct.std::_Rb_tree_node_base"*** %6, align 4
  call void @llvm.dbg.declare(metadata %"struct.std::_Rb_tree_node_base"*** %6, metadata !4088, metadata !2533), !dbg !4089
  %7 = load %"struct.std::pair.5"*, %"struct.std::pair.5"** %4, align 4
  %8 = getelementptr inbounds %"struct.std::pair.5", %"struct.std::pair.5"* %7, i32 0, i32 0, !dbg !4090
  %9 = load %"struct.std::_Rb_tree_node_base"**, %"struct.std::_Rb_tree_node_base"*** %5, align 4, !dbg !4091
  %10 = call dereferenceable(4) %"struct.std::_Rb_tree_node_base"** @_ZSt7forwardIRPSt18_Rb_tree_node_baseEOT_RNSt16remove_referenceIS3_E4typeE(%"struct.std::_Rb_tree_node_base"** dereferenceable(4) %9) #15, !dbg !4092
  %11 = load %"struct.std::_Rb_tree_node_base"*, %"struct.std::_Rb_tree_node_base"** %10, align 4, !dbg !4092
  store %"struct.std::_Rb_tree_node_base"* %11, %"struct.std::_Rb_tree_node_base"** %8, align 4, !dbg !4090
  %12 = getelementptr inbounds %"struct.std::pair.5", %"struct.std::pair.5"* %7, i32 0, i32 1, !dbg !4093
  %13 = load %"struct.std::_Rb_tree_node_base"**, %"struct.std::_Rb_tree_node_base"*** %6, align 4, !dbg !4094
  %14 = load %"struct.std::_Rb_tree_node_base"*, %"struct.std::_Rb_tree_node_base"** %13, align 4, !dbg !4094
  store %"struct.std::_Rb_tree_node_base"* %14, %"struct.std::_Rb_tree_node_base"** %12, align 4, !dbg !4093
  ret %"struct.std::pair.5"* %7, !dbg !4095
}

; Function Attrs: nounwind
define linkonce_odr dereferenceable(16) %"struct.std::pair.3"* @_ZNSt8_Rb_treeIlSt4pairIKlSt6vectorIS0_IdlESaIS3_EEESt10_Select1stIS6_ESt4lessIlESaIS6_EE8_S_valueEPKSt18_Rb_tree_node_base(%"struct.std::_Rb_tree_node_base"*) #0 comdat align 2 !dbg !4096 !xidane.fname !3153 !xidane.function_declaration_type !4097 !xidane.function_declaration_filename !2747 {
  %2 = alloca %"struct.std::_Rb_tree_node_base"*, align 4
  store %"struct.std::_Rb_tree_node_base"* %0, %"struct.std::_Rb_tree_node_base"** %2, align 4
  call void @llvm.dbg.declare(metadata %"struct.std::_Rb_tree_node_base"** %2, metadata !4098, metadata !2533), !dbg !4099
  %3 = load %"struct.std::_Rb_tree_node_base"*, %"struct.std::_Rb_tree_node_base"** %2, align 4, !dbg !4100
  %4 = bitcast %"struct.std::_Rb_tree_node_base"* %3 to %"struct.std::_Rb_tree_node"*, !dbg !4101
  %5 = call %"struct.std::pair.3"* @_ZNKSt13_Rb_tree_nodeISt4pairIKlSt6vectorIS0_IdlESaIS3_EEEE9_M_valptrEv(%"struct.std::_Rb_tree_node"* %4), !dbg !4102
  ret %"struct.std::pair.3"* %5, !dbg !4103
}

; Function Attrs: nounwind
define linkonce_odr dereferenceable(4) %"struct.std::_Rb_tree_node_base"** @_ZSt7forwardIRPSt18_Rb_tree_node_baseEOT_RNSt16remove_referenceIS3_E4typeE(%"struct.std::_Rb_tree_node_base"** dereferenceable(4)) #0 comdat !dbg !4104 !xidane.fname !3257 !xidane.function_declaration_type !4112 !xidane.function_declaration_filename !3259 {
  %2 = alloca %"struct.std::_Rb_tree_node_base"**, align 4
  store %"struct.std::_Rb_tree_node_base"** %0, %"struct.std::_Rb_tree_node_base"*** %2, align 4
  call void @llvm.dbg.declare(metadata %"struct.std::_Rb_tree_node_base"*** %2, metadata !4113, metadata !2533), !dbg !4114
  %3 = load %"struct.std::_Rb_tree_node_base"**, %"struct.std::_Rb_tree_node_base"*** %2, align 4, !dbg !4115
  ret %"struct.std::_Rb_tree_node_base"** %3, !dbg !4116
}

; Function Attrs: nounwind
define linkonce_odr i32 @_ZNSt8_Rb_treeIlSt4pairIKlSt6vectorIS0_IdlESaIS3_EEESt10_Select1stIS6_ESt4lessIlESaIS6_EE5beginEv(%"class.std::_Rb_tree"*) #0 comdat align 2 !dbg !4117 !xidane.fname !4118 !xidane.function_declaration_type !2875 !xidane.function_declaration_filename !2747 {
  %2 = alloca %"struct.std::_Rb_tree_iterator", align 4
  %3 = alloca %"class.std::_Rb_tree"*, align 4
  store %"class.std::_Rb_tree"* %0, %"class.std::_Rb_tree"** %3, align 4
  call void @llvm.dbg.declare(metadata %"class.std::_Rb_tree"** %3, metadata !4119, metadata !2533), !dbg !4120
  %4 = load %"class.std::_Rb_tree"*, %"class.std::_Rb_tree"** %3, align 4
  %5 = getelementptr inbounds %"class.std::_Rb_tree", %"class.std::_Rb_tree"* %4, i32 0, i32 0, !dbg !4121
  %6 = bitcast %"struct.std::_Rb_tree<long, std::pair<const long, std::vector<std::pair<double, long>, std::allocator<std::pair<double, long> > > >, std::_Select1st<std::pair<const long, std::vector<std::pair<double, long>, std::allocator<std::pair<double, long> > > > >, std::less<long>, std::allocator<std::pair<const long, std::vector<std::pair<double, long>, std::allocator<std::pair<double, long> > > > > >::_Rb_tree_impl"* %5 to i8*, !dbg !4122
  %7 = getelementptr inbounds i8, i8* %6, i32 4, !dbg !4122
  %8 = bitcast i8* %7 to %"struct.std::_Rb_tree_header"*, !dbg !4122
  %9 = getelementptr inbounds %"struct.std::_Rb_tree_header", %"struct.std::_Rb_tree_header"* %8, i32 0, i32 0, !dbg !4123
  %10 = getelementptr inbounds %"struct.std::_Rb_tree_node_base", %"struct.std::_Rb_tree_node_base"* %9, i32 0, i32 2, !dbg !4124
  %11 = load %"struct.std::_Rb_tree_node_base"*, %"struct.std::_Rb_tree_node_base"** %10, align 4, !dbg !4124
  %12 = call %"struct.std::_Rb_tree_iterator"* @_ZNSt17_Rb_tree_iteratorISt4pairIKlSt6vectorIS0_IdlESaIS3_EEEEC2EPSt18_Rb_tree_node_base(%"struct.std::_Rb_tree_iterator"* %2, %"struct.std::_Rb_tree_node_base"* %11) #15, !dbg !4125
  %13 = getelementptr inbounds %"struct.std::_Rb_tree_iterator", %"struct.std::_Rb_tree_iterator"* %2, i32 0, i32 0, !dbg !4126
  %14 = load %"struct.std::_Rb_tree_node_base"*, %"struct.std::_Rb_tree_node_base"** %13, align 4, !dbg !4126
  %15 = ptrtoint %"struct.std::_Rb_tree_node_base"* %14 to i32, !dbg !4126
  ret i32 %15, !dbg !4126
}

; Function Attrs: nounwind
define linkonce_odr %"struct.std::pair.5"* @_ZNSt4pairIPSt18_Rb_tree_node_baseS1_EC2IRPSt13_Rb_tree_nodeIS_IKlSt6vectorIS_IdlESaIS7_EEEERS1_Lb1EEEOT_OT0_(%"struct.std::pair.5"* returned, %"struct.std::_Rb_tree_node"** dereferenceable(4), %"struct.std::_Rb_tree_node_base"** dereferenceable(4)) unnamed_addr #0 comdat align 2 !dbg !4127 !xidane.fname !3704 !xidane.function_declaration_type !4134 !xidane.function_declaration_filename !3706 {
  %4 = alloca %"struct.std::pair.5"*, align 4
  %5 = alloca %"struct.std::_Rb_tree_node"**, align 4
  %6 = alloca %"struct.std::_Rb_tree_node_base"**, align 4
  store %"struct.std::pair.5"* %0, %"struct.std::pair.5"** %4, align 4
  call void @llvm.dbg.declare(metadata %"struct.std::pair.5"** %4, metadata !4135, metadata !2533), !dbg !4136
  store %"struct.std::_Rb_tree_node"** %1, %"struct.std::_Rb_tree_node"*** %5, align 4
  call void @llvm.dbg.declare(metadata %"struct.std::_Rb_tree_node"*** %5, metadata !4137, metadata !2533), !dbg !4138
  store %"struct.std::_Rb_tree_node_base"** %2, %"struct.std::_Rb_tree_node_base"*** %6, align 4
  call void @llvm.dbg.declare(metadata %"struct.std::_Rb_tree_node_base"*** %6, metadata !4139, metadata !2533), !dbg !4140
  %7 = load %"struct.std::pair.5"*, %"struct.std::pair.5"** %4, align 4
  %8 = getelementptr inbounds %"struct.std::pair.5", %"struct.std::pair.5"* %7, i32 0, i32 0, !dbg !4141
  %9 = load %"struct.std::_Rb_tree_node"**, %"struct.std::_Rb_tree_node"*** %5, align 4, !dbg !4142
  %10 = call dereferenceable(4) %"struct.std::_Rb_tree_node"** @_ZSt7forwardIRPSt13_Rb_tree_nodeISt4pairIKlSt6vectorIS1_IdlESaIS4_EEEEEOT_RNSt16remove_referenceISB_E4typeE(%"struct.std::_Rb_tree_node"** dereferenceable(4) %9) #15, !dbg !4143
  %11 = load %"struct.std::_Rb_tree_node"*, %"struct.std::_Rb_tree_node"** %10, align 4, !dbg !4143
  %12 = bitcast %"struct.std::_Rb_tree_node"* %11 to %"struct.std::_Rb_tree_node_base"*, !dbg !4143
  store %"struct.std::_Rb_tree_node_base"* %12, %"struct.std::_Rb_tree_node_base"** %8, align 4, !dbg !4141
  %13 = getelementptr inbounds %"struct.std::pair.5", %"struct.std::pair.5"* %7, i32 0, i32 1, !dbg !4144
  %14 = load %"struct.std::_Rb_tree_node_base"**, %"struct.std::_Rb_tree_node_base"*** %6, align 4, !dbg !4145
  %15 = call dereferenceable(4) %"struct.std::_Rb_tree_node_base"** @_ZSt7forwardIRPSt18_Rb_tree_node_baseEOT_RNSt16remove_referenceIS3_E4typeE(%"struct.std::_Rb_tree_node_base"** dereferenceable(4) %14) #15, !dbg !4146
  %16 = load %"struct.std::_Rb_tree_node_base"*, %"struct.std::_Rb_tree_node_base"** %15, align 4, !dbg !4148
  store %"struct.std::_Rb_tree_node_base"* %16, %"struct.std::_Rb_tree_node_base"** %13, align 4, !dbg !4144
  ret %"struct.std::pair.5"* %7, !dbg !4149
}

; Function Attrs: nounwind
define linkonce_odr dereferenceable(4) %"struct.std::_Rb_tree_node"** @_ZSt7forwardIRPSt13_Rb_tree_nodeISt4pairIKlSt6vectorIS1_IdlESaIS4_EEEEEOT_RNSt16remove_referenceISB_E4typeE(%"struct.std::_Rb_tree_node"** dereferenceable(4)) #0 comdat !dbg !4150 !xidane.fname !3257 !xidane.function_declaration_type !4158 !xidane.function_declaration_filename !3259 {
  %2 = alloca %"struct.std::_Rb_tree_node"**, align 4
  store %"struct.std::_Rb_tree_node"** %0, %"struct.std::_Rb_tree_node"*** %2, align 4
  call void @llvm.dbg.declare(metadata %"struct.std::_Rb_tree_node"*** %2, metadata !4159, metadata !2533), !dbg !4160
  %3 = load %"struct.std::_Rb_tree_node"**, %"struct.std::_Rb_tree_node"*** %2, align 4, !dbg !4161
  ret %"struct.std::_Rb_tree_node"** %3, !dbg !4162
}

; Function Attrs: nounwind readonly
declare !xidane.fname !4163 !xidane.function_declaration_type !4164 !xidane.function_declaration_filename !2747 %"struct.std::_Rb_tree_node_base"* @_ZSt18_Rb_tree_decrementPSt18_Rb_tree_node_base(%"struct.std::_Rb_tree_node_base"*) #9

; Function Attrs: nounwind readonly
declare !xidane.fname !4165 !xidane.function_declaration_type !4164 !xidane.function_declaration_filename !2747 %"struct.std::_Rb_tree_node_base"* @_ZSt18_Rb_tree_incrementPSt18_Rb_tree_node_base(%"struct.std::_Rb_tree_node_base"*) #9

; Function Attrs: nounwind
declare !xidane.fname !4166 !xidane.function_declaration_type !4167 !xidane.function_declaration_filename !2747 void @_ZSt29_Rb_tree_insert_and_rebalancebPSt18_Rb_tree_node_baseS0_RS_(i1 zeroext, %"struct.std::_Rb_tree_node_base"*, %"struct.std::_Rb_tree_node_base"*, %"struct.std::_Rb_tree_node_base"* dereferenceable(16)) #10

; Function Attrs: nounwind
define linkonce_odr void @_ZNSt8_Rb_treeIlSt4pairIKlSt6vectorIS0_IdlESaIS3_EEESt10_Select1stIS6_ESt4lessIlESaIS6_EE15_M_destroy_nodeEPSt13_Rb_tree_nodeIS6_E(%"class.std::_Rb_tree"*, %"struct.std::_Rb_tree_node"*) #0 comdat align 2 personality i8* bitcast (i32 (...)* @__gxx_personality_v0 to i8*) !dbg !4168 !xidane.fname !4169 !xidane.function_declaration_type !3485 !xidane.function_declaration_filename !2747 {
  %3 = alloca %"class.std::_Rb_tree"*, align 4
  %4 = alloca %"struct.std::_Rb_tree_node"*, align 4
  store %"class.std::_Rb_tree"* %0, %"class.std::_Rb_tree"** %3, align 4
  call void @llvm.dbg.declare(metadata %"class.std::_Rb_tree"** %3, metadata !4170, metadata !2533), !dbg !4171
  store %"struct.std::_Rb_tree_node"* %1, %"struct.std::_Rb_tree_node"** %4, align 4
  call void @llvm.dbg.declare(metadata %"struct.std::_Rb_tree_node"** %4, metadata !4172, metadata !2533), !dbg !4173
  %5 = load %"class.std::_Rb_tree"*, %"class.std::_Rb_tree"** %3, align 4
  %6 = call dereferenceable(1) %"class.std::allocator"* @_ZNSt8_Rb_treeIlSt4pairIKlSt6vectorIS0_IdlESaIS3_EEESt10_Select1stIS6_ESt4lessIlESaIS6_EE21_M_get_Node_allocatorEv(%"class.std::_Rb_tree"* %5) #15, !dbg !4174
  %7 = load %"struct.std::_Rb_tree_node"*, %"struct.std::_Rb_tree_node"** %4, align 4, !dbg !4175
  %8 = invoke %"struct.std::pair.3"* @_ZNSt13_Rb_tree_nodeISt4pairIKlSt6vectorIS0_IdlESaIS3_EEEE9_M_valptrEv(%"struct.std::_Rb_tree_node"* %7)
          to label %9 unwind label %12, !dbg !4176

; <label>:9:                                      ; preds = %2
  invoke void @_ZNSt16allocator_traitsISaISt13_Rb_tree_nodeISt4pairIKlSt6vectorIS1_IdlESaIS4_EEEEEE7destroyIS7_EEvRS9_PT_(%"class.std::allocator"* dereferenceable(1) %6, %"struct.std::pair.3"* %8)
          to label %10 unwind label %12, !dbg !4177

; <label>:10:                                     ; preds = %9
  %11 = load %"struct.std::_Rb_tree_node"*, %"struct.std::_Rb_tree_node"** %4, align 4, !dbg !4179
  ret void, !dbg !4180

; <label>:12:                                     ; preds = %9, %2
  %13 = landingpad { i8*, i32 }
          catch i8* null, !dbg !4181
  %14 = extractvalue { i8*, i32 } %13, 0, !dbg !4181
  call void @__clang_call_terminate(i8* %14) #7, !dbg !4181
  unreachable, !dbg !4181
}

define linkonce_odr void @_ZNSt16allocator_traitsISaISt13_Rb_tree_nodeISt4pairIKlSt6vectorIS1_IdlESaIS4_EEEEEE7destroyIS7_EEvRS9_PT_(%"class.std::allocator"* dereferenceable(1), %"struct.std::pair.3"*) #1 comdat align 2 !dbg !4183 !xidane.fname !4188 !xidane.function_declaration_type !4189 !xidane.function_declaration_filename !3576 {
  %3 = alloca %"class.std::allocator"*, align 4
  %4 = alloca %"struct.std::pair.3"*, align 4
  store %"class.std::allocator"* %0, %"class.std::allocator"** %3, align 4
  call void @llvm.dbg.declare(metadata %"class.std::allocator"** %3, metadata !4190, metadata !2533), !dbg !4191
  store %"struct.std::pair.3"* %1, %"struct.std::pair.3"** %4, align 4
  call void @llvm.dbg.declare(metadata %"struct.std::pair.3"** %4, metadata !4192, metadata !2533), !dbg !4193
  %5 = load %"class.std::allocator"*, %"class.std::allocator"** %3, align 4, !dbg !4194
  %6 = bitcast %"class.std::allocator"* %5 to %"class.__gnu_cxx::new_allocator"*, !dbg !4194
  %7 = load %"struct.std::pair.3"*, %"struct.std::pair.3"** %4, align 4, !dbg !4195
  call void @_ZN9__gnu_cxx13new_allocatorISt13_Rb_tree_nodeISt4pairIKlSt6vectorIS2_IdlESaIS5_EEEEE7destroyIS8_EEvPT_(%"class.__gnu_cxx::new_allocator"* %6, %"struct.std::pair.3"* %7), !dbg !4196
  ret void, !dbg !4197
}

; Function Attrs: nounwind
define linkonce_odr void @_ZN9__gnu_cxx13new_allocatorISt13_Rb_tree_nodeISt4pairIKlSt6vectorIS2_IdlESaIS5_EEEEE7destroyIS8_EEvPT_(%"class.__gnu_cxx::new_allocator"*, %"struct.std::pair.3"*) #0 comdat align 2 !dbg !4198 !xidane.fname !4202 !xidane.function_declaration_type !4203 !xidane.function_declaration_filename !2828 {
  %3 = alloca %"class.__gnu_cxx::new_allocator"*, align 4
  %4 = alloca %"struct.std::pair.3"*, align 4
  store %"class.__gnu_cxx::new_allocator"* %0, %"class.__gnu_cxx::new_allocator"** %3, align 4
  call void @llvm.dbg.declare(metadata %"class.__gnu_cxx::new_allocator"** %3, metadata !4204, metadata !2533), !dbg !4205
  store %"struct.std::pair.3"* %1, %"struct.std::pair.3"** %4, align 4
  call void @llvm.dbg.declare(metadata %"struct.std::pair.3"** %4, metadata !4206, metadata !2533), !dbg !4207
  %5 = load %"class.__gnu_cxx::new_allocator"*, %"class.__gnu_cxx::new_allocator"** %3, align 4
  %6 = load %"struct.std::pair.3"*, %"struct.std::pair.3"** %4, align 4, !dbg !4208
  %7 = call %"struct.std::pair.3"* @_ZNSt4pairIKlSt6vectorIS_IdlESaIS2_EEED2Ev(%"struct.std::pair.3"* %6) #15, !dbg !4209
  ret void, !dbg !4210
}

; Function Attrs: inlinehint nounwind
define linkonce_odr %"struct.std::pair.3"* @_ZNSt4pairIKlSt6vectorIS_IdlESaIS2_EEED2Ev(%"struct.std::pair.3"* returned) unnamed_addr #11 comdat align 2 !dbg !4211 !xidane.fname !4215 !xidane.function_declaration_type !2531 !xidane.function_declaration_filename !3706 {
  %2 = alloca %"struct.std::pair.3"*, align 4
  store %"struct.std::pair.3"* %0, %"struct.std::pair.3"** %2, align 4
  call void @llvm.dbg.declare(metadata %"struct.std::pair.3"** %2, metadata !4216, metadata !2533), !dbg !4217
  %3 = load %"struct.std::pair.3"*, %"struct.std::pair.3"** %2, align 4
  %4 = getelementptr inbounds %"struct.std::pair.3", %"struct.std::pair.3"* %3, i32 0, i32 1, !dbg !4218
  %5 = call %"class.std::vector"* @_ZNSt6vectorISt4pairIdlESaIS1_EED2Ev(%"class.std::vector"* %4) #15, !dbg !4218
  ret %"struct.std::pair.3"* %3, !dbg !4220
}

; Function Attrs: nounwind
define linkonce_odr %"class.std::vector"* @_ZNSt6vectorISt4pairIdlESaIS1_EED2Ev(%"class.std::vector"* returned) unnamed_addr #0 comdat align 2 personality i8* bitcast (i32 (...)* @__gxx_personality_v0 to i8*) !dbg !4221 !xidane.fname !4222 !xidane.function_declaration_type !2531 !xidane.function_declaration_filename !2602 {
  %2 = alloca %"class.std::vector"*, align 4
  %3 = alloca i8*
  %4 = alloca i32
  store %"class.std::vector"* %0, %"class.std::vector"** %2, align 4
  call void @llvm.dbg.declare(metadata %"class.std::vector"** %2, metadata !4223, metadata !2533), !dbg !4224
  %5 = load %"class.std::vector"*, %"class.std::vector"** %2, align 4
  %6 = bitcast %"class.std::vector"* %5 to %"struct.std::_Vector_base"*, !dbg !4225
  %7 = getelementptr inbounds %"struct.std::_Vector_base", %"struct.std::_Vector_base"* %6, i32 0, i32 0, !dbg !4225
  %8 = getelementptr inbounds %"struct.std::_Vector_base<std::pair<double, long>, std::allocator<std::pair<double, long> > >::_Vector_impl", %"struct.std::_Vector_base<std::pair<double, long>, std::allocator<std::pair<double, long> > >::_Vector_impl"* %7, i32 0, i32 0, !dbg !4227
  %9 = load %"struct.std::pair"*, %"struct.std::pair"** %8, align 4, !dbg !4227
  %10 = bitcast %"class.std::vector"* %5 to %"struct.std::_Vector_base"*, !dbg !4228
  %11 = getelementptr inbounds %"struct.std::_Vector_base", %"struct.std::_Vector_base"* %10, i32 0, i32 0, !dbg !4228
  %12 = getelementptr inbounds %"struct.std::_Vector_base<std::pair<double, long>, std::allocator<std::pair<double, long> > >::_Vector_impl", %"struct.std::_Vector_base<std::pair<double, long>, std::allocator<std::pair<double, long> > >::_Vector_impl"* %11, i32 0, i32 1, !dbg !4229
  %13 = load %"struct.std::pair"*, %"struct.std::pair"** %12, align 4, !dbg !4229
  %14 = bitcast %"class.std::vector"* %5 to %"struct.std::_Vector_base"*, !dbg !4230
  %15 = call dereferenceable(1) %"class.std::allocator.0"* @_ZNSt12_Vector_baseISt4pairIdlESaIS1_EE19_M_get_Tp_allocatorEv(%"struct.std::_Vector_base"* %14) #15, !dbg !4230
  invoke void @_ZSt8_DestroyIPSt4pairIdlES1_EvT_S3_RSaIT0_E(%"struct.std::pair"* %9, %"struct.std::pair"* %13, %"class.std::allocator.0"* dereferenceable(1) %15)
          to label %16 unwind label %19, !dbg !4231

; <label>:16:                                     ; preds = %1
  %17 = bitcast %"class.std::vector"* %5 to %"struct.std::_Vector_base"*, !dbg !4232
  %18 = call %"struct.std::_Vector_base"* @_ZNSt12_Vector_baseISt4pairIdlESaIS1_EED2Ev(%"struct.std::_Vector_base"* %17) #15, !dbg !4232
  ret %"class.std::vector"* %5, !dbg !4232

; <label>:19:                                     ; preds = %1
  %20 = landingpad { i8*, i32 }
          catch i8* null, !dbg !4234
  %21 = extractvalue { i8*, i32 } %20, 0, !dbg !4234
  store i8* %21, i8** %3, align 4, !dbg !4234
  %22 = extractvalue { i8*, i32 } %20, 1, !dbg !4234
  store i32 %22, i32* %4, align 4, !dbg !4234
  %23 = bitcast %"class.std::vector"* %5 to %"struct.std::_Vector_base"*, !dbg !4234
  %24 = call %"struct.std::_Vector_base"* @_ZNSt12_Vector_baseISt4pairIdlESaIS1_EED2Ev(%"struct.std::_Vector_base"* %23) #15, !dbg !4234
  br label %25, !dbg !4234

; <label>:25:                                     ; preds = %19
  %26 = load i8*, i8** %3, align 4, !dbg !4236
  call void @__clang_call_terminate(i8* %26) #7, !dbg !4236
  unreachable, !dbg !4236
}

; Function Attrs: inlinehint
define linkonce_odr void @_ZSt8_DestroyIPSt4pairIdlES1_EvT_S3_RSaIT0_E(%"struct.std::pair"*, %"struct.std::pair"*, %"class.std::allocator.0"* dereferenceable(1)) #12 comdat !dbg !4238 !xidane.fname !4244 !xidane.function_declaration_type !4245 !xidane.function_declaration_filename !4246 {
  %4 = alloca %"struct.std::pair"*, align 4
  %5 = alloca %"struct.std::pair"*, align 4
  %6 = alloca %"class.std::allocator.0"*, align 4
  store %"struct.std::pair"* %0, %"struct.std::pair"** %4, align 4
  call void @llvm.dbg.declare(metadata %"struct.std::pair"** %4, metadata !4247, metadata !2533), !dbg !4248
  store %"struct.std::pair"* %1, %"struct.std::pair"** %5, align 4
  call void @llvm.dbg.declare(metadata %"struct.std::pair"** %5, metadata !4249, metadata !2533), !dbg !4250
  store %"class.std::allocator.0"* %2, %"class.std::allocator.0"** %6, align 4
  call void @llvm.dbg.declare(metadata %"class.std::allocator.0"** %6, metadata !4251, metadata !2533), !dbg !4252
  %7 = load %"struct.std::pair"*, %"struct.std::pair"** %4, align 4, !dbg !4253
  %8 = load %"struct.std::pair"*, %"struct.std::pair"** %5, align 4, !dbg !4254
  call void @_ZSt8_DestroyIPSt4pairIdlEEvT_S3_(%"struct.std::pair"* %7, %"struct.std::pair"* %8), !dbg !4255
  ret void, !dbg !4256
}

; Function Attrs: nounwind
