; ModuleID = '/home/bqpd/workspace_sdsoc/MiniZedMM/src/main.cpp'
source_filename = "/home/bqpd/workspace_sdsoc/MiniZedMM/src/main.cpp"
target datalayout = "e-m:e-p:32:32-i64:64-v128:64:128-a:0:32-n32-S64"
target triple = "armv7-none--eabi"

%"class.std::ios_base::Init" = type { i8 }
%"class.std::basic_ostream" = type { i32 (...)**, %"class.std::basic_ios" }
%"class.std::basic_ios" = type { %"class.std::ios_base", %"class.std::basic_ostream"*, i8, i8, %"class.std::basic_streambuf"*, %"class.std::ctype"*, %"class.std::num_put"*, %"class.std::num_get"* }
%"class.std::ios_base" = type { i32 (...)**, i32, i32, i32, i32, i32, %"struct.std::ios_base::_Callback_list"*, %"struct.std::ios_base::_Words", [8 x %"struct.std::ios_base::_Words"], i32, %"struct.std::ios_base::_Words"*, %"class.std::locale" }
%"struct.std::ios_base::_Callback_list" = type { %"struct.std::ios_base::_Callback_list"*, void (i32, %"class.std::ios_base"*, i32)*, i32, i32 }
%"struct.std::ios_base::_Words" = type { i8*, i32 }
%"class.std::locale" = type { %"class.std::locale::_Impl"* }
%"class.std::locale::_Impl" = type { i32, %"class.std::locale::facet"**, i32, %"class.std::locale::facet"**, i8** }
%"class.std::locale::facet" = type { i32 (...)**, i32 }
%"class.std::basic_streambuf" = type { i32 (...)**, i8*, i8*, i8*, i8*, i8*, i8*, %"class.std::locale" }
%"class.std::ctype" = type <{ %"class.std::locale::facet", i32*, i8, [3 x i8], i32*, i32*, i8*, i8, [256 x i8], [256 x i8], i8, [2 x i8] }>
%"class.std::num_put" = type { %"class.std::locale::facet" }
%"class.std::num_get" = type { %"class.std::locale::facet" }
%class.Node = type <{ double, i32, [4 x i8] }>

@_ZStL8__ioinit = internal global %"class.std::ios_base::Init" zeroinitializer, align 1
@__dso_handle = external global i8
@_ZSt4cout = external global %"class.std::basic_ostream", align 4
@.str = private unnamed_addr constant [22 x i8] c"f(x,y) = x*y + sin(x)\00", align 1
@.str.1 = private unnamed_addr constant [3 x i8] c"f(\00", align 1
@.str.2 = private unnamed_addr constant [2 x i8] c",\00", align 1
@.str.3 = private unnamed_addr constant [5 x i8] c") = \00", align 1
@.str.4 = private unnamed_addr constant [13 x i8] c"\E2\88\82f/\E2\88\82x = \00", align 1
@.str.5 = private unnamed_addr constant [13 x i8] c"\E2\88\82f/\E2\88\82y = \00", align 1
@llvm.global_ctors = appending global [1 x { i32, void ()*, i8* }] [{ i32, void ()*, i8* } { i32 65535, void ()* @_GLOBAL__sub_I_main.cpp, i8* null }]

define internal void @__cxx_global_var_init() #0 !dbg !1265 {
  %1 = call %"class.std::ios_base::Init"* @_ZNSt8ios_base4InitC1Ev(%"class.std::ios_base::Init"* @_ZStL8__ioinit), !dbg !1266
  %2 = call i32 @__cxa_atexit(void (i8*)* bitcast (%"class.std::ios_base::Init"* (%"class.std::ios_base::Init"*)* @_ZNSt8ios_base4InitD1Ev to void (i8*)*), i8* getelementptr inbounds (%"class.std::ios_base::Init", %"class.std::ios_base::Init"* @_ZStL8__ioinit, i32 0, i32 0), i8* @__dso_handle) #3, !dbg !1267
  ret void, !dbg !1266
}

declare !xidane.fname !1269 !xidane.function_declaration_type !1270 !xidane.function_declaration_filename !1271 %"class.std::ios_base::Init"* @_ZNSt8ios_base4InitC1Ev(%"class.std::ios_base::Init"* returned) unnamed_addr #1

; Function Attrs: nounwind
declare !xidane.fname !1272 !xidane.function_declaration_type !1270 !xidane.function_declaration_filename !1271 %"class.std::ios_base::Init"* @_ZNSt8ios_base4InitD1Ev(%"class.std::ios_base::Init"* returned) unnamed_addr #2

; Function Attrs: nounwind
declare i32 @__cxa_atexit(void (i8*)*, i8*, i8*) #3

; Function Attrs: norecurse
define i32 @main(i32, i8**) #4 !dbg !1273 !xidane.fname !1277 !xidane.function_declaration_type !1278 !xidane.function_declaration_filename !1279 {
  %3 = alloca i32, align 4
  %4 = alloca i32, align 4
  %5 = alloca i8**, align 4
  %6 = alloca %class.Node, align 8
  %7 = alloca double, align 8
  %8 = alloca %class.Node, align 8
  %9 = alloca double, align 8
  %10 = alloca %class.Node, align 8
  %11 = alloca %class.Node, align 8
  %12 = alloca %class.Node, align 8
  store i32 0, i32* %3, align 4
  store i32 %0, i32* %4, align 4
  call void @llvm.dbg.declare(metadata i32* %4, metadata !1280, metadata !1281), !dbg !1282
  store i8** %1, i8*** %5, align 4
  call void @llvm.dbg.declare(metadata i8*** %5, metadata !1283, metadata !1281), !dbg !1284
  call void @llvm.dbg.declare(metadata %class.Node* %6, metadata !1285, metadata !1281), !dbg !1893
  store double 2.000000e+00, double* %7, align 8, !dbg !1894
  %13 = call %class.Node* @_ZN4NodeC1ERKd(%class.Node* %6, double* dereferenceable(8) %7), !dbg !1894
  call void @llvm.dbg.declare(metadata %class.Node* %8, metadata !1895, metadata !1281), !dbg !1896
  store double 3.000000e+00, double* %9, align 8, !dbg !1897
  %14 = call %class.Node* @_ZN4NodeC1ERKd(%class.Node* %8, double* dereferenceable(8) %9), !dbg !1898
  call void @llvm.dbg.declare(metadata %class.Node* %10, metadata !1900, metadata !1281), !dbg !1901
  call void @_ZmlRK4NodeS1_(%class.Node* sret %11, %class.Node* dereferenceable(16) %6, %class.Node* dereferenceable(16) %8), !dbg !1902
  call void @_Z3sinRK4Node(%class.Node* sret %12, %class.Node* dereferenceable(16) %6), !dbg !1903
  call void @_ZplRK4NodeS1_(%class.Node* sret %10, %class.Node* dereferenceable(16) %11, %class.Node* dereferenceable(16) %12), !dbg !1904
  %15 = call dereferenceable(140) %"class.std::basic_ostream"* @_ZStlsISt11char_traitsIcEERSt13basic_ostreamIcT_ES5_PKc(%"class.std::basic_ostream"* dereferenceable(140) @_ZSt4cout, i8* getelementptr inbounds ([22 x i8], [22 x i8]* @.str, i32 0, i32 0)), !dbg !1906
  %16 = call dereferenceable(140) %"class.std::basic_ostream"* @_ZNSolsEPFRSoS_E(%"class.std::basic_ostream"* %15, %"class.std::basic_ostream"* (%"class.std::basic_ostream"*)* @_ZSt4endlIcSt11char_traitsIcEERSt13basic_ostreamIT_T0_ES6_), !dbg !1907
  %17 = call dereferenceable(140) %"class.std::basic_ostream"* @_ZStlsISt11char_traitsIcEERSt13basic_ostreamIcT_ES5_PKc(%"class.std::basic_ostream"* dereferenceable(140) @_ZSt4cout, i8* getelementptr inbounds ([3 x i8], [3 x i8]* @.str.1, i32 0, i32 0)), !dbg !1908
  %18 = call dereferenceable(140) %"class.std::basic_ostream"* @_ZlsRSoRK4Node(%"class.std::basic_ostream"* dereferenceable(140) %17, %class.Node* dereferenceable(16) %6), !dbg !1909
  %19 = call dereferenceable(140) %"class.std::basic_ostream"* @_ZStlsISt11char_traitsIcEERSt13basic_ostreamIcT_ES5_PKc(%"class.std::basic_ostream"* dereferenceable(140) %18, i8* getelementptr inbounds ([2 x i8], [2 x i8]* @.str.2, i32 0, i32 0)), !dbg !1910
  %20 = call dereferenceable(140) %"class.std::basic_ostream"* @_ZlsRSoRK4Node(%"class.std::basic_ostream"* dereferenceable(140) %19, %class.Node* dereferenceable(16) %8), !dbg !1911
  %21 = call dereferenceable(140) %"class.std::basic_ostream"* @_ZStlsISt11char_traitsIcEERSt13basic_ostreamIcT_ES5_PKc(%"class.std::basic_ostream"* dereferenceable(140) %20, i8* getelementptr inbounds ([5 x i8], [5 x i8]* @.str.3, i32 0, i32 0)), !dbg !1913
  %22 = call dereferenceable(140) %"class.std::basic_ostream"* @_ZlsRSoRK4Node(%"class.std::basic_ostream"* dereferenceable(140) %21, %class.Node* dereferenceable(16) %10), !dbg !1915
  %23 = call dereferenceable(140) %"class.std::basic_ostream"* @_ZNSolsEPFRSoS_E(%"class.std::basic_ostream"* %22, %"class.std::basic_ostream"* (%"class.std::basic_ostream"*)* @_ZSt4endlIcSt11char_traitsIcEERSt13basic_ostreamIT_T0_ES6_), !dbg !1917
  %24 = call dereferenceable(140) %"class.std::basic_ostream"* @_ZStlsISt11char_traitsIcEERSt13basic_ostreamIcT_ES5_PKc(%"class.std::basic_ostream"* dereferenceable(140) @_ZSt4cout, i8* getelementptr inbounds ([13 x i8], [13 x i8]* @.str.4, i32 0, i32 0)), !dbg !1919
  %25 = call double @_ZNK4Node8gradientERKS_(%class.Node* %10, %class.Node* dereferenceable(16) %6), !dbg !1920
  %26 = call dereferenceable(140) %"class.std::basic_ostream"* @_ZNSolsEd(%"class.std::basic_ostream"* %24, double %25), !dbg !1921
  %27 = call dereferenceable(140) %"class.std::basic_ostream"* @_ZNSolsEPFRSoS_E(%"class.std::basic_ostream"* %26, %"class.std::basic_ostream"* (%"class.std::basic_ostream"*)* @_ZSt4endlIcSt11char_traitsIcEERSt13basic_ostreamIT_T0_ES6_), !dbg !1922
  %28 = call dereferenceable(140) %"class.std::basic_ostream"* @_ZStlsISt11char_traitsIcEERSt13basic_ostreamIcT_ES5_PKc(%"class.std::basic_ostream"* dereferenceable(140) @_ZSt4cout, i8* getelementptr inbounds ([13 x i8], [13 x i8]* @.str.5, i32 0, i32 0)), !dbg !1923
  %29 = call double @_ZNK4Node8gradientERKS_(%class.Node* %10, %class.Node* dereferenceable(16) %8), !dbg !1924
  %30 = call dereferenceable(140) %"class.std::basic_ostream"* @_ZNSolsEd(%"class.std::basic_ostream"* %28, double %29), !dbg !1925
  %31 = call dereferenceable(140) %"class.std::basic_ostream"* @_ZNSolsEPFRSoS_E(%"class.std::basic_ostream"* %30, %"class.std::basic_ostream"* (%"class.std::basic_ostream"*)* @_ZSt4endlIcSt11char_traitsIcEERSt13basic_ostreamIT_T0_ES6_), !dbg !1926
  ret i32 0, !dbg !1927
}

; Function Attrs: nounwind readnone
declare void @llvm.dbg.declare(metadata, metadata, metadata) #5

declare !xidane.fname !1928 !xidane.function_declaration_type !1929 !xidane.function_declaration_filename !1930 %class.Node* @_ZN4NodeC1ERKd(%class.Node* returned, double* dereferenceable(8)) unnamed_addr #1

declare !xidane.fname !1931 !xidane.function_declaration_type !1932 !xidane.function_declaration_filename !1930 void @_ZplRK4NodeS1_(%class.Node* sret, %class.Node* dereferenceable(16), %class.Node* dereferenceable(16)) #1

declare !xidane.fname !1933 !xidane.function_declaration_type !1932 !xidane.function_declaration_filename !1930 void @_ZmlRK4NodeS1_(%class.Node* sret, %class.Node* dereferenceable(16), %class.Node* dereferenceable(16)) #1

declare !xidane.fname !1934 !xidane.function_declaration_type !1935 !xidane.function_declaration_filename !1930 void @_Z3sinRK4Node(%class.Node* sret, %class.Node* dereferenceable(16)) #1

declare !xidane.fname !1936 !xidane.function_declaration_type !1937 !xidane.function_declaration_filename !1938 dereferenceable(140) %"class.std::basic_ostream"* @_ZStlsISt11char_traitsIcEERSt13basic_ostreamIcT_ES5_PKc(%"class.std::basic_ostream"* dereferenceable(140), i8*) #1

declare !xidane.fname !1939 !xidane.function_declaration_type !1940 !xidane.function_declaration_filename !1938 dereferenceable(140) %"class.std::basic_ostream"* @_ZNSolsEPFRSoS_E(%"class.std::basic_ostream"*, %"class.std::basic_ostream"* (%"class.std::basic_ostream"*)*) #1

declare !xidane.fname !1941 !xidane.function_declaration_type !1942 !xidane.function_declaration_filename !1938 dereferenceable(140) %"class.std::basic_ostream"* @_ZSt4endlIcSt11char_traitsIcEERSt13basic_ostreamIT_T0_ES6_(%"class.std::basic_ostream"* dereferenceable(140)) #1

declare !xidane.fname !1939 !xidane.function_declaration_type !1943 !xidane.function_declaration_filename !1930 dereferenceable(140) %"class.std::basic_ostream"* @_ZlsRSoRK4Node(%"class.std::basic_ostream"* dereferenceable(140), %class.Node* dereferenceable(16)) #1

declare !xidane.fname !1939 !xidane.function_declaration_type !1944 !xidane.function_declaration_filename !1938 dereferenceable(140) %"class.std::basic_ostream"* @_ZNSolsEd(%"class.std::basic_ostream"*, double) #1

declare !xidane.fname !1945 !xidane.function_declaration_type !1946 !xidane.function_declaration_filename !1930 double @_ZNK4Node8gradientERKS_(%class.Node*, %class.Node* dereferenceable(16)) #1

define internal void @_GLOBAL__sub_I_main.cpp() #0 !dbg !1947 {
  call void @__cxx_global_var_init(), !dbg !1949
  ret void
}

attributes #0 = { "disable-tail-calls"="false" "less-precise-fpmad"="false" "no-frame-pointer-elim"="true" "no-frame-pointer-elim-non-leaf" "no-infs-fp-math"="false" "no-jump-tables"="false" "no-nans-fp-math"="false" "no-signed-zeros-fp-math"="false" "stack-protector-buffer-size"="8" "target-cpu"="cortex-a9" "target-features"="+dsp,+strict-align,+vfp3,-crypto,-d16,-fp-armv8,-fp-only-sp,-fp16,-neon,-vfp4" "unsafe-fp-math"="false" "use-soft-float"="false" }
attributes #1 = { "disable-tail-calls"="false" "less-precise-fpmad"="false" "no-frame-pointer-elim"="true" "no-frame-pointer-elim-non-leaf" "no-infs-fp-math"="false" "no-nans-fp-math"="false" "no-signed-zeros-fp-math"="false" "stack-protector-buffer-size"="8" "target-cpu"="cortex-a9" "target-features"="+dsp,+strict-align,+vfp3,-crypto,-d16,-fp-armv8,-fp-only-sp,-fp16,-neon,-vfp4" "unsafe-fp-math"="false" "use-soft-float"="false" }
attributes #2 = { nounwind "disable-tail-calls"="false" "less-precise-fpmad"="false" "no-frame-pointer-elim"="true" "no-frame-pointer-elim-non-leaf" "no-infs-fp-math"="false" "no-nans-fp-math"="false" "no-signed-zeros-fp-math"="false" "stack-protector-buffer-size"="8" "target-cpu"="cortex-a9" "target-features"="+dsp,+strict-align,+vfp3,-crypto,-d16,-fp-armv8,-fp-only-sp,-fp16,-neon,-vfp4" "unsafe-fp-math"="false" "use-soft-float"="false" }
attributes #3 = { nounwind }
attributes #4 = { norecurse "disable-tail-calls"="false" "less-precise-fpmad"="false" "no-frame-pointer-elim"="true" "no-frame-pointer-elim-non-leaf" "no-infs-fp-math"="false" "no-jump-tables"="false" "no-nans-fp-math"="false" "no-signed-zeros-fp-math"="false" "stack-protector-buffer-size"="8" "target-cpu"="cortex-a9" "target-features"="+dsp,+strict-align,+vfp3,-crypto,-d16,-fp-armv8,-fp-only-sp,-fp16,-neon,-vfp4" "unsafe-fp-math"="false" "use-soft-float"="false" }
attributes #5 = { nounwind readnone }

!llvm.dbg.cu = !{!0}
!llvm.module.flags = !{!1260, !1261, !1262, !1263}
!llvm.ident = !{!1264}

!0 = distinct !DICompileUnit(language: DW_LANG_C_plus_plus, file: !1, producer: "clang version 3.9.0 (tags/RELEASE_390/final)", isOptimized: false, runtimeVersion: 0, emissionKind: FullDebug, enums: !2, globals: !3, imports: !23)
!1 = !DIFile(filename: "../src/main.cpp", directory: "/home/bqpd/workspace_sdsoc/MiniZedMM/Debug")
!2 = !{}
!3 = !{!4}
!4 = distinct !DIGlobalVariable(name: "__ioinit", linkageName: "_ZStL8__ioinit", scope: !5, file: !7, line: 74, type: !8, isLocal: true, isDefinition: true, variable: %"class.std::ios_base::Init"* @_ZStL8__ioinit)
!5 = !DINamespace(name: "std", scope: null, file: !6, line: 229)
!6 = !DIFile(filename: "/tools/Xilinx/SDK/2018.3/gnu/aarch32/lin/gcc-arm-none-eabi/arm-none-eabi/include/c++/7.3.1/arm-none-eabi/bits/c++config.h", directory: "/home/bqpd/workspace_sdsoc/MiniZedMM/Debug")
!7 = !DIFile(filename: "/tools/Xilinx/SDK/2018.3/gnu/aarch32/lin/gcc-arm-none-eabi/arm-none-eabi/include/c++/7.3.1/iostream", directory: "/home/bqpd/workspace_sdsoc/MiniZedMM/Debug")
!8 = distinct !DICompositeType(tag: DW_TAG_class_type, name: "Init", scope: !10, file: !9, line: 601, size: 8, align: 8, elements: !11, identifier: "_ZTSNSt8ios_base4InitE")
!9 = !DIFile(filename: "/tools/Xilinx/SDK/2018.3/gnu/aarch32/lin/gcc-arm-none-eabi/arm-none-eabi/include/c++/7.3.1/bits/ios_base.h", directory: "/home/bqpd/workspace_sdsoc/MiniZedMM/Debug")
!10 = !DICompositeType(tag: DW_TAG_class_type, name: "ios_base", scope: !5, file: !9, line: 228, size: 896, align: 32, flags: DIFlagFwdDecl, identifier: "_ZTSSt8ios_base")
!11 = !{!12, !16, !18, !22}
!12 = !DIDerivedType(tag: DW_TAG_member, name: "_S_refcount", scope: !8, file: !9, line: 609, baseType: !13, flags: DIFlagStaticMember)
!13 = !DIDerivedType(tag: DW_TAG_typedef, name: "_Atomic_word", file: !14, line: 32, baseType: !15)
!14 = !DIFile(filename: "/tools/Xilinx/SDK/2018.3/gnu/aarch32/lin/gcc-arm-none-eabi/arm-none-eabi/include/c++/7.3.1/arm-none-eabi/bits/atomic_word.h", directory: "/home/bqpd/workspace_sdsoc/MiniZedMM/Debug")
!15 = !DIBasicType(name: "int", size: 32, align: 32, encoding: DW_ATE_signed)
!16 = !DIDerivedType(tag: DW_TAG_member, name: "_S_synced_with_stdio", scope: !8, file: !9, line: 610, baseType: !17, flags: DIFlagStaticMember)
!17 = !DIBasicType(name: "bool", size: 8, align: 8, encoding: DW_ATE_boolean)
!18 = !DISubprogram(name: "Init", scope: !8, file: !9, line: 605, type: !19, isLocal: false, isDefinition: false, scopeLine: 605, flags: DIFlagPublic | DIFlagPrototyped, isOptimized: false)
!19 = !DISubroutineType(types: !20)
!20 = !{null, !21}
!21 = !DIDerivedType(tag: DW_TAG_pointer_type, baseType: !8, size: 32, align: 32, flags: DIFlagArtificial | DIFlagObjectPointer)
!22 = !DISubprogram(name: "~Init", scope: !8, file: !9, line: 606, type: !19, isLocal: false, isDefinition: false, scopeLine: 606, flags: DIFlagPublic | DIFlagPrototyped, isOptimized: false)
!23 = !{!24, !43, !44, !48, !118, !124, !128, !134, !138, !142, !144, !146, !150, !157, !161, !167, !172, !174, !178, !182, !186, !190, !201, !203, !207, !211, !215, !217, !221, !225, !229, !231, !233, !237, !244, !248, !252, !256, !258, !263, !265, !271, !276, !280, !284, !289, !293, !297, !299, !301, !303, !307, !311, !313, !317, !321, !323, !325, !329, !335, !340, !345, !346, !347, !348, !349, !350, !351, !352, !353, !354, !355, !409, !413, !417, !423, !426, !429, !432, !435, !437, !439, !441, !444, !447, !450, !453, !455, !458, !461, !465, !468, !471, !473, !475, !477, !479, !482, !485, !488, !491, !493, !496, !499, !503, !508, !513, !515, !517, !519, !521, !523, !525, !527, !529, !531, !533, !535, !537, !539, !541, !543, !546, !549, !555, !559, !564, !568, !572, !576, !586, !590, !594, !598, !602, !606, !610, !614, !618, !622, !626, !630, !634, !638, !642, !646, !651, !655, !659, !661, !665, !669, !675, !677, !681, !685, !689, !693, !697, !701, !705, !706, !707, !708, !711, !712, !713, !714, !715, !716, !717, !719, !722, !727, !731, !733, !735, !737, !739, !744, !748, !752, !756, !760, !764, !768, !772, !774, !778, !784, !788, !792, !794, !796, !800, !804, !808, !810, !812, !814, !816, !820, !822, !824, !828, !832, !836, !840, !844, !846, !848, !852, !856, !860, !864, !866, !868, !872, !876, !877, !878, !879, !880, !881, !884, !886, !887, !889, !891, !893, !895, !899, !901, !903, !905, !907, !909, !911, !913, !915, !919, !923, !925, !929, !933, !938, !940, !942, !946, !948, !950, !952, !954, !956, !958, !960, !965, !969, !971, !973, !978, !980, !982, !984, !986, !988, !990, !992, !994, !996, !1000, !1004, !1006, !1008, !1010, !1012, !1014, !1016, !1018, !1020, !1022, !1024, !1028, !1032, !1034, !1036, !1038, !1040, !1042, !1044, !1046, !1048, !1050, !1052, !1054, !1056, !1058, !1060, !1062, !1066, !1070, !1074, !1076, !1078, !1080, !1082, !1084, !1086, !1088, !1090, !1092, !1096, !1100, !1104, !1106, !1108, !1110, !1114, !1118, !1122, !1124, !1126, !1128, !1130, !1132, !1134, !1136, !1138, !1140, !1142, !1144, !1146, !1150, !1154, !1158, !1160, !1162, !1164, !1166, !1170, !1174, !1176, !1178, !1180, !1182, !1184, !1186, !1190, !1194, !1196, !1198, !1200, !1202, !1206, !1210, !1214, !1216, !1218, !1220, !1222, !1224, !1226, !1230, !1234, !1238, !1240, !1244, !1248, !1250, !1252, !1254, !1256, !1258}
!24 = !DIImportedEntity(tag: DW_TAG_imported_declaration, scope: !5, entity: !25, line: 64)
!25 = !DIDerivedType(tag: DW_TAG_typedef, name: "mbstate_t", file: !26, line: 63, baseType: !27)
!26 = !DIFile(filename: "/tools/Xilinx/SDK/2018.3/gnu/aarch32/lin/gcc-arm-none-eabi/arm-none-eabi/libc/usr/include/wchar.h", directory: "/home/bqpd/workspace_sdsoc/MiniZedMM/Debug")
!27 = !DIDerivedType(tag: DW_TAG_typedef, name: "_mbstate_t", file: !28, line: 79, baseType: !29)
!28 = !DIFile(filename: "/tools/Xilinx/SDK/2018.3/gnu/aarch32/lin/gcc-arm-none-eabi/arm-none-eabi/libc/usr/include/sys/_types.h", directory: "/home/bqpd/workspace_sdsoc/MiniZedMM/Debug")
!29 = distinct !DICompositeType(tag: DW_TAG_structure_type, file: !28, line: 71, size: 64, align: 32, elements: !30, identifier: "_ZTS10_mbstate_t")
!30 = !{!31, !32}
!31 = !DIDerivedType(tag: DW_TAG_member, name: "__count", scope: !29, file: !28, line: 73, baseType: !15, size: 32, align: 32)
!32 = !DIDerivedType(tag: DW_TAG_member, name: "__value", scope: !29, file: !28, line: 78, baseType: !33, size: 32, align: 32, offset: 32)
!33 = distinct !DICompositeType(tag: DW_TAG_union_type, scope: !29, file: !28, line: 74, size: 32, align: 32, elements: !34, identifier: "_ZTSN10_mbstate_tUt_E")
!34 = !{!35, !38}
!35 = !DIDerivedType(tag: DW_TAG_member, name: "__wch", scope: !33, file: !28, line: 76, baseType: !36, size: 32, align: 32)
!36 = !DIDerivedType(tag: DW_TAG_typedef, name: "wint_t", file: !37, line: 357, baseType: !15)
!37 = !DIFile(filename: "/tools/Xilinx/SDK/2018.3/gnu/aarch32/lin/gcc-arm-none-eabi/lib/gcc/arm-none-eabi/7.3.1/include/stddef.h", directory: "/home/bqpd/workspace_sdsoc/MiniZedMM/Debug")
!38 = !DIDerivedType(tag: DW_TAG_member, name: "__wchb", scope: !33, file: !28, line: 77, baseType: !39, size: 32, align: 8)
!39 = !DICompositeType(tag: DW_TAG_array_type, baseType: !40, size: 32, align: 8, elements: !41)
!40 = !DIBasicType(name: "unsigned char", size: 8, align: 8, encoding: DW_ATE_unsigned_char)
!41 = !{!42}
!42 = !DISubrange(count: 4)
!43 = !DIImportedEntity(tag: DW_TAG_imported_declaration, scope: !5, entity: !36, line: 139)
!44 = !DIImportedEntity(tag: DW_TAG_imported_declaration, scope: !5, entity: !45, line: 141)
!45 = !DISubprogram(name: "btowc", scope: !26, file: !26, line: 66, type: !46, isLocal: false, isDefinition: false, flags: DIFlagPrototyped, isOptimized: false)
!46 = !DISubroutineType(types: !47)
!47 = !{!36, !15}
!48 = !DIImportedEntity(tag: DW_TAG_imported_declaration, scope: !5, entity: !49, line: 142)
!49 = !DISubprogram(name: "fgetwc", scope: !26, file: !26, line: 151, type: !50, isLocal: false, isDefinition: false, flags: DIFlagPrototyped, isOptimized: false)
!50 = !DISubroutineType(types: !51)
!51 = !{!36, !52}
!52 = !DIDerivedType(tag: DW_TAG_pointer_type, baseType: !53, size: 32, align: 32)
!53 = !DIDerivedType(tag: DW_TAG_typedef, name: "__FILE", file: !54, line: 285, baseType: !55)
!54 = !DIFile(filename: "/tools/Xilinx/SDK/2018.3/gnu/aarch32/lin/gcc-arm-none-eabi/arm-none-eabi/libc/usr/include/sys/reent.h", directory: "/home/bqpd/workspace_sdsoc/MiniZedMM/Debug")
!55 = distinct !DICompositeType(tag: DW_TAG_structure_type, name: "__sFILE", file: !54, line: 179, size: 832, align: 32, elements: !56, identifier: "_ZTS7__sFILE")
!56 = !{!57, !59, !60, !61, !63, !64, !69, !70, !72, !80, !86, !92, !96, !97, !98, !99, !103, !107, !108, !109, !111, !112, !116, !117}
!57 = !DIDerivedType(tag: DW_TAG_member, name: "_p", scope: !55, file: !54, line: 180, baseType: !58, size: 32, align: 32)
!58 = !DIDerivedType(tag: DW_TAG_pointer_type, baseType: !40, size: 32, align: 32)
!59 = !DIDerivedType(tag: DW_TAG_member, name: "_r", scope: !55, file: !54, line: 181, baseType: !15, size: 32, align: 32, offset: 32)
!60 = !DIDerivedType(tag: DW_TAG_member, name: "_w", scope: !55, file: !54, line: 182, baseType: !15, size: 32, align: 32, offset: 64)
!61 = !DIDerivedType(tag: DW_TAG_member, name: "_flags", scope: !55, file: !54, line: 183, baseType: !62, size: 16, align: 16, offset: 96)
!62 = !DIBasicType(name: "short", size: 16, align: 16, encoding: DW_ATE_signed)
!63 = !DIDerivedType(tag: DW_TAG_member, name: "_file", scope: !55, file: !54, line: 184, baseType: !62, size: 16, align: 16, offset: 112)
!64 = !DIDerivedType(tag: DW_TAG_member, name: "_bf", scope: !55, file: !54, line: 185, baseType: !65, size: 64, align: 32, offset: 128)
!65 = distinct !DICompositeType(tag: DW_TAG_structure_type, name: "__sbuf", file: !54, line: 115, size: 64, align: 32, elements: !66, identifier: "_ZTS6__sbuf")
!66 = !{!67, !68}
!67 = !DIDerivedType(tag: DW_TAG_member, name: "_base", scope: !65, file: !54, line: 116, baseType: !58, size: 32, align: 32)
!68 = !DIDerivedType(tag: DW_TAG_member, name: "_size", scope: !65, file: !54, line: 117, baseType: !15, size: 32, align: 32, offset: 32)
!69 = !DIDerivedType(tag: DW_TAG_member, name: "_lbfsize", scope: !55, file: !54, line: 186, baseType: !15, size: 32, align: 32, offset: 192)
!70 = !DIDerivedType(tag: DW_TAG_member, name: "_cookie", scope: !55, file: !54, line: 193, baseType: !71, size: 32, align: 32, offset: 224)
!71 = !DIDerivedType(tag: DW_TAG_pointer_type, baseType: null, size: 32, align: 32)
!72 = !DIDerivedType(tag: DW_TAG_member, name: "_read", scope: !55, file: !54, line: 195, baseType: !73, size: 32, align: 32, offset: 256)
!73 = !DIDerivedType(tag: DW_TAG_pointer_type, baseType: !74, size: 32, align: 32)
!74 = !DISubroutineType(types: !75)
!75 = !{!15, !76, !71, !78, !15}
!76 = !DIDerivedType(tag: DW_TAG_pointer_type, baseType: !77, size: 32, align: 32)
!77 = !DICompositeType(tag: DW_TAG_structure_type, name: "_reent", file: !54, line: 568, size: 8512, align: 64, flags: DIFlagFwdDecl, identifier: "_ZTS6_reent")
!78 = !DIDerivedType(tag: DW_TAG_pointer_type, baseType: !79, size: 32, align: 32)
!79 = !DIBasicType(name: "char", size: 8, align: 8, encoding: DW_ATE_unsigned_char)
!80 = !DIDerivedType(tag: DW_TAG_member, name: "_write", scope: !55, file: !54, line: 197, baseType: !81, size: 32, align: 32, offset: 288)
!81 = !DIDerivedType(tag: DW_TAG_pointer_type, baseType: !82, size: 32, align: 32)
!82 = !DISubroutineType(types: !83)
!83 = !{!15, !76, !71, !84, !15}
!84 = !DIDerivedType(tag: DW_TAG_pointer_type, baseType: !85, size: 32, align: 32)
!85 = !DIDerivedType(tag: DW_TAG_const_type, baseType: !79)
!86 = !DIDerivedType(tag: DW_TAG_member, name: "_seek", scope: !55, file: !54, line: 200, baseType: !87, size: 32, align: 32, offset: 320)
!87 = !DIDerivedType(tag: DW_TAG_pointer_type, baseType: !88, size: 32, align: 32)
!88 = !DISubroutineType(types: !89)
!89 = !{!90, !76, !71, !90, !15}
!90 = !DIDerivedType(tag: DW_TAG_typedef, name: "_fpos_t", file: !28, line: 39, baseType: !91)
!91 = !DIBasicType(name: "long int", size: 32, align: 32, encoding: DW_ATE_signed)
!92 = !DIDerivedType(tag: DW_TAG_member, name: "_close", scope: !55, file: !54, line: 201, baseType: !93, size: 32, align: 32, offset: 352)
!93 = !DIDerivedType(tag: DW_TAG_pointer_type, baseType: !94, size: 32, align: 32)
!94 = !DISubroutineType(types: !95)
!95 = !{!15, !76, !71}
!96 = !DIDerivedType(tag: DW_TAG_member, name: "_ub", scope: !55, file: !54, line: 204, baseType: !65, size: 64, align: 32, offset: 384)
!97 = !DIDerivedType(tag: DW_TAG_member, name: "_up", scope: !55, file: !54, line: 205, baseType: !58, size: 32, align: 32, offset: 448)
!98 = !DIDerivedType(tag: DW_TAG_member, name: "_ur", scope: !55, file: !54, line: 206, baseType: !15, size: 32, align: 32, offset: 480)
!99 = !DIDerivedType(tag: DW_TAG_member, name: "_ubuf", scope: !55, file: !54, line: 209, baseType: !100, size: 24, align: 8, offset: 512)
!100 = !DICompositeType(tag: DW_TAG_array_type, baseType: !40, size: 24, align: 8, elements: !101)
!101 = !{!102}
!102 = !DISubrange(count: 3)
!103 = !DIDerivedType(tag: DW_TAG_member, name: "_nbuf", scope: !55, file: !54, line: 210, baseType: !104, size: 8, align: 8, offset: 536)
!104 = !DICompositeType(tag: DW_TAG_array_type, baseType: !40, size: 8, align: 8, elements: !105)
!105 = !{!106}
!106 = !DISubrange(count: 1)
!107 = !DIDerivedType(tag: DW_TAG_member, name: "_lb", scope: !55, file: !54, line: 213, baseType: !65, size: 64, align: 32, offset: 544)
!108 = !DIDerivedType(tag: DW_TAG_member, name: "_blksize", scope: !55, file: !54, line: 216, baseType: !15, size: 32, align: 32, offset: 608)
!109 = !DIDerivedType(tag: DW_TAG_member, name: "_offset", scope: !55, file: !54, line: 217, baseType: !110, size: 32, align: 32, offset: 640)
!110 = !DIDerivedType(tag: DW_TAG_typedef, name: "_off_t", file: !28, line: 16, baseType: !91)
!111 = !DIDerivedType(tag: DW_TAG_member, name: "_data", scope: !55, file: !54, line: 220, baseType: !76, size: 32, align: 32, offset: 672)
!112 = !DIDerivedType(tag: DW_TAG_member, name: "_lock", scope: !55, file: !54, line: 224, baseType: !113, size: 32, align: 32, offset: 704)
!113 = !DIDerivedType(tag: DW_TAG_typedef, name: "_flock_t", file: !28, line: 83, baseType: !114)
!114 = !DIDerivedType(tag: DW_TAG_typedef, name: "_LOCK_RECURSIVE_T", file: !115, line: 7, baseType: !15)
!115 = !DIFile(filename: "/tools/Xilinx/SDK/2018.3/gnu/aarch32/lin/gcc-arm-none-eabi/arm-none-eabi/libc/usr/include/sys/lock.h", directory: "/home/bqpd/workspace_sdsoc/MiniZedMM/Debug")
!116 = !DIDerivedType(tag: DW_TAG_member, name: "_mbstate", scope: !55, file: !54, line: 226, baseType: !27, size: 64, align: 32, offset: 736)
!117 = !DIDerivedType(tag: DW_TAG_member, name: "_flags2", scope: !55, file: !54, line: 227, baseType: !15, size: 32, align: 32, offset: 800)
!118 = !DIImportedEntity(tag: DW_TAG_imported_declaration, scope: !5, entity: !119, line: 143)
!119 = !DISubprogram(name: "fgetws", scope: !26, file: !26, line: 152, type: !120, isLocal: false, isDefinition: false, flags: DIFlagPrototyped, isOptimized: false)
!120 = !DISubroutineType(types: !121)
!121 = !{!122, !122, !15, !52}
!122 = !DIDerivedType(tag: DW_TAG_pointer_type, baseType: !123, size: 32, align: 32)
!123 = !DIBasicType(name: "wchar_t", size: 32, align: 32, encoding: DW_ATE_unsigned)
!124 = !DIImportedEntity(tag: DW_TAG_imported_declaration, scope: !5, entity: !125, line: 144)
!125 = !DISubprogram(name: "fputwc", scope: !26, file: !26, line: 153, type: !126, isLocal: false, isDefinition: false, flags: DIFlagPrototyped, isOptimized: false)
!126 = !DISubroutineType(types: !127)
!127 = !{!36, !123, !52}
!128 = !DIImportedEntity(tag: DW_TAG_imported_declaration, scope: !5, entity: !129, line: 145)
!129 = !DISubprogram(name: "fputws", scope: !26, file: !26, line: 154, type: !130, isLocal: false, isDefinition: false, flags: DIFlagPrototyped, isOptimized: false)
!130 = !DISubroutineType(types: !131)
!131 = !{!15, !132, !52}
!132 = !DIDerivedType(tag: DW_TAG_pointer_type, baseType: !133, size: 32, align: 32)
!133 = !DIDerivedType(tag: DW_TAG_const_type, baseType: !123)
!134 = !DIImportedEntity(tag: DW_TAG_imported_declaration, scope: !5, entity: !135, line: 146)
!135 = !DISubprogram(name: "fwide", scope: !26, file: !26, line: 155, type: !136, isLocal: false, isDefinition: false, flags: DIFlagPrototyped, isOptimized: false)
!136 = !DISubroutineType(types: !137)
!137 = !{!15, !52, !15}
!138 = !DIImportedEntity(tag: DW_TAG_imported_declaration, scope: !5, entity: !139, line: 147)
!139 = !DISubprogram(name: "fwprintf", scope: !26, file: !26, line: 205, type: !140, isLocal: false, isDefinition: false, flags: DIFlagPrototyped, isOptimized: false)
!140 = !DISubroutineType(types: !141)
!141 = !{!15, !52, !132, null}
!142 = !DIImportedEntity(tag: DW_TAG_imported_declaration, scope: !5, entity: !143, line: 148)
!143 = !DISubprogram(name: "fwscanf", scope: !26, file: !26, line: 222, type: !140, isLocal: false, isDefinition: false, flags: DIFlagPrototyped, isOptimized: false)
!144 = !DIImportedEntity(tag: DW_TAG_imported_declaration, scope: !5, entity: !145, line: 149)
!145 = !DISubprogram(name: "getwc", scope: !26, file: !26, line: 156, type: !50, isLocal: false, isDefinition: false, flags: DIFlagPrototyped, isOptimized: false)
!146 = !DIImportedEntity(tag: DW_TAG_imported_declaration, scope: !5, entity: !147, line: 150)
!147 = !DISubprogram(name: "getwchar", scope: !26, file: !26, line: 157, type: !148, isLocal: false, isDefinition: false, flags: DIFlagPrototyped, isOptimized: false)
!148 = !DISubroutineType(types: !149)
!149 = !{!36}
!150 = !DIImportedEntity(tag: DW_TAG_imported_declaration, scope: !5, entity: !151, line: 151)
!151 = !DISubprogram(name: "mbrlen", scope: !26, file: !26, line: 68, type: !152, isLocal: false, isDefinition: false, flags: DIFlagPrototyped, isOptimized: false)
!152 = !DISubroutineType(types: !153)
!153 = !{!154, !84, !154, !156}
!154 = !DIDerivedType(tag: DW_TAG_typedef, name: "size_t", file: !37, line: 216, baseType: !155)
!155 = !DIBasicType(name: "unsigned int", size: 32, align: 32, encoding: DW_ATE_unsigned)
!156 = !DIDerivedType(tag: DW_TAG_pointer_type, baseType: !25, size: 32, align: 32)
!157 = !DIImportedEntity(tag: DW_TAG_imported_declaration, scope: !5, entity: !158, line: 152)
!158 = !DISubprogram(name: "mbrtowc", scope: !26, file: !26, line: 69, type: !159, isLocal: false, isDefinition: false, flags: DIFlagPrototyped, isOptimized: false)
!159 = !DISubroutineType(types: !160)
!160 = !{!154, !122, !84, !154, !156}
!161 = !DIImportedEntity(tag: DW_TAG_imported_declaration, scope: !5, entity: !162, line: 153)
!162 = !DISubprogram(name: "mbsinit", scope: !26, file: !26, line: 73, type: !163, isLocal: false, isDefinition: false, flags: DIFlagPrototyped, isOptimized: false)
!163 = !DISubroutineType(types: !164)
!164 = !{!15, !165}
!165 = !DIDerivedType(tag: DW_TAG_pointer_type, baseType: !166, size: 32, align: 32)
!166 = !DIDerivedType(tag: DW_TAG_const_type, baseType: !25)
!167 = !DIImportedEntity(tag: DW_TAG_imported_declaration, scope: !5, entity: !168, line: 154)
!168 = !DISubprogram(name: "mbsrtowcs", scope: !26, file: !26, line: 78, type: !169, isLocal: false, isDefinition: false, flags: DIFlagPrototyped, isOptimized: false)
!169 = !DISubroutineType(types: !170)
!170 = !{!154, !122, !171, !154, !156}
!171 = !DIDerivedType(tag: DW_TAG_pointer_type, baseType: !84, size: 32, align: 32)
!172 = !DIImportedEntity(tag: DW_TAG_imported_declaration, scope: !5, entity: !173, line: 155)
!173 = !DISubprogram(name: "putwc", scope: !26, file: !26, line: 158, type: !126, isLocal: false, isDefinition: false, flags: DIFlagPrototyped, isOptimized: false)
!174 = !DIImportedEntity(tag: DW_TAG_imported_declaration, scope: !5, entity: !175, line: 156)
!175 = !DISubprogram(name: "putwchar", scope: !26, file: !26, line: 159, type: !176, isLocal: false, isDefinition: false, flags: DIFlagPrototyped, isOptimized: false)
!176 = !DISubroutineType(types: !177)
!177 = !{!36, !123}
!178 = !DIImportedEntity(tag: DW_TAG_imported_declaration, scope: !5, entity: !179, line: 158)
!179 = !DISubprogram(name: "swprintf", scope: !26, file: !26, line: 206, type: !180, isLocal: false, isDefinition: false, flags: DIFlagPrototyped, isOptimized: false)
!180 = !DISubroutineType(types: !181)
!181 = !{!15, !122, !154, !132, null}
!182 = !DIImportedEntity(tag: DW_TAG_imported_declaration, scope: !5, entity: !183, line: 160)
!183 = !DISubprogram(name: "swscanf", scope: !26, file: !26, line: 223, type: !184, isLocal: false, isDefinition: false, flags: DIFlagPrototyped, isOptimized: false)
!184 = !DISubroutineType(types: !185)
!185 = !{!15, !132, !132, null}
!186 = !DIImportedEntity(tag: DW_TAG_imported_declaration, scope: !5, entity: !187, line: 161)
!187 = !DISubprogram(name: "ungetwc", scope: !26, file: !26, line: 160, type: !188, isLocal: false, isDefinition: false, flags: DIFlagPrototyped, isOptimized: false)
!188 = !DISubroutineType(types: !189)
!189 = !{!36, !36, !52}
!190 = !DIImportedEntity(tag: DW_TAG_imported_declaration, scope: !5, entity: !191, line: 162)
!191 = !DISubprogram(name: "vfwprintf", scope: !26, file: !26, line: 208, type: !192, isLocal: false, isDefinition: false, flags: DIFlagPrototyped, isOptimized: false)
!192 = !DISubroutineType(types: !193)
!193 = !{!15, !52, !132, !194}
!194 = !DIDerivedType(tag: DW_TAG_typedef, name: "__gnuc_va_list", file: !195, line: 40, baseType: !196)
!195 = !DIFile(filename: "/tools/Xilinx/SDK/2018.3/gnu/aarch32/lin/gcc-arm-none-eabi/lib/gcc/arm-none-eabi/7.3.1/include/stdarg.h", directory: "/home/bqpd/workspace_sdsoc/MiniZedMM/Debug")
!196 = !DIDerivedType(tag: DW_TAG_typedef, name: "__builtin_va_list", file: !1, baseType: !197)
!197 = distinct !DICompositeType(tag: DW_TAG_structure_type, name: "__va_list", scope: !198, file: !1, size: 32, align: 32, elements: !199, identifier: "_ZTSSt9__va_list")
!198 = !DINamespace(name: "std", scope: null, file: !1)
!199 = !{!200}
!200 = !DIDerivedType(tag: DW_TAG_member, name: "__ap", scope: !197, file: !1, baseType: !71, size: 32, align: 32)
!201 = !DIImportedEntity(tag: DW_TAG_imported_declaration, scope: !5, entity: !202, line: 164)
!202 = !DISubprogram(name: "vfwscanf", scope: !26, file: !26, line: 225, type: !192, isLocal: false, isDefinition: false, flags: DIFlagPrototyped, isOptimized: false)
!203 = !DIImportedEntity(tag: DW_TAG_imported_declaration, scope: !5, entity: !204, line: 167)
!204 = !DISubprogram(name: "vswprintf", scope: !26, file: !26, line: 210, type: !205, isLocal: false, isDefinition: false, flags: DIFlagPrototyped, isOptimized: false)
!205 = !DISubroutineType(types: !206)
!206 = !{!15, !122, !154, !132, !194}
!207 = !DIImportedEntity(tag: DW_TAG_imported_declaration, scope: !5, entity: !208, line: 170)
!208 = !DISubprogram(name: "vswscanf", scope: !26, file: !26, line: 227, type: !209, isLocal: false, isDefinition: false, flags: DIFlagPrototyped, isOptimized: false)
!209 = !DISubroutineType(types: !210)
!210 = !{!15, !132, !132, !194}
!211 = !DIImportedEntity(tag: DW_TAG_imported_declaration, scope: !5, entity: !212, line: 172)
!212 = !DISubprogram(name: "vwprintf", scope: !26, file: !26, line: 212, type: !213, isLocal: false, isDefinition: false, flags: DIFlagPrototyped, isOptimized: false)
!213 = !DISubroutineType(types: !214)
!214 = !{!15, !132, !194}
!215 = !DIImportedEntity(tag: DW_TAG_imported_declaration, scope: !5, entity: !216, line: 174)
!216 = !DISubprogram(name: "vwscanf", scope: !26, file: !26, line: 229, type: !213, isLocal: false, isDefinition: false, flags: DIFlagPrototyped, isOptimized: false)
!217 = !DIImportedEntity(tag: DW_TAG_imported_declaration, scope: !5, entity: !218, line: 176)
!218 = !DISubprogram(name: "wcrtomb", scope: !26, file: !26, line: 81, type: !219, isLocal: false, isDefinition: false, flags: DIFlagPrototyped, isOptimized: false)
!219 = !DISubroutineType(types: !220)
!220 = !{!154, !78, !123, !156}
!221 = !DIImportedEntity(tag: DW_TAG_imported_declaration, scope: !5, entity: !222, line: 177)
!222 = !DISubprogram(name: "wcscat", scope: !26, file: !26, line: 92, type: !223, isLocal: false, isDefinition: false, flags: DIFlagPrototyped, isOptimized: false)
!223 = !DISubroutineType(types: !224)
!224 = !{!122, !122, !132}
!225 = !DIImportedEntity(tag: DW_TAG_imported_declaration, scope: !5, entity: !226, line: 178)
!226 = !DISubprogram(name: "wcscmp", scope: !26, file: !26, line: 94, type: !227, isLocal: false, isDefinition: false, flags: DIFlagPrototyped, isOptimized: false)
!227 = !DISubroutineType(types: !228)
!228 = !{!15, !132, !132}
!229 = !DIImportedEntity(tag: DW_TAG_imported_declaration, scope: !5, entity: !230, line: 179)
!230 = !DISubprogram(name: "wcscoll", scope: !26, file: !26, line: 95, type: !227, isLocal: false, isDefinition: false, flags: DIFlagPrototyped, isOptimized: false)
!231 = !DIImportedEntity(tag: DW_TAG_imported_declaration, scope: !5, entity: !232, line: 180)
!232 = !DISubprogram(name: "wcscpy", scope: !26, file: !26, line: 96, type: !223, isLocal: false, isDefinition: false, flags: DIFlagPrototyped, isOptimized: false)
!233 = !DIImportedEntity(tag: DW_TAG_imported_declaration, scope: !5, entity: !234, line: 181)
!234 = !DISubprogram(name: "wcscspn", scope: !26, file: !26, line: 101, type: !235, isLocal: false, isDefinition: false, flags: DIFlagPrototyped, isOptimized: false)
!235 = !DISubroutineType(types: !236)
!236 = !{!154, !132, !132}
!237 = !DIImportedEntity(tag: DW_TAG_imported_declaration, scope: !5, entity: !238, line: 182)
!238 = !DISubprogram(name: "wcsftime", scope: !26, file: !26, line: 102, type: !239, isLocal: false, isDefinition: false, flags: DIFlagPrototyped, isOptimized: false)
!239 = !DISubroutineType(types: !240)
!240 = !{!154, !122, !154, !132, !241}
!241 = !DIDerivedType(tag: DW_TAG_pointer_type, baseType: !242, size: 32, align: 32)
!242 = !DIDerivedType(tag: DW_TAG_const_type, baseType: !243)
!243 = !DICompositeType(tag: DW_TAG_structure_type, name: "tm", file: !26, line: 59, flags: DIFlagFwdDecl, identifier: "_ZTS2tm")
!244 = !DIImportedEntity(tag: DW_TAG_imported_declaration, scope: !5, entity: !245, line: 183)
!245 = !DISubprogram(name: "wcslen", scope: !26, file: !26, line: 106, type: !246, isLocal: false, isDefinition: false, flags: DIFlagPrototyped, isOptimized: false)
!246 = !DISubroutineType(types: !247)
!247 = !{!154, !132}
!248 = !DIImportedEntity(tag: DW_TAG_imported_declaration, scope: !5, entity: !249, line: 184)
!249 = !DISubprogram(name: "wcsncat", scope: !26, file: !26, line: 108, type: !250, isLocal: false, isDefinition: false, flags: DIFlagPrototyped, isOptimized: false)
!250 = !DISubroutineType(types: !251)
!251 = !{!122, !122, !132, !154}
!252 = !DIImportedEntity(tag: DW_TAG_imported_declaration, scope: !5, entity: !253, line: 185)
!253 = !DISubprogram(name: "wcsncmp", scope: !26, file: !26, line: 110, type: !254, isLocal: false, isDefinition: false, flags: DIFlagPrototyped, isOptimized: false)
!254 = !DISubroutineType(types: !255)
!255 = !{!15, !132, !132, !154}
!256 = !DIImportedEntity(tag: DW_TAG_imported_declaration, scope: !5, entity: !257, line: 186)
!257 = !DISubprogram(name: "wcsncpy", scope: !26, file: !26, line: 111, type: !250, isLocal: false, isDefinition: false, flags: DIFlagPrototyped, isOptimized: false)
!258 = !DIImportedEntity(tag: DW_TAG_imported_declaration, scope: !5, entity: !259, line: 187)
!259 = !DISubprogram(name: "wcsrtombs", scope: !26, file: !26, line: 87, type: !260, isLocal: false, isDefinition: false, flags: DIFlagPrototyped, isOptimized: false)
!260 = !DISubroutineType(types: !261)
!261 = !{!154, !78, !262, !154, !156}
!262 = !DIDerivedType(tag: DW_TAG_pointer_type, baseType: !132, size: 32, align: 32)
!263 = !DIImportedEntity(tag: DW_TAG_imported_declaration, scope: !5, entity: !264, line: 188)
!264 = !DISubprogram(name: "wcsspn", scope: !26, file: !26, line: 118, type: !235, isLocal: false, isDefinition: false, flags: DIFlagPrototyped, isOptimized: false)
!265 = !DIImportedEntity(tag: DW_TAG_imported_declaration, scope: !5, entity: !266, line: 189)
!266 = !DISubprogram(name: "wcstod", scope: !26, file: !26, line: 123, type: !267, isLocal: false, isDefinition: false, flags: DIFlagPrototyped, isOptimized: false)
!267 = !DISubroutineType(types: !268)
!268 = !{!269, !132, !270}
!269 = !DIBasicType(name: "double", size: 64, align: 64, encoding: DW_ATE_float)
!270 = !DIDerivedType(tag: DW_TAG_pointer_type, baseType: !122, size: 32, align: 32)
!271 = !DIImportedEntity(tag: DW_TAG_imported_declaration, scope: !5, entity: !272, line: 191)
!272 = !DISubprogram(name: "wcstof", scope: !26, file: !26, line: 125, type: !273, isLocal: false, isDefinition: false, flags: DIFlagPrototyped, isOptimized: false)
!273 = !DISubroutineType(types: !274)
!274 = !{!275, !132, !270}
!275 = !DIBasicType(name: "float", size: 32, align: 32, encoding: DW_ATE_float)
!276 = !DIImportedEntity(tag: DW_TAG_imported_declaration, scope: !5, entity: !277, line: 193)
!277 = !DISubprogram(name: "wcstok", scope: !26, file: !26, line: 121, type: !278, isLocal: false, isDefinition: false, flags: DIFlagPrototyped, isOptimized: false)
!278 = !DISubroutineType(types: !279)
!279 = !{!122, !122, !132, !270}
!280 = !DIImportedEntity(tag: DW_TAG_imported_declaration, scope: !5, entity: !281, line: 194)
!281 = !DISubprogram(name: "wcstol", scope: !26, file: !26, line: 138, type: !282, isLocal: false, isDefinition: false, flags: DIFlagPrototyped, isOptimized: false)
!282 = !DISubroutineType(types: !283)
!283 = !{!91, !132, !270, !15}
!284 = !DIImportedEntity(tag: DW_TAG_imported_declaration, scope: !5, entity: !285, line: 195)
!285 = !DISubprogram(name: "wcstoul", scope: !26, file: !26, line: 141, type: !286, isLocal: false, isDefinition: false, flags: DIFlagPrototyped, isOptimized: false)
!286 = !DISubroutineType(types: !287)
!287 = !{!288, !132, !270, !15}
!288 = !DIBasicType(name: "long unsigned int", size: 32, align: 32, encoding: DW_ATE_unsigned)
!289 = !DIImportedEntity(tag: DW_TAG_imported_declaration, scope: !5, entity: !290, line: 196)
!290 = !DISubprogram(name: "wcsxfrm", scope: !26, file: !26, line: 128, type: !291, isLocal: false, isDefinition: false, flags: DIFlagPrototyped, isOptimized: false)
!291 = !DISubroutineType(types: !292)
!292 = !{!154, !122, !132, !154}
!293 = !DIImportedEntity(tag: DW_TAG_imported_declaration, scope: !5, entity: !294, line: 197)
!294 = !DISubprogram(name: "wctob", scope: !26, file: !26, line: 67, type: !295, isLocal: false, isDefinition: false, flags: DIFlagPrototyped, isOptimized: false)
!295 = !DISubroutineType(types: !296)
!296 = !{!15, !36}
!297 = !DIImportedEntity(tag: DW_TAG_imported_declaration, scope: !5, entity: !298, line: 198)
!298 = !DISubprogram(name: "wmemcmp", scope: !26, file: !26, line: 132, type: !254, isLocal: false, isDefinition: false, flags: DIFlagPrototyped, isOptimized: false)
!299 = !DIImportedEntity(tag: DW_TAG_imported_declaration, scope: !5, entity: !300, line: 199)
!300 = !DISubprogram(name: "wmemcpy", scope: !26, file: !26, line: 133, type: !250, isLocal: false, isDefinition: false, flags: DIFlagPrototyped, isOptimized: false)
!301 = !DIImportedEntity(tag: DW_TAG_imported_declaration, scope: !5, entity: !302, line: 200)
!302 = !DISubprogram(name: "wmemmove", scope: !26, file: !26, line: 135, type: !250, isLocal: false, isDefinition: false, flags: DIFlagPrototyped, isOptimized: false)
!303 = !DIImportedEntity(tag: DW_TAG_imported_declaration, scope: !5, entity: !304, line: 201)
!304 = !DISubprogram(name: "wmemset", scope: !26, file: !26, line: 136, type: !305, isLocal: false, isDefinition: false, flags: DIFlagPrototyped, isOptimized: false)
!305 = !DISubroutineType(types: !306)
!306 = !{!122, !122, !123, !154}
!307 = !DIImportedEntity(tag: DW_TAG_imported_declaration, scope: !5, entity: !308, line: 202)
!308 = !DISubprogram(name: "wprintf", scope: !26, file: !26, line: 213, type: !309, isLocal: false, isDefinition: false, flags: DIFlagPrototyped, isOptimized: false)
!309 = !DISubroutineType(types: !310)
!310 = !{!15, !132, null}
!311 = !DIImportedEntity(tag: DW_TAG_imported_declaration, scope: !5, entity: !312, line: 203)
!312 = !DISubprogram(name: "wscanf", scope: !26, file: !26, line: 230, type: !309, isLocal: false, isDefinition: false, flags: DIFlagPrototyped, isOptimized: false)
!313 = !DIImportedEntity(tag: DW_TAG_imported_declaration, scope: !5, entity: !314, line: 204)
!314 = !DISubprogram(name: "wcschr", scope: !26, file: !26, line: 93, type: !315, isLocal: false, isDefinition: false, flags: DIFlagPrototyped, isOptimized: false)
!315 = !DISubroutineType(types: !316)
!316 = !{!122, !132, !123}
!317 = !DIImportedEntity(tag: DW_TAG_imported_declaration, scope: !5, entity: !318, line: 205)
!318 = !DISubprogram(name: "wcspbrk", scope: !26, file: !26, line: 116, type: !319, isLocal: false, isDefinition: false, flags: DIFlagPrototyped, isOptimized: false)
!319 = !DISubroutineType(types: !320)
!320 = !{!122, !132, !132}
!321 = !DIImportedEntity(tag: DW_TAG_imported_declaration, scope: !5, entity: !322, line: 206)
!322 = !DISubprogram(name: "wcsrchr", scope: !26, file: !26, line: 117, type: !315, isLocal: false, isDefinition: false, flags: DIFlagPrototyped, isOptimized: false)
!323 = !DIImportedEntity(tag: DW_TAG_imported_declaration, scope: !5, entity: !324, line: 207)
!324 = !DISubprogram(name: "wcsstr", scope: !26, file: !26, line: 119, type: !319, isLocal: false, isDefinition: false, flags: DIFlagPrototyped, isOptimized: false)
!325 = !DIImportedEntity(tag: DW_TAG_imported_declaration, scope: !5, entity: !326, line: 208)
!326 = !DISubprogram(name: "wmemchr", scope: !26, file: !26, line: 131, type: !327, isLocal: false, isDefinition: false, flags: DIFlagPrototyped, isOptimized: false)
!327 = !DISubroutineType(types: !328)
!328 = !{!122, !132, !123, !154}
!329 = !DIImportedEntity(tag: DW_TAG_imported_declaration, scope: !330, entity: !331, line: 248)
!330 = !DINamespace(name: "__gnu_cxx", scope: null, file: !6, line: 255)
!331 = !DISubprogram(name: "wcstold", scope: !26, file: !26, line: 149, type: !332, isLocal: false, isDefinition: false, flags: DIFlagPrototyped, isOptimized: false)
!332 = !DISubroutineType(types: !333)
!333 = !{!334, !132, !270}
!334 = !DIBasicType(name: "long double", size: 64, align: 64, encoding: DW_ATE_float)
!335 = !DIImportedEntity(tag: DW_TAG_imported_declaration, scope: !330, entity: !336, line: 257)
!336 = !DISubprogram(name: "wcstoll", scope: !26, file: !26, line: 139, type: !337, isLocal: false, isDefinition: false, flags: DIFlagPrototyped, isOptimized: false)
!337 = !DISubroutineType(types: !338)
!338 = !{!339, !132, !270, !15}
!339 = !DIBasicType(name: "long long int", size: 64, align: 64, encoding: DW_ATE_signed)
!340 = !DIImportedEntity(tag: DW_TAG_imported_declaration, scope: !330, entity: !341, line: 258)
!341 = !DISubprogram(name: "wcstoull", scope: !26, file: !26, line: 143, type: !342, isLocal: false, isDefinition: false, flags: DIFlagPrototyped, isOptimized: false)
!342 = !DISubroutineType(types: !343)
!343 = !{!344, !132, !270, !15}
!344 = !DIBasicType(name: "long long unsigned int", size: 64, align: 64, encoding: DW_ATE_unsigned)
!345 = !DIImportedEntity(tag: DW_TAG_imported_declaration, scope: !5, entity: !331, line: 264)
!346 = !DIImportedEntity(tag: DW_TAG_imported_declaration, scope: !5, entity: !336, line: 265)
!347 = !DIImportedEntity(tag: DW_TAG_imported_declaration, scope: !5, entity: !341, line: 266)
!348 = !DIImportedEntity(tag: DW_TAG_imported_declaration, scope: !5, entity: !272, line: 280)
!349 = !DIImportedEntity(tag: DW_TAG_imported_declaration, scope: !5, entity: !202, line: 283)
!350 = !DIImportedEntity(tag: DW_TAG_imported_declaration, scope: !5, entity: !208, line: 286)
!351 = !DIImportedEntity(tag: DW_TAG_imported_declaration, scope: !5, entity: !216, line: 289)
!352 = !DIImportedEntity(tag: DW_TAG_imported_declaration, scope: !5, entity: !331, line: 293)
!353 = !DIImportedEntity(tag: DW_TAG_imported_declaration, scope: !5, entity: !336, line: 294)
!354 = !DIImportedEntity(tag: DW_TAG_imported_declaration, scope: !5, entity: !341, line: 295)
!355 = !DIImportedEntity(tag: DW_TAG_imported_declaration, scope: !5, entity: !356, line: 57)
!356 = distinct !DICompositeType(tag: DW_TAG_class_type, name: "exception_ptr", scope: !358, file: !357, line: 79, size: 32, align: 32, elements: !359, identifier: "_ZTSNSt15__exception_ptr13exception_ptrE")
!357 = !DIFile(filename: "/tools/Xilinx/SDK/2018.3/gnu/aarch32/lin/gcc-arm-none-eabi/arm-none-eabi/include/c++/7.3.1/bits/exception_ptr.h", directory: "/home/bqpd/workspace_sdsoc/MiniZedMM/Debug")
!358 = !DINamespace(name: "__exception_ptr", scope: !5, file: !357, line: 52)
!359 = !{!360, !361, !365, !368, !369, !374, !375, !379, !384, !388, !392, !395, !396, !399, !402}
!360 = !DIDerivedType(tag: DW_TAG_member, name: "_M_exception_object", scope: !356, file: !357, line: 81, baseType: !71, size: 32, align: 32)
!361 = !DISubprogram(name: "exception_ptr", scope: !356, file: !357, line: 83, type: !362, isLocal: false, isDefinition: false, scopeLine: 83, flags: DIFlagExplicit | DIFlagPrototyped, isOptimized: false)
!362 = !DISubroutineType(types: !363)
!363 = !{null, !364, !71}
!364 = !DIDerivedType(tag: DW_TAG_pointer_type, baseType: !356, size: 32, align: 32, flags: DIFlagArtificial | DIFlagObjectPointer)
!365 = !DISubprogram(name: "_M_addref", linkageName: "_ZNSt15__exception_ptr13exception_ptr9_M_addrefEv", scope: !356, file: !357, line: 85, type: !366, isLocal: false, isDefinition: false, scopeLine: 85, flags: DIFlagPrototyped, isOptimized: false)
!366 = !DISubroutineType(types: !367)
!367 = !{null, !364}
!368 = !DISubprogram(name: "_M_release", linkageName: "_ZNSt15__exception_ptr13exception_ptr10_M_releaseEv", scope: !356, file: !357, line: 86, type: !366, isLocal: false, isDefinition: false, scopeLine: 86, flags: DIFlagPrototyped, isOptimized: false)
!369 = !DISubprogram(name: "_M_get", linkageName: "_ZNKSt15__exception_ptr13exception_ptr6_M_getEv", scope: !356, file: !357, line: 88, type: !370, isLocal: false, isDefinition: false, scopeLine: 88, flags: DIFlagPrototyped, isOptimized: false)
!370 = !DISubroutineType(types: !371)
!371 = !{!71, !372}
!372 = !DIDerivedType(tag: DW_TAG_pointer_type, baseType: !373, size: 32, align: 32, flags: DIFlagArtificial | DIFlagObjectPointer)
!373 = !DIDerivedType(tag: DW_TAG_const_type, baseType: !356)
!374 = !DISubprogram(name: "exception_ptr", scope: !356, file: !357, line: 96, type: !366, isLocal: false, isDefinition: false, scopeLine: 96, flags: DIFlagPublic | DIFlagPrototyped, isOptimized: false)
!375 = !DISubprogram(name: "exception_ptr", scope: !356, file: !357, line: 98, type: !376, isLocal: false, isDefinition: false, scopeLine: 98, flags: DIFlagPublic | DIFlagPrototyped, isOptimized: false)
!376 = !DISubroutineType(types: !377)
!377 = !{null, !364, !378}
!378 = !DIDerivedType(tag: DW_TAG_reference_type, baseType: !373, size: 32, align: 32)
!379 = !DISubprogram(name: "exception_ptr", scope: !356, file: !357, line: 101, type: !380, isLocal: false, isDefinition: false, scopeLine: 101, flags: DIFlagPublic | DIFlagPrototyped, isOptimized: false)
!380 = !DISubroutineType(types: !381)
!381 = !{null, !364, !382}
!382 = !DIDerivedType(tag: DW_TAG_typedef, name: "nullptr_t", scope: !5, file: !6, line: 235, baseType: !383)
!383 = !DIBasicType(tag: DW_TAG_unspecified_type, name: "decltype(nullptr)")
!384 = !DISubprogram(name: "exception_ptr", scope: !356, file: !357, line: 105, type: !385, isLocal: false, isDefinition: false, scopeLine: 105, flags: DIFlagPublic | DIFlagPrototyped, isOptimized: false)
!385 = !DISubroutineType(types: !386)
!386 = !{null, !364, !387}
!387 = !DIDerivedType(tag: DW_TAG_rvalue_reference_type, baseType: !356, size: 32, align: 32)
!388 = !DISubprogram(name: "operator=", linkageName: "_ZNSt15__exception_ptr13exception_ptraSERKS0_", scope: !356, file: !357, line: 118, type: !389, isLocal: false, isDefinition: false, scopeLine: 118, flags: DIFlagPublic | DIFlagPrototyped, isOptimized: false)
!389 = !DISubroutineType(types: !390)
!390 = !{!391, !364, !378}
!391 = !DIDerivedType(tag: DW_TAG_reference_type, baseType: !356, size: 32, align: 32)
!392 = !DISubprogram(name: "operator=", linkageName: "_ZNSt15__exception_ptr13exception_ptraSEOS0_", scope: !356, file: !357, line: 122, type: !393, isLocal: false, isDefinition: false, scopeLine: 122, flags: DIFlagPublic | DIFlagPrototyped, isOptimized: false)
!393 = !DISubroutineType(types: !394)
!394 = !{!391, !364, !387}
!395 = !DISubprogram(name: "~exception_ptr", scope: !356, file: !357, line: 129, type: !366, isLocal: false, isDefinition: false, scopeLine: 129, flags: DIFlagPublic | DIFlagPrototyped, isOptimized: false)
!396 = !DISubprogram(name: "swap", linkageName: "_ZNSt15__exception_ptr13exception_ptr4swapERS0_", scope: !356, file: !357, line: 132, type: !397, isLocal: false, isDefinition: false, scopeLine: 132, flags: DIFlagPublic | DIFlagPrototyped, isOptimized: false)
!397 = !DISubroutineType(types: !398)
!398 = !{null, !364, !391}
!399 = !DISubprogram(name: "operator bool", linkageName: "_ZNKSt15__exception_ptr13exception_ptrcvbEv", scope: !356, file: !357, line: 144, type: !400, isLocal: false, isDefinition: false, scopeLine: 144, flags: DIFlagPublic | DIFlagExplicit | DIFlagPrototyped, isOptimized: false)
!400 = !DISubroutineType(types: !401)
!401 = !{!17, !372}
!402 = !DISubprogram(name: "__cxa_exception_type", linkageName: "_ZNKSt15__exception_ptr13exception_ptr20__cxa_exception_typeEv", scope: !356, file: !357, line: 153, type: !403, isLocal: false, isDefinition: false, scopeLine: 153, flags: DIFlagPublic | DIFlagPrototyped, isOptimized: false)
!403 = !DISubroutineType(types: !404)
!404 = !{!405, !372}
!405 = !DIDerivedType(tag: DW_TAG_pointer_type, baseType: !406, size: 32, align: 32)
!406 = !DIDerivedType(tag: DW_TAG_const_type, baseType: !407)
!407 = !DICompositeType(tag: DW_TAG_class_type, name: "type_info", scope: !5, file: !408, line: 88, size: 64, align: 32, flags: DIFlagFwdDecl, identifier: "_ZTSSt9type_info")
!408 = !DIFile(filename: "/tools/Xilinx/SDK/2018.3/gnu/aarch32/lin/gcc-arm-none-eabi/arm-none-eabi/include/c++/7.3.1/typeinfo", directory: "/home/bqpd/workspace_sdsoc/MiniZedMM/Debug")
!409 = !DIImportedEntity(tag: DW_TAG_imported_declaration, scope: !358, entity: !410, line: 73)
!410 = !DISubprogram(name: "rethrow_exception", linkageName: "_ZSt17rethrow_exceptionNSt15__exception_ptr13exception_ptrE", scope: !5, file: !357, line: 69, type: !411, isLocal: false, isDefinition: false, flags: DIFlagPrototyped, isOptimized: false)
!411 = !DISubroutineType(types: !412)
!412 = !{null, !356}
!413 = !DIImportedEntity(tag: DW_TAG_imported_module, scope: !414, entity: !416, line: 58)
!414 = !DINamespace(name: "__gnu_debug", scope: null, file: !415, line: 56)
!415 = !DIFile(filename: "/tools/Xilinx/SDK/2018.3/gnu/aarch32/lin/gcc-arm-none-eabi/arm-none-eabi/include/c++/7.3.1/debug/debug.h", directory: "/home/bqpd/workspace_sdsoc/MiniZedMM/Debug")
!416 = !DINamespace(name: "__debug", scope: !5, file: !415, line: 50)
!417 = !DIImportedEntity(tag: DW_TAG_imported_declaration, scope: !5, entity: !418, line: 48)
!418 = !DIDerivedType(tag: DW_TAG_typedef, name: "int8_t", file: !419, line: 19, baseType: !420)
!419 = !DIFile(filename: "/tools/Xilinx/SDK/2018.3/gnu/aarch32/lin/gcc-arm-none-eabi/arm-none-eabi/libc/usr/include/sys/_stdint.h", directory: "/home/bqpd/workspace_sdsoc/MiniZedMM/Debug")
!420 = !DIDerivedType(tag: DW_TAG_typedef, name: "__int8_t", file: !421, line: 27, baseType: !422)
!421 = !DIFile(filename: "/tools/Xilinx/SDK/2018.3/gnu/aarch32/lin/gcc-arm-none-eabi/arm-none-eabi/libc/usr/include/machine/_default_types.h", directory: "/home/bqpd/workspace_sdsoc/MiniZedMM/Debug")
!422 = !DIBasicType(name: "signed char", size: 8, align: 8, encoding: DW_ATE_signed_char)
!423 = !DIImportedEntity(tag: DW_TAG_imported_declaration, scope: !5, entity: !424, line: 49)
!424 = !DIDerivedType(tag: DW_TAG_typedef, name: "int16_t", file: !419, line: 25, baseType: !425)
!425 = !DIDerivedType(tag: DW_TAG_typedef, name: "__int16_t", file: !421, line: 41, baseType: !62)
!426 = !DIImportedEntity(tag: DW_TAG_imported_declaration, scope: !5, entity: !427, line: 50)
!427 = !DIDerivedType(tag: DW_TAG_typedef, name: "int32_t", file: !419, line: 31, baseType: !428)
!428 = !DIDerivedType(tag: DW_TAG_typedef, name: "__int32_t", file: !421, line: 63, baseType: !15)
!429 = !DIImportedEntity(tag: DW_TAG_imported_declaration, scope: !5, entity: !430, line: 51)
!430 = !DIDerivedType(tag: DW_TAG_typedef, name: "int64_t", file: !419, line: 37, baseType: !431)
!431 = !DIDerivedType(tag: DW_TAG_typedef, name: "__int64_t", file: !421, line: 89, baseType: !339)
!432 = !DIImportedEntity(tag: DW_TAG_imported_declaration, scope: !5, entity: !433, line: 53)
!433 = !DIDerivedType(tag: DW_TAG_typedef, name: "int_fast8_t", file: !434, line: 51, baseType: !422)
!434 = !DIFile(filename: "/tools/Xilinx/SDK/2018.3/gnu/aarch32/lin/gcc-arm-none-eabi/arm-none-eabi/libc/usr/include/stdint.h", directory: "/home/bqpd/workspace_sdsoc/MiniZedMM/Debug")
!435 = !DIImportedEntity(tag: DW_TAG_imported_declaration, scope: !5, entity: !436, line: 54)
!436 = !DIDerivedType(tag: DW_TAG_typedef, name: "int_fast16_t", file: !434, line: 61, baseType: !62)
!437 = !DIImportedEntity(tag: DW_TAG_imported_declaration, scope: !5, entity: !438, line: 55)
!438 = !DIDerivedType(tag: DW_TAG_typedef, name: "int_fast32_t", file: !434, line: 71, baseType: !15)
!439 = !DIImportedEntity(tag: DW_TAG_imported_declaration, scope: !5, entity: !440, line: 56)
!440 = !DIDerivedType(tag: DW_TAG_typedef, name: "int_fast64_t", file: !434, line: 81, baseType: !339)
!441 = !DIImportedEntity(tag: DW_TAG_imported_declaration, scope: !5, entity: !442, line: 58)
!442 = !DIDerivedType(tag: DW_TAG_typedef, name: "int_least8_t", file: !434, line: 21, baseType: !443)
!443 = !DIDerivedType(tag: DW_TAG_typedef, name: "__int_least8_t", file: !421, line: 120, baseType: !422)
!444 = !DIImportedEntity(tag: DW_TAG_imported_declaration, scope: !5, entity: !445, line: 59)
!445 = !DIDerivedType(tag: DW_TAG_typedef, name: "int_least16_t", file: !434, line: 27, baseType: !446)
!446 = !DIDerivedType(tag: DW_TAG_typedef, name: "__int_least16_t", file: !421, line: 146, baseType: !62)
!447 = !DIImportedEntity(tag: DW_TAG_imported_declaration, scope: !5, entity: !448, line: 60)
!448 = !DIDerivedType(tag: DW_TAG_typedef, name: "int_least32_t", file: !434, line: 33, baseType: !449)
!449 = !DIDerivedType(tag: DW_TAG_typedef, name: "__int_least32_t", file: !421, line: 168, baseType: !15)
!450 = !DIImportedEntity(tag: DW_TAG_imported_declaration, scope: !5, entity: !451, line: 61)
!451 = !DIDerivedType(tag: DW_TAG_typedef, name: "int_least64_t", file: !434, line: 39, baseType: !452)
!452 = !DIDerivedType(tag: DW_TAG_typedef, name: "__int_least64_t", file: !421, line: 186, baseType: !339)
!453 = !DIImportedEntity(tag: DW_TAG_imported_declaration, scope: !5, entity: !454, line: 63)
!454 = !DIDerivedType(tag: DW_TAG_typedef, name: "intmax_t", file: !434, line: 130, baseType: !339)
!455 = !DIImportedEntity(tag: DW_TAG_imported_declaration, scope: !5, entity: !456, line: 64)
!456 = !DIDerivedType(tag: DW_TAG_typedef, name: "intptr_t", file: !419, line: 42, baseType: !457)
!457 = !DIDerivedType(tag: DW_TAG_typedef, name: "__intptr_t", file: !421, line: 200, baseType: !91)
!458 = !DIImportedEntity(tag: DW_TAG_imported_declaration, scope: !5, entity: !459, line: 66)
!459 = !DIDerivedType(tag: DW_TAG_typedef, name: "uint8_t", file: !419, line: 20, baseType: !460)
!460 = !DIDerivedType(tag: DW_TAG_typedef, name: "__uint8_t", file: !421, line: 29, baseType: !40)
!461 = !DIImportedEntity(tag: DW_TAG_imported_declaration, scope: !5, entity: !462, line: 67)
!462 = !DIDerivedType(tag: DW_TAG_typedef, name: "uint16_t", file: !419, line: 26, baseType: !463)
!463 = !DIDerivedType(tag: DW_TAG_typedef, name: "__uint16_t", file: !421, line: 43, baseType: !464)
!464 = !DIBasicType(name: "unsigned short", size: 16, align: 16, encoding: DW_ATE_unsigned)
!465 = !DIImportedEntity(tag: DW_TAG_imported_declaration, scope: !5, entity: !466, line: 68)
!466 = !DIDerivedType(tag: DW_TAG_typedef, name: "uint32_t", file: !419, line: 32, baseType: !467)
!467 = !DIDerivedType(tag: DW_TAG_typedef, name: "__uint32_t", file: !421, line: 65, baseType: !155)
!468 = !DIImportedEntity(tag: DW_TAG_imported_declaration, scope: !5, entity: !469, line: 69)
!469 = !DIDerivedType(tag: DW_TAG_typedef, name: "uint64_t", file: !419, line: 38, baseType: !470)
!470 = !DIDerivedType(tag: DW_TAG_typedef, name: "__uint64_t", file: !421, line: 91, baseType: !344)
!471 = !DIImportedEntity(tag: DW_TAG_imported_declaration, scope: !5, entity: !472, line: 71)
!472 = !DIDerivedType(tag: DW_TAG_typedef, name: "uint_fast8_t", file: !434, line: 52, baseType: !40)
!473 = !DIImportedEntity(tag: DW_TAG_imported_declaration, scope: !5, entity: !474, line: 72)
!474 = !DIDerivedType(tag: DW_TAG_typedef, name: "uint_fast16_t", file: !434, line: 62, baseType: !464)
!475 = !DIImportedEntity(tag: DW_TAG_imported_declaration, scope: !5, entity: !476, line: 73)
!476 = !DIDerivedType(tag: DW_TAG_typedef, name: "uint_fast32_t", file: !434, line: 72, baseType: !155)
!477 = !DIImportedEntity(tag: DW_TAG_imported_declaration, scope: !5, entity: !478, line: 74)
!478 = !DIDerivedType(tag: DW_TAG_typedef, name: "uint_fast64_t", file: !434, line: 82, baseType: !344)
!479 = !DIImportedEntity(tag: DW_TAG_imported_declaration, scope: !5, entity: !480, line: 76)
!480 = !DIDerivedType(tag: DW_TAG_typedef, name: "uint_least8_t", file: !434, line: 22, baseType: !481)
!481 = !DIDerivedType(tag: DW_TAG_typedef, name: "__uint_least8_t", file: !421, line: 122, baseType: !40)
!482 = !DIImportedEntity(tag: DW_TAG_imported_declaration, scope: !5, entity: !483, line: 77)
!483 = !DIDerivedType(tag: DW_TAG_typedef, name: "uint_least16_t", file: !434, line: 28, baseType: !484)
!484 = !DIDerivedType(tag: DW_TAG_typedef, name: "__uint_least16_t", file: !421, line: 148, baseType: !464)
!485 = !DIImportedEntity(tag: DW_TAG_imported_declaration, scope: !5, entity: !486, line: 78)
!486 = !DIDerivedType(tag: DW_TAG_typedef, name: "uint_least32_t", file: !434, line: 34, baseType: !487)
!487 = !DIDerivedType(tag: DW_TAG_typedef, name: "__uint_least32_t", file: !421, line: 170, baseType: !155)
!488 = !DIImportedEntity(tag: DW_TAG_imported_declaration, scope: !5, entity: !489, line: 79)
!489 = !DIDerivedType(tag: DW_TAG_typedef, name: "uint_least64_t", file: !434, line: 40, baseType: !490)
!490 = !DIDerivedType(tag: DW_TAG_typedef, name: "__uint_least64_t", file: !421, line: 188, baseType: !344)
!491 = !DIImportedEntity(tag: DW_TAG_imported_declaration, scope: !5, entity: !492, line: 81)
!492 = !DIDerivedType(tag: DW_TAG_typedef, name: "uintmax_t", file: !434, line: 139, baseType: !344)
!493 = !DIImportedEntity(tag: DW_TAG_imported_declaration, scope: !5, entity: !494, line: 82)
!494 = !DIDerivedType(tag: DW_TAG_typedef, name: "uintptr_t", file: !419, line: 43, baseType: !495)
!495 = !DIDerivedType(tag: DW_TAG_typedef, name: "__uintptr_t", file: !421, line: 202, baseType: !288)
!496 = !DIImportedEntity(tag: DW_TAG_imported_declaration, scope: !5, entity: !497, line: 53)
!497 = !DICompositeType(tag: DW_TAG_structure_type, name: "lconv", file: !498, line: 25, size: 448, align: 32, flags: DIFlagFwdDecl, identifier: "_ZTS5lconv")
!498 = !DIFile(filename: "/tools/Xilinx/SDK/2018.3/gnu/aarch32/lin/gcc-arm-none-eabi/arm-none-eabi/libc/usr/include/locale.h", directory: "/home/bqpd/workspace_sdsoc/MiniZedMM/Debug")
!499 = !DIImportedEntity(tag: DW_TAG_imported_declaration, scope: !5, entity: !500, line: 54)
!500 = !DISubprogram(name: "setlocale", scope: !498, file: !498, line: 54, type: !501, isLocal: false, isDefinition: false, flags: DIFlagPrototyped, isOptimized: false)
!501 = !DISubroutineType(types: !502)
!502 = !{!78, !15, !84}
!503 = !DIImportedEntity(tag: DW_TAG_imported_declaration, scope: !5, entity: !504, line: 55)
!504 = !DISubprogram(name: "localeconv", scope: !498, file: !498, line: 55, type: !505, isLocal: false, isDefinition: false, flags: DIFlagPrototyped, isOptimized: false)
!505 = !DISubroutineType(types: !506)
!506 = !{!507}
!507 = !DIDerivedType(tag: DW_TAG_pointer_type, baseType: !497, size: 32, align: 32)
!508 = !DIImportedEntity(tag: DW_TAG_imported_declaration, scope: !5, entity: !509, line: 64)
!509 = !DISubprogram(name: "isalnum", scope: !510, file: !510, line: 9, type: !511, isLocal: false, isDefinition: false, flags: DIFlagPrototyped, isOptimized: false)
!510 = !DIFile(filename: "/tools/Xilinx/SDK/2018.3/gnu/aarch32/lin/gcc-arm-none-eabi/arm-none-eabi/libc/usr/include/ctype.h", directory: "/home/bqpd/workspace_sdsoc/MiniZedMM/Debug")
!511 = !DISubroutineType(types: !512)
!512 = !{!15, !15}
!513 = !DIImportedEntity(tag: DW_TAG_imported_declaration, scope: !5, entity: !514, line: 65)
!514 = !DISubprogram(name: "isalpha", scope: !510, file: !510, line: 10, type: !511, isLocal: false, isDefinition: false, flags: DIFlagPrototyped, isOptimized: false)
!515 = !DIImportedEntity(tag: DW_TAG_imported_declaration, scope: !5, entity: !516, line: 66)
!516 = !DISubprogram(name: "iscntrl", scope: !510, file: !510, line: 11, type: !511, isLocal: false, isDefinition: false, flags: DIFlagPrototyped, isOptimized: false)
!517 = !DIImportedEntity(tag: DW_TAG_imported_declaration, scope: !5, entity: !518, line: 67)
!518 = !DISubprogram(name: "isdigit", scope: !510, file: !510, line: 12, type: !511, isLocal: false, isDefinition: false, flags: DIFlagPrototyped, isOptimized: false)
!519 = !DIImportedEntity(tag: DW_TAG_imported_declaration, scope: !5, entity: !520, line: 68)
!520 = !DISubprogram(name: "isgraph", scope: !510, file: !510, line: 13, type: !511, isLocal: false, isDefinition: false, flags: DIFlagPrototyped, isOptimized: false)
!521 = !DIImportedEntity(tag: DW_TAG_imported_declaration, scope: !5, entity: !522, line: 69)
!522 = !DISubprogram(name: "islower", scope: !510, file: !510, line: 14, type: !511, isLocal: false, isDefinition: false, flags: DIFlagPrototyped, isOptimized: false)
!523 = !DIImportedEntity(tag: DW_TAG_imported_declaration, scope: !5, entity: !524, line: 70)
!524 = !DISubprogram(name: "isprint", scope: !510, file: !510, line: 15, type: !511, isLocal: false, isDefinition: false, flags: DIFlagPrototyped, isOptimized: false)
!525 = !DIImportedEntity(tag: DW_TAG_imported_declaration, scope: !5, entity: !526, line: 71)
!526 = !DISubprogram(name: "ispunct", scope: !510, file: !510, line: 16, type: !511, isLocal: false, isDefinition: false, flags: DIFlagPrototyped, isOptimized: false)
!527 = !DIImportedEntity(tag: DW_TAG_imported_declaration, scope: !5, entity: !528, line: 72)
!528 = !DISubprogram(name: "isspace", scope: !510, file: !510, line: 17, type: !511, isLocal: false, isDefinition: false, flags: DIFlagPrototyped, isOptimized: false)
!529 = !DIImportedEntity(tag: DW_TAG_imported_declaration, scope: !5, entity: !530, line: 73)
!530 = !DISubprogram(name: "isupper", scope: !510, file: !510, line: 18, type: !511, isLocal: false, isDefinition: false, flags: DIFlagPrototyped, isOptimized: false)
!531 = !DIImportedEntity(tag: DW_TAG_imported_declaration, scope: !5, entity: !532, line: 74)
!532 = !DISubprogram(name: "isxdigit", scope: !510, file: !510, line: 19, type: !511, isLocal: false, isDefinition: false, flags: DIFlagPrototyped, isOptimized: false)
!533 = !DIImportedEntity(tag: DW_TAG_imported_declaration, scope: !5, entity: !534, line: 75)
!534 = !DISubprogram(name: "tolower", scope: !510, file: !510, line: 20, type: !511, isLocal: false, isDefinition: false, flags: DIFlagPrototyped, isOptimized: false)
!535 = !DIImportedEntity(tag: DW_TAG_imported_declaration, scope: !5, entity: !536, line: 76)
!536 = !DISubprogram(name: "toupper", scope: !510, file: !510, line: 21, type: !511, isLocal: false, isDefinition: false, flags: DIFlagPrototyped, isOptimized: false)
!537 = !DIImportedEntity(tag: DW_TAG_imported_declaration, scope: !5, entity: !538, line: 87)
!538 = !DISubprogram(name: "isblank", scope: !510, file: !510, line: 24, type: !511, isLocal: false, isDefinition: false, flags: DIFlagPrototyped, isOptimized: false)
!539 = !DIImportedEntity(tag: DW_TAG_imported_declaration, scope: !330, entity: !540, line: 44)
!540 = !DIDerivedType(tag: DW_TAG_typedef, name: "size_t", scope: !5, file: !6, line: 231, baseType: !155)
!541 = !DIImportedEntity(tag: DW_TAG_imported_declaration, scope: !330, entity: !542, line: 45)
!542 = !DIDerivedType(tag: DW_TAG_typedef, name: "ptrdiff_t", scope: !5, file: !6, line: 232, baseType: !15)
!543 = !DIImportedEntity(tag: DW_TAG_imported_declaration, scope: !5, entity: !544, line: 52)
!544 = !DISubprogram(name: "abs", scope: !545, file: !545, line: 66, type: !511, isLocal: false, isDefinition: false, flags: DIFlagPrototyped, isOptimized: false)
!545 = !DIFile(filename: "/tools/Xilinx/SDK/2018.3/gnu/aarch32/lin/gcc-arm-none-eabi/arm-none-eabi/libc/usr/include/stdlib.h", directory: "/home/bqpd/workspace_sdsoc/MiniZedMM/Debug")
!546 = !DIImportedEntity(tag: DW_TAG_imported_declaration, scope: !5, entity: !547, line: 127)
!547 = !DIDerivedType(tag: DW_TAG_typedef, name: "div_t", file: !545, line: 35, baseType: !548)
!548 = !DICompositeType(tag: DW_TAG_structure_type, file: !545, line: 31, size: 64, align: 32, flags: DIFlagFwdDecl, identifier: "_ZTS5div_t")
!549 = !DIImportedEntity(tag: DW_TAG_imported_declaration, scope: !5, entity: !550, line: 128)
!550 = !DIDerivedType(tag: DW_TAG_typedef, name: "ldiv_t", file: !545, line: 41, baseType: !551)
!551 = distinct !DICompositeType(tag: DW_TAG_structure_type, file: !545, line: 37, size: 64, align: 32, elements: !552, identifier: "_ZTS6ldiv_t")
!552 = !{!553, !554}
!553 = !DIDerivedType(tag: DW_TAG_member, name: "quot", scope: !551, file: !545, line: 39, baseType: !91, size: 32, align: 32)
!554 = !DIDerivedType(tag: DW_TAG_member, name: "rem", scope: !551, file: !545, line: 40, baseType: !91, size: 32, align: 32, offset: 32)
!555 = !DIImportedEntity(tag: DW_TAG_imported_declaration, scope: !5, entity: !556, line: 130)
!556 = !DISubprogram(name: "abort", scope: !545, file: !545, line: 65, type: !557, isLocal: false, isDefinition: false, flags: DIFlagPrototyped, isOptimized: false)
!557 = !DISubroutineType(types: !558)
!558 = !{null}
!559 = !DIImportedEntity(tag: DW_TAG_imported_declaration, scope: !5, entity: !560, line: 134)
!560 = !DISubprogram(name: "atexit", scope: !545, file: !545, line: 72, type: !561, isLocal: false, isDefinition: false, flags: DIFlagPrototyped, isOptimized: false)
!561 = !DISubroutineType(types: !562)
!562 = !{!15, !563}
!563 = !DIDerivedType(tag: DW_TAG_pointer_type, baseType: !557, size: 32, align: 32)
!564 = !DIImportedEntity(tag: DW_TAG_imported_declaration, scope: !5, entity: !565, line: 140)
!565 = !DISubprogram(name: "atof", scope: !545, file: !545, line: 73, type: !566, isLocal: false, isDefinition: false, flags: DIFlagPrototyped, isOptimized: false)
!566 = !DISubroutineType(types: !567)
!567 = !{!269, !84}
!568 = !DIImportedEntity(tag: DW_TAG_imported_declaration, scope: !5, entity: !569, line: 141)
!569 = !DISubprogram(name: "atoi", scope: !545, file: !545, line: 77, type: !570, isLocal: false, isDefinition: false, flags: DIFlagPrototyped, isOptimized: false)
!570 = !DISubroutineType(types: !571)
!571 = !{!15, !84}
!572 = !DIImportedEntity(tag: DW_TAG_imported_declaration, scope: !5, entity: !573, line: 142)
!573 = !DISubprogram(name: "atol", scope: !545, file: !545, line: 79, type: !574, isLocal: false, isDefinition: false, flags: DIFlagPrototyped, isOptimized: false)
!574 = !DISubroutineType(types: !575)
!575 = !{!91, !84}
!576 = !DIImportedEntity(tag: DW_TAG_imported_declaration, scope: !5, entity: !577, line: 143)
!577 = !DISubprogram(name: "bsearch", scope: !545, file: !545, line: 81, type: !578, isLocal: false, isDefinition: false, flags: DIFlagPrototyped, isOptimized: false)
!578 = !DISubroutineType(types: !579)
!579 = !{!71, !580, !580, !154, !154, !582}
!580 = !DIDerivedType(tag: DW_TAG_pointer_type, baseType: !581, size: 32, align: 32)
!581 = !DIDerivedType(tag: DW_TAG_const_type, baseType: null)
!582 = !DIDerivedType(tag: DW_TAG_typedef, name: "__compar_fn_t", file: !545, line: 53, baseType: !583)
!583 = !DIDerivedType(tag: DW_TAG_pointer_type, baseType: !584, size: 32, align: 32)
!584 = !DISubroutineType(types: !585)
!585 = !{!15, !580, !580}
!586 = !DIImportedEntity(tag: DW_TAG_imported_declaration, scope: !5, entity: !587, line: 144)
!587 = !DISubprogram(name: "calloc", scope: !545, file: !545, line: 86, type: !588, isLocal: false, isDefinition: false, flags: DIFlagPrototyped, isOptimized: false)
!588 = !DISubroutineType(types: !589)
!589 = !{!71, !154, !154}
!590 = !DIImportedEntity(tag: DW_TAG_imported_declaration, scope: !5, entity: !591, line: 145)
!591 = !DISubprogram(name: "div", scope: !545, file: !545, line: 87, type: !592, isLocal: false, isDefinition: false, flags: DIFlagPrototyped, isOptimized: false)
!592 = !DISubroutineType(types: !593)
!593 = !{!547, !15, !15}
!594 = !DIImportedEntity(tag: DW_TAG_imported_declaration, scope: !5, entity: !595, line: 146)
!595 = !DISubprogram(name: "exit", scope: !545, file: !545, line: 88, type: !596, isLocal: false, isDefinition: false, flags: DIFlagPrototyped, isOptimized: false)
!596 = !DISubroutineType(types: !597)
!597 = !{null, !15}
!598 = !DIImportedEntity(tag: DW_TAG_imported_declaration, scope: !5, entity: !599, line: 147)
!599 = !DISubprogram(name: "free", scope: !545, file: !545, line: 89, type: !600, isLocal: false, isDefinition: false, flags: DIFlagPrototyped, isOptimized: false)
!600 = !DISubroutineType(types: !601)
!601 = !{null, !71}
!602 = !DIImportedEntity(tag: DW_TAG_imported_declaration, scope: !5, entity: !603, line: 148)
!603 = !DISubprogram(name: "getenv", scope: !545, file: !545, line: 90, type: !604, isLocal: false, isDefinition: false, flags: DIFlagPrototyped, isOptimized: false)
!604 = !DISubroutineType(types: !605)
!605 = !{!78, !84}
!606 = !DIImportedEntity(tag: DW_TAG_imported_declaration, scope: !5, entity: !607, line: 149)
!607 = !DISubprogram(name: "labs", scope: !545, file: !545, line: 98, type: !608, isLocal: false, isDefinition: false, flags: DIFlagPrototyped, isOptimized: false)
!608 = !DISubroutineType(types: !609)
!609 = !{!91, !91}
!610 = !DIImportedEntity(tag: DW_TAG_imported_declaration, scope: !5, entity: !611, line: 150)
!611 = !DISubprogram(name: "ldiv", scope: !545, file: !545, line: 99, type: !612, isLocal: false, isDefinition: false, flags: DIFlagPrototyped, isOptimized: false)
!612 = !DISubroutineType(types: !613)
!613 = !{!550, !91, !91}
!614 = !DIImportedEntity(tag: DW_TAG_imported_declaration, scope: !5, entity: !615, line: 151)
!615 = !DISubprogram(name: "malloc", scope: !545, file: !545, line: 100, type: !616, isLocal: false, isDefinition: false, flags: DIFlagPrototyped, isOptimized: false)
!616 = !DISubroutineType(types: !617)
!617 = !{!71, !154}
!618 = !DIImportedEntity(tag: DW_TAG_imported_declaration, scope: !5, entity: !619, line: 153)
!619 = !DISubprogram(name: "mblen", scope: !545, file: !545, line: 101, type: !620, isLocal: false, isDefinition: false, flags: DIFlagPrototyped, isOptimized: false)
!620 = !DISubroutineType(types: !621)
!621 = !{!15, !84, !154}
!622 = !DIImportedEntity(tag: DW_TAG_imported_declaration, scope: !5, entity: !623, line: 154)
!623 = !DISubprogram(name: "mbstowcs", scope: !545, file: !545, line: 107, type: !624, isLocal: false, isDefinition: false, flags: DIFlagPrototyped, isOptimized: false)
!624 = !DISubroutineType(types: !625)
!625 = !{!154, !122, !84, !154}
!626 = !DIImportedEntity(tag: DW_TAG_imported_declaration, scope: !5, entity: !627, line: 155)
!627 = !DISubprogram(name: "mbtowc", scope: !545, file: !545, line: 103, type: !628, isLocal: false, isDefinition: false, flags: DIFlagPrototyped, isOptimized: false)
!628 = !DISubroutineType(types: !629)
!629 = !{!15, !122, !84, !154}
!630 = !DIImportedEntity(tag: DW_TAG_imported_declaration, scope: !5, entity: !631, line: 157)
!631 = !DISubprogram(name: "qsort", scope: !545, file: !545, line: 135, type: !632, isLocal: false, isDefinition: false, flags: DIFlagPrototyped, isOptimized: false)
!632 = !DISubroutineType(types: !633)
!633 = !{null, !71, !154, !154, !582}
!634 = !DIImportedEntity(tag: DW_TAG_imported_declaration, scope: !5, entity: !635, line: 163)
!635 = !DISubprogram(name: "rand", scope: !545, file: !545, line: 136, type: !636, isLocal: false, isDefinition: false, flags: DIFlagPrototyped, isOptimized: false)
!636 = !DISubroutineType(types: !637)
!637 = !{!15}
!638 = !DIImportedEntity(tag: DW_TAG_imported_declaration, scope: !5, entity: !639, line: 164)
!639 = !DISubprogram(name: "realloc", scope: !545, file: !545, line: 137, type: !640, isLocal: false, isDefinition: false, flags: DIFlagPrototyped, isOptimized: false)
!640 = !DISubroutineType(types: !641)
!641 = !{!71, !71, !154}
!642 = !DIImportedEntity(tag: DW_TAG_imported_declaration, scope: !5, entity: !643, line: 165)
!643 = !DISubprogram(name: "srand", scope: !545, file: !545, line: 147, type: !644, isLocal: false, isDefinition: false, flags: DIFlagPrototyped, isOptimized: false)
!644 = !DISubroutineType(types: !645)
!645 = !{null, !155}
!646 = !DIImportedEntity(tag: DW_TAG_imported_declaration, scope: !5, entity: !647, line: 166)
!647 = !DISubprogram(name: "strtod", scope: !545, file: !545, line: 148, type: !648, isLocal: false, isDefinition: false, flags: DIFlagPrototyped, isOptimized: false)
!648 = !DISubroutineType(types: !649)
!649 = !{!269, !84, !650}
!650 = !DIDerivedType(tag: DW_TAG_pointer_type, baseType: !78, size: 32, align: 32)
!651 = !DIImportedEntity(tag: DW_TAG_imported_declaration, scope: !5, entity: !652, line: 167)
!652 = !DISubprogram(name: "strtol", scope: !545, file: !545, line: 159, type: !653, isLocal: false, isDefinition: false, flags: DIFlagPrototyped, isOptimized: false)
!653 = !DISubroutineType(types: !654)
!654 = !{!91, !84, !650, !15}
!655 = !DIImportedEntity(tag: DW_TAG_imported_declaration, scope: !5, entity: !656, line: 168)
!656 = !DISubprogram(name: "strtoul", scope: !545, file: !545, line: 161, type: !657, isLocal: false, isDefinition: false, flags: DIFlagPrototyped, isOptimized: false)
!657 = !DISubroutineType(types: !658)
!658 = !{!288, !84, !650, !15}
!659 = !DIImportedEntity(tag: DW_TAG_imported_declaration, scope: !5, entity: !660, line: 169)
!660 = !DISubprogram(name: "system", scope: !545, file: !545, line: 164, type: !570, isLocal: false, isDefinition: false, flags: DIFlagPrototyped, isOptimized: false)
!661 = !DIImportedEntity(tag: DW_TAG_imported_declaration, scope: !5, entity: !662, line: 171)
!662 = !DISubprogram(name: "wcstombs", scope: !545, file: !545, line: 109, type: !663, isLocal: false, isDefinition: false, flags: DIFlagPrototyped, isOptimized: false)
!663 = !DISubroutineType(types: !664)
!664 = !{!154, !78, !132, !154}
!665 = !DIImportedEntity(tag: DW_TAG_imported_declaration, scope: !5, entity: !666, line: 172)
!666 = !DISubprogram(name: "wctomb", scope: !545, file: !545, line: 105, type: !667, isLocal: false, isDefinition: false, flags: DIFlagPrototyped, isOptimized: false)
!667 = !DISubroutineType(types: !668)
!668 = !{!15, !78, !123}
!669 = !DIImportedEntity(tag: DW_TAG_imported_declaration, scope: !330, entity: !670, line: 200)
!670 = !DIDerivedType(tag: DW_TAG_typedef, name: "lldiv_t", file: !545, line: 48, baseType: !671)
!671 = distinct !DICompositeType(tag: DW_TAG_structure_type, file: !545, line: 44, size: 128, align: 64, elements: !672, identifier: "_ZTS7lldiv_t")
!672 = !{!673, !674}
!673 = !DIDerivedType(tag: DW_TAG_member, name: "quot", scope: !671, file: !545, line: 46, baseType: !339, size: 64, align: 64)
!674 = !DIDerivedType(tag: DW_TAG_member, name: "rem", scope: !671, file: !545, line: 47, baseType: !339, size: 64, align: 64, offset: 64)
!675 = !DIImportedEntity(tag: DW_TAG_imported_declaration, scope: !330, entity: !676, line: 206)
!676 = !DISubprogram(name: "_Exit", scope: !545, file: !545, line: 175, type: !596, isLocal: false, isDefinition: false, flags: DIFlagPrototyped, isOptimized: false)
!677 = !DIImportedEntity(tag: DW_TAG_imported_declaration, scope: !330, entity: !678, line: 210)
!678 = !DISubprogram(name: "llabs", scope: !545, file: !545, line: 240, type: !679, isLocal: false, isDefinition: false, flags: DIFlagPrototyped, isOptimized: false)
!679 = !DISubroutineType(types: !680)
!680 = !{!339, !339}
!681 = !DIImportedEntity(tag: DW_TAG_imported_declaration, scope: !330, entity: !682, line: 216)
!682 = !DISubprogram(name: "lldiv", scope: !545, file: !545, line: 241, type: !683, isLocal: false, isDefinition: false, flags: DIFlagPrototyped, isOptimized: false)
!683 = !DISubroutineType(types: !684)
!684 = !{!670, !339, !339}
!685 = !DIImportedEntity(tag: DW_TAG_imported_declaration, scope: !330, entity: !686, line: 227)
!686 = !DISubprogram(name: "atoll", scope: !545, file: !545, line: 236, type: !687, isLocal: false, isDefinition: false, flags: DIFlagPrototyped, isOptimized: false)
!687 = !DISubroutineType(types: !688)
!688 = !{!339, !84}
!689 = !DIImportedEntity(tag: DW_TAG_imported_declaration, scope: !330, entity: !690, line: 228)
!690 = !DISubprogram(name: "strtoll", scope: !545, file: !545, line: 242, type: !691, isLocal: false, isDefinition: false, flags: DIFlagPrototyped, isOptimized: false)
!691 = !DISubroutineType(types: !692)
!692 = !{!339, !84, !650, !15}
!693 = !DIImportedEntity(tag: DW_TAG_imported_declaration, scope: !330, entity: !694, line: 229)
!694 = !DISubprogram(name: "strtoull", scope: !545, file: !545, line: 246, type: !695, isLocal: false, isDefinition: false, flags: DIFlagPrototyped, isOptimized: false)
!695 = !DISubroutineType(types: !696)
!696 = !{!344, !84, !650, !15}
!697 = !DIImportedEntity(tag: DW_TAG_imported_declaration, scope: !330, entity: !698, line: 231)
!698 = !DISubprogram(name: "strtof", scope: !545, file: !545, line: 151, type: !699, isLocal: false, isDefinition: false, flags: DIFlagPrototyped, isOptimized: false)
!699 = !DISubroutineType(types: !700)
!700 = !{!275, !84, !650}
!701 = !DIImportedEntity(tag: DW_TAG_imported_declaration, scope: !330, entity: !702, line: 232)
!702 = !DISubprogram(name: "strtold", scope: !545, file: !545, line: 296, type: !703, isLocal: false, isDefinition: false, flags: DIFlagPrototyped, isOptimized: false)
!703 = !DISubroutineType(types: !704)
!704 = !{!334, !84, !650}
!705 = !DIImportedEntity(tag: DW_TAG_imported_declaration, scope: !5, entity: !670, line: 240)
!706 = !DIImportedEntity(tag: DW_TAG_imported_declaration, scope: !5, entity: !676, line: 242)
!707 = !DIImportedEntity(tag: DW_TAG_imported_declaration, scope: !5, entity: !678, line: 244)
!708 = !DIImportedEntity(tag: DW_TAG_imported_declaration, scope: !5, entity: !709, line: 245)
!709 = !DISubprogram(name: "div", linkageName: "_ZN9__gnu_cxx3divExx", scope: !330, file: !710, line: 213, type: !683, isLocal: false, isDefinition: false, flags: DIFlagPrototyped, isOptimized: false)
!710 = !DIFile(filename: "/tools/Xilinx/SDK/2018.3/gnu/aarch32/lin/gcc-arm-none-eabi/arm-none-eabi/include/c++/7.3.1/cstdlib", directory: "/home/bqpd/workspace_sdsoc/MiniZedMM/Debug")
!711 = !DIImportedEntity(tag: DW_TAG_imported_declaration, scope: !5, entity: !682, line: 246)
!712 = !DIImportedEntity(tag: DW_TAG_imported_declaration, scope: !5, entity: !686, line: 248)
!713 = !DIImportedEntity(tag: DW_TAG_imported_declaration, scope: !5, entity: !698, line: 249)
!714 = !DIImportedEntity(tag: DW_TAG_imported_declaration, scope: !5, entity: !690, line: 250)
!715 = !DIImportedEntity(tag: DW_TAG_imported_declaration, scope: !5, entity: !694, line: 251)
!716 = !DIImportedEntity(tag: DW_TAG_imported_declaration, scope: !5, entity: !702, line: 252)
!717 = !DIImportedEntity(tag: DW_TAG_imported_declaration, scope: !5, entity: !718, line: 98)
!718 = !DIDerivedType(tag: DW_TAG_typedef, name: "FILE", file: !26, line: 53, baseType: !53)
!719 = !DIImportedEntity(tag: DW_TAG_imported_declaration, scope: !5, entity: !720, line: 99)
!720 = !DIDerivedType(tag: DW_TAG_typedef, name: "fpos_t", file: !721, line: 60, baseType: !90)
!721 = !DIFile(filename: "/tools/Xilinx/SDK/2018.3/gnu/aarch32/lin/gcc-arm-none-eabi/arm-none-eabi/libc/usr/include/stdio.h", directory: "/home/bqpd/workspace_sdsoc/MiniZedMM/Debug")
!722 = !DIImportedEntity(tag: DW_TAG_imported_declaration, scope: !5, entity: !723, line: 101)
!723 = !DISubprogram(name: "clearerr", scope: !721, file: !721, line: 219, type: !724, isLocal: false, isDefinition: false, flags: DIFlagPrototyped, isOptimized: false)
!724 = !DISubroutineType(types: !725)
!725 = !{null, !726}
!726 = !DIDerivedType(tag: DW_TAG_pointer_type, baseType: !718, size: 32, align: 32)
!727 = !DIImportedEntity(tag: DW_TAG_imported_declaration, scope: !5, entity: !728, line: 102)
!728 = !DISubprogram(name: "fclose", scope: !721, file: !721, line: 172, type: !729, isLocal: false, isDefinition: false, flags: DIFlagPrototyped, isOptimized: false)
!729 = !DISubroutineType(types: !730)
!730 = !{!15, !726}
!731 = !DIImportedEntity(tag: DW_TAG_imported_declaration, scope: !5, entity: !732, line: 103)
!732 = !DISubprogram(name: "feof", scope: !721, file: !721, line: 220, type: !729, isLocal: false, isDefinition: false, flags: DIFlagPrototyped, isOptimized: false)
!733 = !DIImportedEntity(tag: DW_TAG_imported_declaration, scope: !5, entity: !734, line: 104)
!734 = !DISubprogram(name: "ferror", scope: !721, file: !721, line: 221, type: !729, isLocal: false, isDefinition: false, flags: DIFlagPrototyped, isOptimized: false)
!735 = !DIImportedEntity(tag: DW_TAG_imported_declaration, scope: !5, entity: !736, line: 105)
!736 = !DISubprogram(name: "fflush", scope: !721, file: !721, line: 173, type: !729, isLocal: false, isDefinition: false, flags: DIFlagPrototyped, isOptimized: false)
!737 = !DIImportedEntity(tag: DW_TAG_imported_declaration, scope: !5, entity: !738, line: 106)
!738 = !DISubprogram(name: "fgetc", scope: !721, file: !721, line: 193, type: !729, isLocal: false, isDefinition: false, flags: DIFlagPrototyped, isOptimized: false)
!739 = !DIImportedEntity(tag: DW_TAG_imported_declaration, scope: !5, entity: !740, line: 107)
!740 = !DISubprogram(name: "fgetpos", scope: !721, file: !721, line: 209, type: !741, isLocal: false, isDefinition: false, flags: DIFlagPrototyped, isOptimized: false)
!741 = !DISubroutineType(types: !742)
!742 = !{!15, !726, !743}
!743 = !DIDerivedType(tag: DW_TAG_pointer_type, baseType: !720, size: 32, align: 32)
!744 = !DIImportedEntity(tag: DW_TAG_imported_declaration, scope: !5, entity: !745, line: 108)
!745 = !DISubprogram(name: "fgets", scope: !721, file: !721, line: 194, type: !746, isLocal: false, isDefinition: false, flags: DIFlagPrototyped, isOptimized: false)
!746 = !DISubroutineType(types: !747)
!747 = !{!78, !78, !15, !726}
!748 = !DIImportedEntity(tag: DW_TAG_imported_declaration, scope: !5, entity: !749, line: 109)
!749 = !DISubprogram(name: "fopen", scope: !721, file: !721, line: 224, type: !750, isLocal: false, isDefinition: false, flags: DIFlagPrototyped, isOptimized: false)
!750 = !DISubroutineType(types: !751)
!751 = !{!726, !84, !84}
!752 = !DIImportedEntity(tag: DW_TAG_imported_declaration, scope: !5, entity: !753, line: 110)
!753 = !DISubprogram(name: "fprintf", scope: !721, file: !721, line: 177, type: !754, isLocal: false, isDefinition: false, flags: DIFlagPrototyped, isOptimized: false)
!754 = !DISubroutineType(types: !755)
!755 = !{!15, !726, !84, null}
!756 = !DIImportedEntity(tag: DW_TAG_imported_declaration, scope: !5, entity: !757, line: 111)
!757 = !DISubprogram(name: "fputc", scope: !721, file: !721, line: 195, type: !758, isLocal: false, isDefinition: false, flags: DIFlagPrototyped, isOptimized: false)
!758 = !DISubroutineType(types: !759)
!759 = !{!15, !15, !726}
!760 = !DIImportedEntity(tag: DW_TAG_imported_declaration, scope: !5, entity: !761, line: 112)
!761 = !DISubprogram(name: "fputs", scope: !721, file: !721, line: 196, type: !762, isLocal: false, isDefinition: false, flags: DIFlagPrototyped, isOptimized: false)
!762 = !DISubroutineType(types: !763)
!763 = !{!15, !84, !726}
!764 = !DIImportedEntity(tag: DW_TAG_imported_declaration, scope: !5, entity: !765, line: 113)
!765 = !DISubprogram(name: "fread", scope: !721, file: !721, line: 204, type: !766, isLocal: false, isDefinition: false, flags: DIFlagPrototyped, isOptimized: false)
!766 = !DISubroutineType(types: !767)
!767 = !{!154, !71, !154, !154, !726}
!768 = !DIImportedEntity(tag: DW_TAG_imported_declaration, scope: !5, entity: !769, line: 114)
!769 = !DISubprogram(name: "freopen", scope: !721, file: !721, line: 174, type: !770, isLocal: false, isDefinition: false, flags: DIFlagPrototyped, isOptimized: false)
!770 = !DISubroutineType(types: !771)
!771 = !{!726, !84, !84, !726}
!772 = !DIImportedEntity(tag: DW_TAG_imported_declaration, scope: !5, entity: !773, line: 115)
!773 = !DISubprogram(name: "fscanf", scope: !721, file: !721, line: 179, type: !754, isLocal: false, isDefinition: false, flags: DIFlagPrototyped, isOptimized: false)
!774 = !DIImportedEntity(tag: DW_TAG_imported_declaration, scope: !5, entity: !775, line: 116)
!775 = !DISubprogram(name: "fseek", scope: !721, file: !721, line: 211, type: !776, isLocal: false, isDefinition: false, flags: DIFlagPrototyped, isOptimized: false)
!776 = !DISubroutineType(types: !777)
!777 = !{!15, !726, !91, !15}
!778 = !DIImportedEntity(tag: DW_TAG_imported_declaration, scope: !5, entity: !779, line: 117)
!779 = !DISubprogram(name: "fsetpos", scope: !721, file: !721, line: 215, type: !780, isLocal: false, isDefinition: false, flags: DIFlagPrototyped, isOptimized: false)
!780 = !DISubroutineType(types: !781)
!781 = !{!15, !726, !782}
!782 = !DIDerivedType(tag: DW_TAG_pointer_type, baseType: !783, size: 32, align: 32)
!783 = !DIDerivedType(tag: DW_TAG_const_type, baseType: !720)
!784 = !DIImportedEntity(tag: DW_TAG_imported_declaration, scope: !5, entity: !785, line: 118)
!785 = !DISubprogram(name: "ftell", scope: !721, file: !721, line: 217, type: !786, isLocal: false, isDefinition: false, flags: DIFlagPrototyped, isOptimized: false)
!786 = !DISubroutineType(types: !787)
!787 = !{!91, !726}
!788 = !DIImportedEntity(tag: DW_TAG_imported_declaration, scope: !5, entity: !789, line: 119)
!789 = !DISubprogram(name: "fwrite", scope: !721, file: !721, line: 205, type: !790, isLocal: false, isDefinition: false, flags: DIFlagPrototyped, isOptimized: false)
!790 = !DISubroutineType(types: !791)
!791 = !{!154, !580, !154, !154, !726}
!792 = !DIImportedEntity(tag: DW_TAG_imported_declaration, scope: !5, entity: !793, line: 120)
!793 = !DISubprogram(name: "getc", scope: !721, file: !721, line: 197, type: !729, isLocal: false, isDefinition: false, flags: DIFlagPrototyped, isOptimized: false)
!794 = !DIImportedEntity(tag: DW_TAG_imported_declaration, scope: !5, entity: !795, line: 121)
!795 = !DISubprogram(name: "getchar", scope: !721, file: !721, line: 198, type: !636, isLocal: false, isDefinition: false, flags: DIFlagPrototyped, isOptimized: false)
!796 = !DIImportedEntity(tag: DW_TAG_imported_declaration, scope: !5, entity: !797, line: 124)
!797 = !DISubprogram(name: "gets", scope: !721, file: !721, line: 199, type: !798, isLocal: false, isDefinition: false, flags: DIFlagPrototyped, isOptimized: false)
!798 = !DISubroutineType(types: !799)
!799 = !{!78, !78}
!800 = !DIImportedEntity(tag: DW_TAG_imported_declaration, scope: !5, entity: !801, line: 126)
!801 = !DISubprogram(name: "perror", scope: !721, file: !721, line: 222, type: !802, isLocal: false, isDefinition: false, flags: DIFlagPrototyped, isOptimized: false)
!802 = !DISubroutineType(types: !803)
!803 = !{null, !84}
!804 = !DIImportedEntity(tag: DW_TAG_imported_declaration, scope: !5, entity: !805, line: 127)
!805 = !DISubprogram(name: "printf", scope: !721, file: !721, line: 181, type: !806, isLocal: false, isDefinition: false, flags: DIFlagPrototyped, isOptimized: false)
!806 = !DISubroutineType(types: !807)
!807 = !{!15, !84, null}
!808 = !DIImportedEntity(tag: DW_TAG_imported_declaration, scope: !5, entity: !809, line: 128)
!809 = !DISubprogram(name: "putc", scope: !721, file: !721, line: 200, type: !758, isLocal: false, isDefinition: false, flags: DIFlagPrototyped, isOptimized: false)
!810 = !DIImportedEntity(tag: DW_TAG_imported_declaration, scope: !5, entity: !811, line: 129)
!811 = !DISubprogram(name: "putchar", scope: !721, file: !721, line: 201, type: !511, isLocal: false, isDefinition: false, flags: DIFlagPrototyped, isOptimized: false)
!812 = !DIImportedEntity(tag: DW_TAG_imported_declaration, scope: !5, entity: !813, line: 130)
!813 = !DISubprogram(name: "puts", scope: !721, file: !721, line: 202, type: !570, isLocal: false, isDefinition: false, flags: DIFlagPrototyped, isOptimized: false)
!814 = !DIImportedEntity(tag: DW_TAG_imported_declaration, scope: !5, entity: !815, line: 131)
!815 = !DISubprogram(name: "remove", scope: !721, file: !721, line: 227, type: !570, isLocal: false, isDefinition: false, flags: DIFlagPrototyped, isOptimized: false)
!816 = !DIImportedEntity(tag: DW_TAG_imported_declaration, scope: !5, entity: !817, line: 132)
!817 = !DISubprogram(name: "rename", scope: !721, file: !721, line: 228, type: !818, isLocal: false, isDefinition: false, flags: DIFlagPrototyped, isOptimized: false)
!818 = !DISubroutineType(types: !819)
!819 = !{!15, !84, !84}
!820 = !DIImportedEntity(tag: DW_TAG_imported_declaration, scope: !5, entity: !821, line: 133)
!821 = !DISubprogram(name: "rewind", scope: !721, file: !721, line: 218, type: !724, isLocal: false, isDefinition: false, flags: DIFlagPrototyped, isOptimized: false)
!822 = !DIImportedEntity(tag: DW_TAG_imported_declaration, scope: !5, entity: !823, line: 134)
!823 = !DISubprogram(name: "scanf", scope: !721, file: !721, line: 183, type: !806, isLocal: false, isDefinition: false, flags: DIFlagPrototyped, isOptimized: false)
!824 = !DIImportedEntity(tag: DW_TAG_imported_declaration, scope: !5, entity: !825, line: 135)
!825 = !DISubprogram(name: "setbuf", scope: !721, file: !721, line: 175, type: !826, isLocal: false, isDefinition: false, flags: DIFlagPrototyped, isOptimized: false)
!826 = !DISubroutineType(types: !827)
!827 = !{null, !726, !78}
!828 = !DIImportedEntity(tag: DW_TAG_imported_declaration, scope: !5, entity: !829, line: 136)
!829 = !DISubprogram(name: "setvbuf", scope: !721, file: !721, line: 176, type: !830, isLocal: false, isDefinition: false, flags: DIFlagPrototyped, isOptimized: false)
!830 = !DISubroutineType(types: !831)
!831 = !{!15, !726, !78, !15, !154}
!832 = !DIImportedEntity(tag: DW_TAG_imported_declaration, scope: !5, entity: !833, line: 137)
!833 = !DISubprogram(name: "sprintf", scope: !721, file: !721, line: 225, type: !834, isLocal: false, isDefinition: false, flags: DIFlagPrototyped, isOptimized: false)
!834 = !DISubroutineType(types: !835)
!835 = !{!15, !78, !84, null}
!836 = !DIImportedEntity(tag: DW_TAG_imported_declaration, scope: !5, entity: !837, line: 138)
!837 = !DISubprogram(name: "sscanf", scope: !721, file: !721, line: 185, type: !838, isLocal: false, isDefinition: false, flags: DIFlagPrototyped, isOptimized: false)
!838 = !DISubroutineType(types: !839)
!839 = !{!15, !84, !84, null}
!840 = !DIImportedEntity(tag: DW_TAG_imported_declaration, scope: !5, entity: !841, line: 139)
!841 = !DISubprogram(name: "tmpfile", scope: !721, file: !721, line: 167, type: !842, isLocal: false, isDefinition: false, flags: DIFlagPrototyped, isOptimized: false)
!842 = !DISubroutineType(types: !843)
!843 = !{!726}
!844 = !DIImportedEntity(tag: DW_TAG_imported_declaration, scope: !5, entity: !845, line: 141)
!845 = !DISubprogram(name: "tmpnam", scope: !721, file: !721, line: 168, type: !798, isLocal: false, isDefinition: false, flags: DIFlagPrototyped, isOptimized: false)
!846 = !DIImportedEntity(tag: DW_TAG_imported_declaration, scope: !5, entity: !847, line: 143)
!847 = !DISubprogram(name: "ungetc", scope: !721, file: !721, line: 203, type: !758, isLocal: false, isDefinition: false, flags: DIFlagPrototyped, isOptimized: false)
!848 = !DIImportedEntity(tag: DW_TAG_imported_declaration, scope: !5, entity: !849, line: 144)
!849 = !DISubprogram(name: "vfprintf", scope: !721, file: !721, line: 187, type: !850, isLocal: false, isDefinition: false, flags: DIFlagPrototyped, isOptimized: false)
!850 = !DISubroutineType(types: !851)
!851 = !{!15, !726, !84, !194}
!852 = !DIImportedEntity(tag: DW_TAG_imported_declaration, scope: !5, entity: !853, line: 145)
!853 = !DISubprogram(name: "vprintf", scope: !721, file: !721, line: 189, type: !854, isLocal: false, isDefinition: false, flags: DIFlagPrototyped, isOptimized: false)
!854 = !DISubroutineType(types: !855)
!855 = !{!15, !84, !194}
!856 = !DIImportedEntity(tag: DW_TAG_imported_declaration, scope: !5, entity: !857, line: 146)
!857 = !DISubprogram(name: "vsprintf", scope: !721, file: !721, line: 191, type: !858, isLocal: false, isDefinition: false, flags: DIFlagPrototyped, isOptimized: false)
!858 = !DISubroutineType(types: !859)
!859 = !{!15, !78, !84, !194}
!860 = !DIImportedEntity(tag: DW_TAG_imported_declaration, scope: !330, entity: !861, line: 175)
!861 = !DISubprogram(name: "snprintf", scope: !721, file: !721, line: 247, type: !862, isLocal: false, isDefinition: false, flags: DIFlagPrototyped, isOptimized: false)
!862 = !DISubroutineType(types: !863)
!863 = !{!15, !78, !154, !84, null}
!864 = !DIImportedEntity(tag: DW_TAG_imported_declaration, scope: !330, entity: !865, line: 176)
!865 = !DISubprogram(name: "vfscanf", scope: !721, file: !721, line: 251, type: !850, isLocal: false, isDefinition: false, flags: DIFlagPrototyped, isOptimized: false)
!866 = !DIImportedEntity(tag: DW_TAG_imported_declaration, scope: !330, entity: !867, line: 177)
!867 = !DISubprogram(name: "vscanf", scope: !721, file: !721, line: 253, type: !854, isLocal: false, isDefinition: false, flags: DIFlagPrototyped, isOptimized: false)
!868 = !DIImportedEntity(tag: DW_TAG_imported_declaration, scope: !330, entity: !869, line: 178)
!869 = !DISubprogram(name: "vsnprintf", scope: !721, file: !721, line: 249, type: !870, isLocal: false, isDefinition: false, flags: DIFlagPrototyped, isOptimized: false)
!870 = !DISubroutineType(types: !871)
!871 = !{!15, !78, !154, !84, !194}
!872 = !DIImportedEntity(tag: DW_TAG_imported_declaration, scope: !330, entity: !873, line: 179)
!873 = !DISubprogram(name: "vsscanf", scope: !721, file: !721, line: 255, type: !874, isLocal: false, isDefinition: false, flags: DIFlagPrototyped, isOptimized: false)
!874 = !DISubroutineType(types: !875)
!875 = !{!15, !84, !84, !194}
!876 = !DIImportedEntity(tag: DW_TAG_imported_declaration, scope: !5, entity: !861, line: 185)
!877 = !DIImportedEntity(tag: DW_TAG_imported_declaration, scope: !5, entity: !865, line: 186)
!878 = !DIImportedEntity(tag: DW_TAG_imported_declaration, scope: !5, entity: !867, line: 187)
!879 = !DIImportedEntity(tag: DW_TAG_imported_declaration, scope: !5, entity: !869, line: 188)
!880 = !DIImportedEntity(tag: DW_TAG_imported_declaration, scope: !5, entity: !873, line: 189)
!881 = !DIImportedEntity(tag: DW_TAG_imported_declaration, scope: !5, entity: !882, line: 82)
!882 = !DIDerivedType(tag: DW_TAG_typedef, name: "wctrans_t", file: !883, line: 23, baseType: !15)
!883 = !DIFile(filename: "/tools/Xilinx/SDK/2018.3/gnu/aarch32/lin/gcc-arm-none-eabi/arm-none-eabi/libc/usr/include/wctype.h", directory: "/home/bqpd/workspace_sdsoc/MiniZedMM/Debug")
!884 = !DIImportedEntity(tag: DW_TAG_imported_declaration, scope: !5, entity: !885, line: 83)
!885 = !DIDerivedType(tag: DW_TAG_typedef, name: "wctype_t", file: !883, line: 18, baseType: !15)
!886 = !DIImportedEntity(tag: DW_TAG_imported_declaration, scope: !5, entity: !36, line: 84)
!887 = !DIImportedEntity(tag: DW_TAG_imported_declaration, scope: !5, entity: !888, line: 86)
!888 = !DISubprogram(name: "iswalnum", scope: !883, file: !883, line: 27, type: !295, isLocal: false, isDefinition: false, flags: DIFlagPrototyped, isOptimized: false)
!889 = !DIImportedEntity(tag: DW_TAG_imported_declaration, scope: !5, entity: !890, line: 87)
!890 = !DISubprogram(name: "iswalpha", scope: !883, file: !883, line: 26, type: !295, isLocal: false, isDefinition: false, flags: DIFlagPrototyped, isOptimized: false)
!891 = !DIImportedEntity(tag: DW_TAG_imported_declaration, scope: !5, entity: !892, line: 89)
!892 = !DISubprogram(name: "iswblank", scope: !883, file: !883, line: 28, type: !295, isLocal: false, isDefinition: false, flags: DIFlagPrototyped, isOptimized: false)
!893 = !DIImportedEntity(tag: DW_TAG_imported_declaration, scope: !5, entity: !894, line: 91)
!894 = !DISubprogram(name: "iswcntrl", scope: !883, file: !883, line: 29, type: !295, isLocal: false, isDefinition: false, flags: DIFlagPrototyped, isOptimized: false)
!895 = !DIImportedEntity(tag: DW_TAG_imported_declaration, scope: !5, entity: !896, line: 92)
!896 = !DISubprogram(name: "iswctype", scope: !883, file: !883, line: 30, type: !897, isLocal: false, isDefinition: false, flags: DIFlagPrototyped, isOptimized: false)
!897 = !DISubroutineType(types: !898)
!898 = !{!15, !36, !885}
!899 = !DIImportedEntity(tag: DW_TAG_imported_declaration, scope: !5, entity: !900, line: 93)
!900 = !DISubprogram(name: "iswdigit", scope: !883, file: !883, line: 31, type: !295, isLocal: false, isDefinition: false, flags: DIFlagPrototyped, isOptimized: false)
!901 = !DIImportedEntity(tag: DW_TAG_imported_declaration, scope: !5, entity: !902, line: 94)
!902 = !DISubprogram(name: "iswgraph", scope: !883, file: !883, line: 32, type: !295, isLocal: false, isDefinition: false, flags: DIFlagPrototyped, isOptimized: false)
!903 = !DIImportedEntity(tag: DW_TAG_imported_declaration, scope: !5, entity: !904, line: 95)
!904 = !DISubprogram(name: "iswlower", scope: !883, file: !883, line: 33, type: !295, isLocal: false, isDefinition: false, flags: DIFlagPrototyped, isOptimized: false)
!905 = !DIImportedEntity(tag: DW_TAG_imported_declaration, scope: !5, entity: !906, line: 96)
!906 = !DISubprogram(name: "iswprint", scope: !883, file: !883, line: 34, type: !295, isLocal: false, isDefinition: false, flags: DIFlagPrototyped, isOptimized: false)
!907 = !DIImportedEntity(tag: DW_TAG_imported_declaration, scope: !5, entity: !908, line: 97)
!908 = !DISubprogram(name: "iswpunct", scope: !883, file: !883, line: 35, type: !295, isLocal: false, isDefinition: false, flags: DIFlagPrototyped, isOptimized: false)
!909 = !DIImportedEntity(tag: DW_TAG_imported_declaration, scope: !5, entity: !910, line: 98)
!910 = !DISubprogram(name: "iswspace", scope: !883, file: !883, line: 36, type: !295, isLocal: false, isDefinition: false, flags: DIFlagPrototyped, isOptimized: false)
!911 = !DIImportedEntity(tag: DW_TAG_imported_declaration, scope: !5, entity: !912, line: 99)
!912 = !DISubprogram(name: "iswupper", scope: !883, file: !883, line: 37, type: !295, isLocal: false, isDefinition: false, flags: DIFlagPrototyped, isOptimized: false)
!913 = !DIImportedEntity(tag: DW_TAG_imported_declaration, scope: !5, entity: !914, line: 100)
!914 = !DISubprogram(name: "iswxdigit", scope: !883, file: !883, line: 38, type: !295, isLocal: false, isDefinition: false, flags: DIFlagPrototyped, isOptimized: false)
!915 = !DIImportedEntity(tag: DW_TAG_imported_declaration, scope: !5, entity: !916, line: 101)
!916 = !DISubprogram(name: "towctrans", scope: !883, file: !883, line: 39, type: !917, isLocal: false, isDefinition: false, flags: DIFlagPrototyped, isOptimized: false)
!917 = !DISubroutineType(types: !918)
!918 = !{!36, !36, !882}
!919 = !DIImportedEntity(tag: DW_TAG_imported_declaration, scope: !5, entity: !920, line: 102)
!920 = !DISubprogram(name: "towlower", scope: !883, file: !883, line: 41, type: !921, isLocal: false, isDefinition: false, flags: DIFlagPrototyped, isOptimized: false)
!921 = !DISubroutineType(types: !922)
!922 = !{!36, !36}
!923 = !DIImportedEntity(tag: DW_TAG_imported_declaration, scope: !5, entity: !924, line: 103)
!924 = !DISubprogram(name: "towupper", scope: !883, file: !883, line: 40, type: !921, isLocal: false, isDefinition: false, flags: DIFlagPrototyped, isOptimized: false)
!925 = !DIImportedEntity(tag: DW_TAG_imported_declaration, scope: !5, entity: !926, line: 104)
!926 = !DISubprogram(name: "wctrans", scope: !883, file: !883, line: 42, type: !927, isLocal: false, isDefinition: false, flags: DIFlagPrototyped, isOptimized: false)
!927 = !DISubroutineType(types: !928)
!928 = !{!882, !84}
!929 = !DIImportedEntity(tag: DW_TAG_imported_declaration, scope: !5, entity: !930, line: 105)
!930 = !DISubprogram(name: "wctype", scope: !883, file: !883, line: 43, type: !931, isLocal: false, isDefinition: false, flags: DIFlagPrototyped, isOptimized: false)
!931 = !DISubroutineType(types: !932)
!932 = !{!885, !84}
!933 = !DIImportedEntity(tag: DW_TAG_imported_declaration, scope: !5, entity: !934, line: 83)
!934 = !DISubprogram(name: "acos", scope: !935, file: !935, line: 125, type: !936, isLocal: false, isDefinition: false, flags: DIFlagPrototyped, isOptimized: false)
!935 = !DIFile(filename: "/tools/Xilinx/SDK/2018.3/gnu/aarch32/lin/gcc-arm-none-eabi/arm-none-eabi/libc/usr/include/math.h", directory: "/home/bqpd/workspace_sdsoc/MiniZedMM/Debug")
!936 = !DISubroutineType(types: !937)
!937 = !{!269, !269}
!938 = !DIImportedEntity(tag: DW_TAG_imported_declaration, scope: !5, entity: !939, line: 102)
!939 = !DISubprogram(name: "asin", scope: !935, file: !935, line: 126, type: !936, isLocal: false, isDefinition: false, flags: DIFlagPrototyped, isOptimized: false)
!940 = !DIImportedEntity(tag: DW_TAG_imported_declaration, scope: !5, entity: !941, line: 121)
!941 = !DISubprogram(name: "atan", scope: !935, file: !935, line: 109, type: !936, isLocal: false, isDefinition: false, flags: DIFlagPrototyped, isOptimized: false)
!942 = !DIImportedEntity(tag: DW_TAG_imported_declaration, scope: !5, entity: !943, line: 140)
!943 = !DISubprogram(name: "atan2", scope: !935, file: !935, line: 127, type: !944, isLocal: false, isDefinition: false, flags: DIFlagPrototyped, isOptimized: false)
!944 = !DISubroutineType(types: !945)
!945 = !{!269, !269, !269}
!946 = !DIImportedEntity(tag: DW_TAG_imported_declaration, scope: !5, entity: !947, line: 161)
!947 = !DISubprogram(name: "ceil", scope: !935, file: !935, line: 116, type: !936, isLocal: false, isDefinition: false, flags: DIFlagPrototyped, isOptimized: false)
!948 = !DIImportedEntity(tag: DW_TAG_imported_declaration, scope: !5, entity: !949, line: 180)
!949 = !DISubprogram(name: "cos", scope: !935, file: !935, line: 110, type: !936, isLocal: false, isDefinition: false, flags: DIFlagPrototyped, isOptimized: false)
!950 = !DIImportedEntity(tag: DW_TAG_imported_declaration, scope: !5, entity: !951, line: 199)
!951 = !DISubprogram(name: "cosh", scope: !935, file: !935, line: 128, type: !936, isLocal: false, isDefinition: false, flags: DIFlagPrototyped, isOptimized: false)
!952 = !DIImportedEntity(tag: DW_TAG_imported_declaration, scope: !5, entity: !953, line: 218)
!953 = !DISubprogram(name: "exp", scope: !935, file: !935, line: 130, type: !936, isLocal: false, isDefinition: false, flags: DIFlagPrototyped, isOptimized: false)
!954 = !DIImportedEntity(tag: DW_TAG_imported_declaration, scope: !5, entity: !955, line: 237)
!955 = !DISubprogram(name: "fabs", scope: !935, file: !935, line: 117, type: !936, isLocal: false, isDefinition: false, flags: DIFlagPrototyped, isOptimized: false)
!956 = !DIImportedEntity(tag: DW_TAG_imported_declaration, scope: !5, entity: !957, line: 256)
!957 = !DISubprogram(name: "floor", scope: !935, file: !935, line: 118, type: !936, isLocal: false, isDefinition: false, flags: DIFlagPrototyped, isOptimized: false)
!958 = !DIImportedEntity(tag: DW_TAG_imported_declaration, scope: !5, entity: !959, line: 275)
!959 = !DISubprogram(name: "fmod", scope: !935, file: !935, line: 136, type: !944, isLocal: false, isDefinition: false, flags: DIFlagPrototyped, isOptimized: false)
!960 = !DIImportedEntity(tag: DW_TAG_imported_declaration, scope: !5, entity: !961, line: 296)
!961 = !DISubprogram(name: "frexp", scope: !935, file: !935, line: 114, type: !962, isLocal: false, isDefinition: false, flags: DIFlagPrototyped, isOptimized: false)
!962 = !DISubroutineType(types: !963)
!963 = !{!269, !269, !964}
!964 = !DIDerivedType(tag: DW_TAG_pointer_type, baseType: !15, size: 32, align: 32)
!965 = !DIImportedEntity(tag: DW_TAG_imported_declaration, scope: !5, entity: !966, line: 315)
!966 = !DISubprogram(name: "ldexp", scope: !935, file: !935, line: 131, type: !967, isLocal: false, isDefinition: false, flags: DIFlagPrototyped, isOptimized: false)
!967 = !DISubroutineType(types: !968)
!968 = !{!269, !269, !15}
!969 = !DIImportedEntity(tag: DW_TAG_imported_declaration, scope: !5, entity: !970, line: 334)
!970 = !DISubprogram(name: "log", scope: !935, file: !935, line: 132, type: !936, isLocal: false, isDefinition: false, flags: DIFlagPrototyped, isOptimized: false)
!971 = !DIImportedEntity(tag: DW_TAG_imported_declaration, scope: !5, entity: !972, line: 353)
!972 = !DISubprogram(name: "log10", scope: !935, file: !935, line: 133, type: !936, isLocal: false, isDefinition: false, flags: DIFlagPrototyped, isOptimized: false)
!973 = !DIImportedEntity(tag: DW_TAG_imported_declaration, scope: !5, entity: !974, line: 372)
!974 = !DISubprogram(name: "modf", scope: !935, file: !935, line: 115, type: !975, isLocal: false, isDefinition: false, flags: DIFlagPrototyped, isOptimized: false)
!975 = !DISubroutineType(types: !976)
!976 = !{!269, !269, !977}
!977 = !DIDerivedType(tag: DW_TAG_pointer_type, baseType: !269, size: 32, align: 32)
!978 = !DIImportedEntity(tag: DW_TAG_imported_declaration, scope: !5, entity: !979, line: 384)
!979 = !DISubprogram(name: "pow", scope: !935, file: !935, line: 134, type: !944, isLocal: false, isDefinition: false, flags: DIFlagPrototyped, isOptimized: false)
!980 = !DIImportedEntity(tag: DW_TAG_imported_declaration, scope: !5, entity: !981, line: 421)
!981 = !DISubprogram(name: "sin", scope: !935, file: !935, line: 111, type: !936, isLocal: false, isDefinition: false, flags: DIFlagPrototyped, isOptimized: false)
!982 = !DIImportedEntity(tag: DW_TAG_imported_declaration, scope: !5, entity: !983, line: 440)
!983 = !DISubprogram(name: "sinh", scope: !935, file: !935, line: 129, type: !936, isLocal: false, isDefinition: false, flags: DIFlagPrototyped, isOptimized: false)
!984 = !DIImportedEntity(tag: DW_TAG_imported_declaration, scope: !5, entity: !985, line: 459)
!985 = !DISubprogram(name: "sqrt", scope: !935, file: !935, line: 135, type: !936, isLocal: false, isDefinition: false, flags: DIFlagPrototyped, isOptimized: false)
!986 = !DIImportedEntity(tag: DW_TAG_imported_declaration, scope: !5, entity: !987, line: 478)
!987 = !DISubprogram(name: "tan", scope: !935, file: !935, line: 112, type: !936, isLocal: false, isDefinition: false, flags: DIFlagPrototyped, isOptimized: false)
!988 = !DIImportedEntity(tag: DW_TAG_imported_declaration, scope: !5, entity: !989, line: 497)
!989 = !DISubprogram(name: "tanh", scope: !935, file: !935, line: 113, type: !936, isLocal: false, isDefinition: false, flags: DIFlagPrototyped, isOptimized: false)
!990 = !DIImportedEntity(tag: DW_TAG_imported_declaration, scope: !5, entity: !991, line: 1080)
!991 = !DIDerivedType(tag: DW_TAG_typedef, name: "double_t", file: !935, line: 155, baseType: !269)
!992 = !DIImportedEntity(tag: DW_TAG_imported_declaration, scope: !5, entity: !993, line: 1081)
!993 = !DIDerivedType(tag: DW_TAG_typedef, name: "float_t", file: !935, line: 154, baseType: !275)
!994 = !DIImportedEntity(tag: DW_TAG_imported_declaration, scope: !5, entity: !995, line: 1084)
!995 = !DISubprogram(name: "acosh", scope: !935, file: !935, line: 333, type: !936, isLocal: false, isDefinition: false, flags: DIFlagPrototyped, isOptimized: false)
!996 = !DIImportedEntity(tag: DW_TAG_imported_declaration, scope: !5, entity: !997, line: 1085)
!997 = !DISubprogram(name: "acoshf", scope: !935, file: !935, line: 413, type: !998, isLocal: false, isDefinition: false, flags: DIFlagPrototyped, isOptimized: false)
!998 = !DISubroutineType(types: !999)
!999 = !{!275, !275}
!1000 = !DIImportedEntity(tag: DW_TAG_imported_declaration, scope: !5, entity: !1001, line: 1086)
!1001 = !DISubprogram(name: "acoshl", scope: !935, file: !935, line: 492, type: !1002, isLocal: false, isDefinition: false, flags: DIFlagPrototyped, isOptimized: false)
!1002 = !DISubroutineType(types: !1003)
!1003 = !{!334, !334}
!1004 = !DIImportedEntity(tag: DW_TAG_imported_declaration, scope: !5, entity: !1005, line: 1088)
!1005 = !DISubprogram(name: "asinh", scope: !935, file: !935, line: 305, type: !936, isLocal: false, isDefinition: false, flags: DIFlagPrototyped, isOptimized: false)
!1006 = !DIImportedEntity(tag: DW_TAG_imported_declaration, scope: !5, entity: !1007, line: 1089)
!1007 = !DISubprogram(name: "asinhf", scope: !935, file: !935, line: 404, type: !998, isLocal: false, isDefinition: false, flags: DIFlagPrototyped, isOptimized: false)
!1008 = !DIImportedEntity(tag: DW_TAG_imported_declaration, scope: !5, entity: !1009, line: 1090)
!1009 = !DISubprogram(name: "asinhl", scope: !935, file: !935, line: 466, type: !1002, isLocal: false, isDefinition: false, flags: DIFlagPrototyped, isOptimized: false)
!1010 = !DIImportedEntity(tag: DW_TAG_imported_declaration, scope: !5, entity: !1011, line: 1092)
!1011 = !DISubprogram(name: "atanh", scope: !935, file: !935, line: 334, type: !936, isLocal: false, isDefinition: false, flags: DIFlagPrototyped, isOptimized: false)
!1012 = !DIImportedEntity(tag: DW_TAG_imported_declaration, scope: !5, entity: !1013, line: 1093)
!1013 = !DISubprogram(name: "atanhf", scope: !935, file: !935, line: 414, type: !998, isLocal: false, isDefinition: false, flags: DIFlagPrototyped, isOptimized: false)
!1014 = !DIImportedEntity(tag: DW_TAG_imported_declaration, scope: !5, entity: !1015, line: 1094)
!1015 = !DISubprogram(name: "atanhl", scope: !935, file: !935, line: 493, type: !1002, isLocal: false, isDefinition: false, flags: DIFlagPrototyped, isOptimized: false)
!1016 = !DIImportedEntity(tag: DW_TAG_imported_declaration, scope: !5, entity: !1017, line: 1096)
!1017 = !DISubprogram(name: "cbrt", scope: !935, file: !935, line: 306, type: !936, isLocal: false, isDefinition: false, flags: DIFlagPrototyped, isOptimized: false)
!1018 = !DIImportedEntity(tag: DW_TAG_imported_declaration, scope: !5, entity: !1019, line: 1097)
!1019 = !DISubprogram(name: "cbrtf", scope: !935, file: !935, line: 405, type: !998, isLocal: false, isDefinition: false, flags: DIFlagPrototyped, isOptimized: false)
!1020 = !DIImportedEntity(tag: DW_TAG_imported_declaration, scope: !5, entity: !1021, line: 1098)
!1021 = !DISubprogram(name: "cbrtl", scope: !935, file: !935, line: 467, type: !1002, isLocal: false, isDefinition: false, flags: DIFlagPrototyped, isOptimized: false)
!1022 = !DIImportedEntity(tag: DW_TAG_imported_declaration, scope: !5, entity: !1023, line: 1100)
!1023 = !DISubprogram(name: "copysign", scope: !935, file: !935, line: 301, type: !944, isLocal: false, isDefinition: false, flags: DIFlagPrototyped, isOptimized: false)
!1024 = !DIImportedEntity(tag: DW_TAG_imported_declaration, scope: !5, entity: !1025, line: 1101)
!1025 = !DISubprogram(name: "copysignf", scope: !935, file: !935, line: 400, type: !1026, isLocal: false, isDefinition: false, flags: DIFlagPrototyped, isOptimized: false)
!1026 = !DISubroutineType(types: !1027)
!1027 = !{!275, !275, !275}
!1028 = !DIImportedEntity(tag: DW_TAG_imported_declaration, scope: !5, entity: !1029, line: 1102)
!1029 = !DISubprogram(name: "copysignl", scope: !935, file: !935, line: 463, type: !1030, isLocal: false, isDefinition: false, flags: DIFlagPrototyped, isOptimized: false)
!1030 = !DISubroutineType(types: !1031)
!1031 = !{!334, !334, !334}
!1032 = !DIImportedEntity(tag: DW_TAG_imported_declaration, scope: !5, entity: !1033, line: 1104)
!1033 = !DISubprogram(name: "erf", scope: !935, file: !935, line: 338, type: !936, isLocal: false, isDefinition: false, flags: DIFlagPrototyped, isOptimized: false)
!1034 = !DIImportedEntity(tag: DW_TAG_imported_declaration, scope: !5, entity: !1035, line: 1105)
!1035 = !DISubprogram(name: "erff", scope: !935, file: !935, line: 418, type: !998, isLocal: false, isDefinition: false, flags: DIFlagPrototyped, isOptimized: false)
!1036 = !DIImportedEntity(tag: DW_TAG_imported_declaration, scope: !5, entity: !1037, line: 1106)
!1037 = !DISubprogram(name: "erfl", scope: !935, file: !935, line: 496, type: !1002, isLocal: false, isDefinition: false, flags: DIFlagPrototyped, isOptimized: false)
!1038 = !DIImportedEntity(tag: DW_TAG_imported_declaration, scope: !5, entity: !1039, line: 1108)
!1039 = !DISubprogram(name: "erfc", scope: !935, file: !935, line: 339, type: !936, isLocal: false, isDefinition: false, flags: DIFlagPrototyped, isOptimized: false)
!1040 = !DIImportedEntity(tag: DW_TAG_imported_declaration, scope: !5, entity: !1041, line: 1109)
!1041 = !DISubprogram(name: "erfcf", scope: !935, file: !935, line: 419, type: !998, isLocal: false, isDefinition: false, flags: DIFlagPrototyped, isOptimized: false)
!1042 = !DIImportedEntity(tag: DW_TAG_imported_declaration, scope: !5, entity: !1043, line: 1110)
!1043 = !DISubprogram(name: "erfcl", scope: !935, file: !935, line: 497, type: !1002, isLocal: false, isDefinition: false, flags: DIFlagPrototyped, isOptimized: false)
!1044 = !DIImportedEntity(tag: DW_TAG_imported_declaration, scope: !5, entity: !1045, line: 1112)
!1045 = !DISubprogram(name: "exp2", scope: !935, file: !935, line: 311, type: !936, isLocal: false, isDefinition: false, flags: DIFlagPrototyped, isOptimized: false)
!1046 = !DIImportedEntity(tag: DW_TAG_imported_declaration, scope: !5, entity: !1047, line: 1113)
!1047 = !DISubprogram(name: "exp2f", scope: !935, file: !935, line: 381, type: !998, isLocal: false, isDefinition: false, flags: DIFlagPrototyped, isOptimized: false)
!1048 = !DIImportedEntity(tag: DW_TAG_imported_declaration, scope: !5, entity: !1049, line: 1114)
!1049 = !DISubprogram(name: "exp2l", scope: !935, file: !935, line: 476, type: !1002, isLocal: false, isDefinition: false, flags: DIFlagPrototyped, isOptimized: false)
!1050 = !DIImportedEntity(tag: DW_TAG_imported_declaration, scope: !5, entity: !1051, line: 1116)
!1051 = !DISubprogram(name: "expm1", scope: !935, file: !935, line: 329, type: !936, isLocal: false, isDefinition: false, flags: DIFlagPrototyped, isOptimized: false)
!1052 = !DIImportedEntity(tag: DW_TAG_imported_declaration, scope: !5, entity: !1053, line: 1117)
!1053 = !DISubprogram(name: "expm1f", scope: !935, file: !935, line: 410, type: !998, isLocal: false, isDefinition: false, flags: DIFlagPrototyped, isOptimized: false)
!1054 = !DIImportedEntity(tag: DW_TAG_imported_declaration, scope: !5, entity: !1055, line: 1118)
!1055 = !DISubprogram(name: "expm1l", scope: !935, file: !935, line: 443, type: !1002, isLocal: false, isDefinition: false, flags: DIFlagPrototyped, isOptimized: false)
!1056 = !DIImportedEntity(tag: DW_TAG_imported_declaration, scope: !5, entity: !1057, line: 1120)
!1057 = !DISubprogram(name: "fdim", scope: !935, file: !935, line: 322, type: !944, isLocal: false, isDefinition: false, flags: DIFlagPrototyped, isOptimized: false)
!1058 = !DIImportedEntity(tag: DW_TAG_imported_declaration, scope: !5, entity: !1059, line: 1121)
!1059 = !DISubprogram(name: "fdimf", scope: !935, file: !935, line: 392, type: !1026, isLocal: false, isDefinition: false, flags: DIFlagPrototyped, isOptimized: false)
!1060 = !DIImportedEntity(tag: DW_TAG_imported_declaration, scope: !5, entity: !1061, line: 1122)
!1061 = !DISubprogram(name: "fdiml", scope: !935, file: !935, line: 487, type: !1030, isLocal: false, isDefinition: false, flags: DIFlagPrototyped, isOptimized: false)
!1062 = !DIImportedEntity(tag: DW_TAG_imported_declaration, scope: !5, entity: !1063, line: 1124)
!1063 = !DISubprogram(name: "fma", scope: !935, file: !935, line: 325, type: !1064, isLocal: false, isDefinition: false, flags: DIFlagPrototyped, isOptimized: false)
!1064 = !DISubroutineType(types: !1065)
!1065 = !{!269, !269, !269, !269}
!1066 = !DIImportedEntity(tag: DW_TAG_imported_declaration, scope: !5, entity: !1067, line: 1125)
!1067 = !DISubprogram(name: "fmaf", scope: !935, file: !935, line: 395, type: !1068, isLocal: false, isDefinition: false, flags: DIFlagPrototyped, isOptimized: false)
!1068 = !DISubroutineType(types: !1069)
!1069 = !{!275, !275, !275, !275}
!1070 = !DIImportedEntity(tag: DW_TAG_imported_declaration, scope: !5, entity: !1071, line: 1126)
!1071 = !DISubprogram(name: "fmal", scope: !935, file: !935, line: 490, type: !1072, isLocal: false, isDefinition: false, flags: DIFlagPrototyped, isOptimized: false)
!1072 = !DISubroutineType(types: !1073)
!1073 = !{!334, !334, !334, !334}
!1074 = !DIImportedEntity(tag: DW_TAG_imported_declaration, scope: !5, entity: !1075, line: 1128)
!1075 = !DISubprogram(name: "fmax", scope: !935, file: !935, line: 323, type: !944, isLocal: false, isDefinition: false, flags: DIFlagPrototyped, isOptimized: false)
!1076 = !DIImportedEntity(tag: DW_TAG_imported_declaration, scope: !5, entity: !1077, line: 1129)
!1077 = !DISubprogram(name: "fmaxf", scope: !935, file: !935, line: 393, type: !1026, isLocal: false, isDefinition: false, flags: DIFlagPrototyped, isOptimized: false)
!1078 = !DIImportedEntity(tag: DW_TAG_imported_declaration, scope: !5, entity: !1079, line: 1130)
!1079 = !DISubprogram(name: "fmaxl", scope: !935, file: !935, line: 488, type: !1030, isLocal: false, isDefinition: false, flags: DIFlagPrototyped, isOptimized: false)
!1080 = !DIImportedEntity(tag: DW_TAG_imported_declaration, scope: !5, entity: !1081, line: 1132)
!1081 = !DISubprogram(name: "fmin", scope: !935, file: !935, line: 324, type: !944, isLocal: false, isDefinition: false, flags: DIFlagPrototyped, isOptimized: false)
!1082 = !DIImportedEntity(tag: DW_TAG_imported_declaration, scope: !5, entity: !1083, line: 1133)
!1083 = !DISubprogram(name: "fminf", scope: !935, file: !935, line: 394, type: !1026, isLocal: false, isDefinition: false, flags: DIFlagPrototyped, isOptimized: false)
!1084 = !DIImportedEntity(tag: DW_TAG_imported_declaration, scope: !5, entity: !1085, line: 1134)
!1085 = !DISubprogram(name: "fminl", scope: !935, file: !935, line: 489, type: !1030, isLocal: false, isDefinition: false, flags: DIFlagPrototyped, isOptimized: false)
!1086 = !DIImportedEntity(tag: DW_TAG_imported_declaration, scope: !5, entity: !1087, line: 1136)
!1087 = !DISubprogram(name: "hypot", scope: !935, file: !935, line: 346, type: !944, isLocal: false, isDefinition: false, flags: DIFlagPrototyped, isOptimized: false)
!1088 = !DIImportedEntity(tag: DW_TAG_imported_declaration, scope: !5, entity: !1089, line: 1137)
!1089 = !DISubprogram(name: "hypotf", scope: !935, file: !935, line: 421, type: !1026, isLocal: false, isDefinition: false, flags: DIFlagPrototyped, isOptimized: false)
!1090 = !DIImportedEntity(tag: DW_TAG_imported_declaration, scope: !5, entity: !1091, line: 1138)
!1091 = !DISubprogram(name: "hypotl", scope: !935, file: !935, line: 460, type: !1030, isLocal: false, isDefinition: false, flags: DIFlagPrototyped, isOptimized: false)
!1092 = !DIImportedEntity(tag: DW_TAG_imported_declaration, scope: !5, entity: !1093, line: 1140)
!1093 = !DISubprogram(name: "ilogb", scope: !935, file: !935, line: 303, type: !1094, isLocal: false, isDefinition: false, flags: DIFlagPrototyped, isOptimized: false)
!1094 = !DISubroutineType(types: !1095)
!1095 = !{!15, !269}
!1096 = !DIImportedEntity(tag: DW_TAG_imported_declaration, scope: !5, entity: !1097, line: 1141)
!1097 = !DISubprogram(name: "ilogbf", scope: !935, file: !935, line: 402, type: !1098, isLocal: false, isDefinition: false, flags: DIFlagPrototyped, isOptimized: false)
!1098 = !DISubroutineType(types: !1099)
!1099 = !{!15, !275}
!1100 = !DIImportedEntity(tag: DW_TAG_imported_declaration, scope: !5, entity: !1101, line: 1142)
!1101 = !DISubprogram(name: "ilogbl", scope: !935, file: !935, line: 465, type: !1102, isLocal: false, isDefinition: false, flags: DIFlagPrototyped, isOptimized: false)
!1102 = !DISubroutineType(types: !1103)
!1103 = !{!15, !334}
!1104 = !DIImportedEntity(tag: DW_TAG_imported_declaration, scope: !5, entity: !1105, line: 1144)
!1105 = !DISubprogram(name: "lgamma", scope: !935, file: !935, line: 337, type: !936, isLocal: false, isDefinition: false, flags: DIFlagPrototyped, isOptimized: false)
!1106 = !DIImportedEntity(tag: DW_TAG_imported_declaration, scope: !5, entity: !1107, line: 1145)
!1107 = !DISubprogram(name: "lgammaf", scope: !935, file: !935, line: 417, type: !998, isLocal: false, isDefinition: false, flags: DIFlagPrototyped, isOptimized: false)
!1108 = !DIImportedEntity(tag: DW_TAG_imported_declaration, scope: !5, entity: !1109, line: 1146)
!1109 = !DISubprogram(name: "lgammal", scope: !935, file: !935, line: 495, type: !1002, isLocal: false, isDefinition: false, flags: DIFlagPrototyped, isOptimized: false)
!1110 = !DIImportedEntity(tag: DW_TAG_imported_declaration, scope: !5, entity: !1111, line: 1149)
!1111 = !DISubprogram(name: "llrint", scope: !935, file: !935, line: 316, type: !1112, isLocal: false, isDefinition: false, flags: DIFlagPrototyped, isOptimized: false)
!1112 = !DISubroutineType(types: !1113)
!1113 = !{!339, !269}
!1114 = !DIImportedEntity(tag: DW_TAG_imported_declaration, scope: !5, entity: !1115, line: 1150)
!1115 = !DISubprogram(name: "llrintf", scope: !935, file: !935, line: 386, type: !1116, isLocal: false, isDefinition: false, flags: DIFlagPrototyped, isOptimized: false)
!1116 = !DISubroutineType(types: !1117)
!1117 = !{!339, !275}
!1118 = !DIImportedEntity(tag: DW_TAG_imported_declaration, scope: !5, entity: !1119, line: 1151)
!1119 = !DISubprogram(name: "llrintl", scope: !935, file: !935, line: 481, type: !1120, isLocal: false, isDefinition: false, flags: DIFlagPrototyped, isOptimized: false)
!1120 = !DISubroutineType(types: !1121)
!1121 = !{!339, !334}
!1122 = !DIImportedEntity(tag: DW_TAG_imported_declaration, scope: !5, entity: !1123, line: 1153)
!1123 = !DISubprogram(name: "llround", scope: !935, file: !935, line: 319, type: !1112, isLocal: false, isDefinition: false, flags: DIFlagPrototyped, isOptimized: false)
!1124 = !DIImportedEntity(tag: DW_TAG_imported_declaration, scope: !5, entity: !1125, line: 1154)
!1125 = !DISubprogram(name: "llroundf", scope: !935, file: !935, line: 389, type: !1116, isLocal: false, isDefinition: false, flags: DIFlagPrototyped, isOptimized: false)
!1126 = !DIImportedEntity(tag: DW_TAG_imported_declaration, scope: !5, entity: !1127, line: 1155)
!1127 = !DISubprogram(name: "llroundl", scope: !935, file: !935, line: 484, type: !1120, isLocal: false, isDefinition: false, flags: DIFlagPrototyped, isOptimized: false)
!1128 = !DIImportedEntity(tag: DW_TAG_imported_declaration, scope: !5, entity: !1129, line: 1158)
!1129 = !DISubprogram(name: "log1p", scope: !935, file: !935, line: 328, type: !936, isLocal: false, isDefinition: false, flags: DIFlagPrototyped, isOptimized: false)
!1130 = !DIImportedEntity(tag: DW_TAG_imported_declaration, scope: !5, entity: !1131, line: 1159)
!1131 = !DISubprogram(name: "log1pf", scope: !935, file: !935, line: 409, type: !998, isLocal: false, isDefinition: false, flags: DIFlagPrototyped, isOptimized: false)
!1132 = !DIImportedEntity(tag: DW_TAG_imported_declaration, scope: !5, entity: !1133, line: 1160)
!1133 = !DISubprogram(name: "log1pl", scope: !935, file: !935, line: 442, type: !1002, isLocal: false, isDefinition: false, flags: DIFlagPrototyped, isOptimized: false)
!1134 = !DIImportedEntity(tag: DW_TAG_imported_declaration, scope: !5, entity: !1135, line: 1162)
!1135 = !DISubprogram(name: "log2", scope: !935, file: !935, line: 340, type: !936, isLocal: false, isDefinition: false, flags: DIFlagPrototyped, isOptimized: false)
!1136 = !DIImportedEntity(tag: DW_TAG_imported_declaration, scope: !5, entity: !1137, line: 1163)
!1137 = !DISubprogram(name: "log2f", scope: !935, file: !935, line: 420, type: !998, isLocal: false, isDefinition: false, flags: DIFlagPrototyped, isOptimized: false)
!1138 = !DIImportedEntity(tag: DW_TAG_imported_declaration, scope: !5, entity: !1139, line: 1164)
!1139 = !DISubprogram(name: "log2l", scope: !935, file: !935, line: 473, type: !1002, isLocal: false, isDefinition: false, flags: DIFlagPrototyped, isOptimized: false)
!1140 = !DIImportedEntity(tag: DW_TAG_imported_declaration, scope: !5, entity: !1141, line: 1166)
!1141 = !DISubprogram(name: "logb", scope: !935, file: !935, line: 302, type: !936, isLocal: false, isDefinition: false, flags: DIFlagPrototyped, isOptimized: false)
!1142 = !DIImportedEntity(tag: DW_TAG_imported_declaration, scope: !5, entity: !1143, line: 1167)
!1143 = !DISubprogram(name: "logbf", scope: !935, file: !935, line: 401, type: !998, isLocal: false, isDefinition: false, flags: DIFlagPrototyped, isOptimized: false)
!1144 = !DIImportedEntity(tag: DW_TAG_imported_declaration, scope: !5, entity: !1145, line: 1168)
!1145 = !DISubprogram(name: "logbl", scope: !935, file: !935, line: 472, type: !1002, isLocal: false, isDefinition: false, flags: DIFlagPrototyped, isOptimized: false)
!1146 = !DIImportedEntity(tag: DW_TAG_imported_declaration, scope: !5, entity: !1147, line: 1170)
!1147 = !DISubprogram(name: "lrint", scope: !935, file: !935, line: 315, type: !1148, isLocal: false, isDefinition: false, flags: DIFlagPrototyped, isOptimized: false)
!1148 = !DISubroutineType(types: !1149)
!1149 = !{!91, !269}
!1150 = !DIImportedEntity(tag: DW_TAG_imported_declaration, scope: !5, entity: !1151, line: 1171)
!1151 = !DISubprogram(name: "lrintf", scope: !935, file: !935, line: 385, type: !1152, isLocal: false, isDefinition: false, flags: DIFlagPrototyped, isOptimized: false)
!1152 = !DISubroutineType(types: !1153)
!1153 = !{!91, !275}
!1154 = !DIImportedEntity(tag: DW_TAG_imported_declaration, scope: !5, entity: !1155, line: 1172)
!1155 = !DISubprogram(name: "lrintl", scope: !935, file: !935, line: 480, type: !1156, isLocal: false, isDefinition: false, flags: DIFlagPrototyped, isOptimized: false)
!1156 = !DISubroutineType(types: !1157)
!1157 = !{!91, !334}
!1158 = !DIImportedEntity(tag: DW_TAG_imported_declaration, scope: !5, entity: !1159, line: 1174)
!1159 = !DISubprogram(name: "lround", scope: !935, file: !935, line: 318, type: !1148, isLocal: false, isDefinition: false, flags: DIFlagPrototyped, isOptimized: false)
!1160 = !DIImportedEntity(tag: DW_TAG_imported_declaration, scope: !5, entity: !1161, line: 1175)
!1161 = !DISubprogram(name: "lroundf", scope: !935, file: !935, line: 388, type: !1152, isLocal: false, isDefinition: false, flags: DIFlagPrototyped, isOptimized: false)
!1162 = !DIImportedEntity(tag: DW_TAG_imported_declaration, scope: !5, entity: !1163, line: 1176)
!1163 = !DISubprogram(name: "lroundl", scope: !935, file: !935, line: 483, type: !1156, isLocal: false, isDefinition: false, flags: DIFlagPrototyped, isOptimized: false)
!1164 = !DIImportedEntity(tag: DW_TAG_imported_declaration, scope: !5, entity: !1165, line: 1178)
!1165 = !DISubprogram(name: "nan", scope: !935, file: !935, line: 299, type: !566, isLocal: false, isDefinition: false, flags: DIFlagPrototyped, isOptimized: false)
!1166 = !DIImportedEntity(tag: DW_TAG_imported_declaration, scope: !5, entity: !1167, line: 1179)
!1167 = !DISubprogram(name: "nanf", scope: !935, file: !935, line: 398, type: !1168, isLocal: false, isDefinition: false, flags: DIFlagPrototyped, isOptimized: false)
!1168 = !DISubroutineType(types: !1169)
!1169 = !{!275, !84}
!1170 = !DIImportedEntity(tag: DW_TAG_imported_declaration, scope: !5, entity: !1171, line: 1180)
!1171 = !DISubprogram(name: "nanl", scope: !935, file: !935, line: 464, type: !1172, isLocal: false, isDefinition: false, flags: DIFlagPrototyped, isOptimized: false)
!1172 = !DISubroutineType(types: !1173)
!1173 = !{!334, !84}
!1174 = !DIImportedEntity(tag: DW_TAG_imported_declaration, scope: !5, entity: !1175, line: 1182)
!1175 = !DISubprogram(name: "nearbyint", scope: !935, file: !935, line: 314, type: !936, isLocal: false, isDefinition: false, flags: DIFlagPrototyped, isOptimized: false)
!1176 = !DIImportedEntity(tag: DW_TAG_imported_declaration, scope: !5, entity: !1177, line: 1183)
!1177 = !DISubprogram(name: "nearbyintf", scope: !935, file: !935, line: 384, type: !998, isLocal: false, isDefinition: false, flags: DIFlagPrototyped, isOptimized: false)
!1178 = !DIImportedEntity(tag: DW_TAG_imported_declaration, scope: !5, entity: !1179, line: 1184)
!1179 = !DISubprogram(name: "nearbyintl", scope: !935, file: !935, line: 479, type: !1002, isLocal: false, isDefinition: false, flags: DIFlagPrototyped, isOptimized: false)
!1180 = !DIImportedEntity(tag: DW_TAG_imported_declaration, scope: !5, entity: !1181, line: 1186)
!1181 = !DISubprogram(name: "nextafter", scope: !935, file: !935, line: 307, type: !944, isLocal: false, isDefinition: false, flags: DIFlagPrototyped, isOptimized: false)
!1182 = !DIImportedEntity(tag: DW_TAG_imported_declaration, scope: !5, entity: !1183, line: 1187)
!1183 = !DISubprogram(name: "nextafterf", scope: !935, file: !935, line: 406, type: !1026, isLocal: false, isDefinition: false, flags: DIFlagPrototyped, isOptimized: false)
!1184 = !DIImportedEntity(tag: DW_TAG_imported_declaration, scope: !5, entity: !1185, line: 1188)
!1185 = !DISubprogram(name: "nextafterl", scope: !935, file: !935, line: 468, type: !1030, isLocal: false, isDefinition: false, flags: DIFlagPrototyped, isOptimized: false)
!1186 = !DIImportedEntity(tag: DW_TAG_imported_declaration, scope: !5, entity: !1187, line: 1190)
!1187 = !DISubprogram(name: "nexttoward", scope: !935, file: !935, line: 470, type: !1188, isLocal: false, isDefinition: false, flags: DIFlagPrototyped, isOptimized: false)
!1188 = !DISubroutineType(types: !1189)
!1189 = !{!269, !269, !334}
!1190 = !DIImportedEntity(tag: DW_TAG_imported_declaration, scope: !5, entity: !1191, line: 1191)
!1191 = !DISubprogram(name: "nexttowardf", scope: !935, file: !935, line: 469, type: !1192, isLocal: false, isDefinition: false, flags: DIFlagPrototyped, isOptimized: false)
!1192 = !DISubroutineType(types: !1193)
!1193 = !{!275, !275, !334}
!1194 = !DIImportedEntity(tag: DW_TAG_imported_declaration, scope: !5, entity: !1195, line: 1192)
!1195 = !DISubprogram(name: "nexttowardl", scope: !935, file: !935, line: 471, type: !1030, isLocal: false, isDefinition: false, flags: DIFlagPrototyped, isOptimized: false)
!1196 = !DIImportedEntity(tag: DW_TAG_imported_declaration, scope: !5, entity: !1197, line: 1194)
!1197 = !DISubprogram(name: "remainder", scope: !935, file: !935, line: 335, type: !944, isLocal: false, isDefinition: false, flags: DIFlagPrototyped, isOptimized: false)
!1198 = !DIImportedEntity(tag: DW_TAG_imported_declaration, scope: !5, entity: !1199, line: 1195)
!1199 = !DISubprogram(name: "remainderf", scope: !935, file: !935, line: 415, type: !1026, isLocal: false, isDefinition: false, flags: DIFlagPrototyped, isOptimized: false)
!1200 = !DIImportedEntity(tag: DW_TAG_imported_declaration, scope: !5, entity: !1201, line: 1196)
!1201 = !DISubprogram(name: "remainderl", scope: !935, file: !935, line: 494, type: !1030, isLocal: false, isDefinition: false, flags: DIFlagPrototyped, isOptimized: false)
!1202 = !DIImportedEntity(tag: DW_TAG_imported_declaration, scope: !5, entity: !1203, line: 1198)
!1203 = !DISubprogram(name: "remquo", scope: !935, file: !935, line: 321, type: !1204, isLocal: false, isDefinition: false, flags: DIFlagPrototyped, isOptimized: false)
!1204 = !DISubroutineType(types: !1205)
!1205 = !{!269, !269, !269, !964}
!1206 = !DIImportedEntity(tag: DW_TAG_imported_declaration, scope: !5, entity: !1207, line: 1199)
!1207 = !DISubprogram(name: "remquof", scope: !935, file: !935, line: 391, type: !1208, isLocal: false, isDefinition: false, flags: DIFlagPrototyped, isOptimized: false)
!1208 = !DISubroutineType(types: !1209)
!1209 = !{!275, !275, !275, !964}
!1210 = !DIImportedEntity(tag: DW_TAG_imported_declaration, scope: !5, entity: !1211, line: 1200)
!1211 = !DISubprogram(name: "remquol", scope: !935, file: !935, line: 486, type: !1212, isLocal: false, isDefinition: false, flags: DIFlagPrototyped, isOptimized: false)
!1212 = !DISubroutineType(types: !1213)
!1213 = !{!334, !334, !334, !964}
!1214 = !DIImportedEntity(tag: DW_TAG_imported_declaration, scope: !5, entity: !1215, line: 1202)
!1215 = !DISubprogram(name: "rint", scope: !935, file: !935, line: 308, type: !936, isLocal: false, isDefinition: false, flags: DIFlagPrototyped, isOptimized: false)
!1216 = !DIImportedEntity(tag: DW_TAG_imported_declaration, scope: !5, entity: !1217, line: 1203)
!1217 = !DISubprogram(name: "rintf", scope: !935, file: !935, line: 407, type: !998, isLocal: false, isDefinition: false, flags: DIFlagPrototyped, isOptimized: false)
!1218 = !DIImportedEntity(tag: DW_TAG_imported_declaration, scope: !5, entity: !1219, line: 1204)
!1219 = !DISubprogram(name: "rintl", scope: !935, file: !935, line: 474, type: !1002, isLocal: false, isDefinition: false, flags: DIFlagPrototyped, isOptimized: false)
!1220 = !DIImportedEntity(tag: DW_TAG_imported_declaration, scope: !5, entity: !1221, line: 1206)
!1221 = !DISubprogram(name: "round", scope: !935, file: !935, line: 317, type: !936, isLocal: false, isDefinition: false, flags: DIFlagPrototyped, isOptimized: false)
!1222 = !DIImportedEntity(tag: DW_TAG_imported_declaration, scope: !5, entity: !1223, line: 1207)
!1223 = !DISubprogram(name: "roundf", scope: !935, file: !935, line: 387, type: !998, isLocal: false, isDefinition: false, flags: DIFlagPrototyped, isOptimized: false)
!1224 = !DIImportedEntity(tag: DW_TAG_imported_declaration, scope: !5, entity: !1225, line: 1208)
!1225 = !DISubprogram(name: "roundl", scope: !935, file: !935, line: 482, type: !1002, isLocal: false, isDefinition: false, flags: DIFlagPrototyped, isOptimized: false)
!1226 = !DIImportedEntity(tag: DW_TAG_imported_declaration, scope: !5, entity: !1227, line: 1210)
!1227 = !DISubprogram(name: "scalbln", scope: !935, file: !935, line: 312, type: !1228, isLocal: false, isDefinition: false, flags: DIFlagPrototyped, isOptimized: false)
!1228 = !DISubroutineType(types: !1229)
!1229 = !{!269, !269, !91}
!1230 = !DIImportedEntity(tag: DW_TAG_imported_declaration, scope: !5, entity: !1231, line: 1211)
!1231 = !DISubprogram(name: "scalblnf", scope: !935, file: !935, line: 382, type: !1232, isLocal: false, isDefinition: false, flags: DIFlagPrototyped, isOptimized: false)
!1232 = !DISubroutineType(types: !1233)
!1233 = !{!275, !275, !91}
!1234 = !DIImportedEntity(tag: DW_TAG_imported_declaration, scope: !5, entity: !1235, line: 1212)
!1235 = !DISubprogram(name: "scalblnl", scope: !935, file: !935, line: 477, type: !1236, isLocal: false, isDefinition: false, flags: DIFlagPrototyped, isOptimized: false)
!1236 = !DISubroutineType(types: !1237)
!1237 = !{!334, !334, !91}
!1238 = !DIImportedEntity(tag: DW_TAG_imported_declaration, scope: !5, entity: !1239, line: 1214)
!1239 = !DISubprogram(name: "scalbn", scope: !935, file: !935, line: 309, type: !967, isLocal: false, isDefinition: false, flags: DIFlagPrototyped, isOptimized: false)
!1240 = !DIImportedEntity(tag: DW_TAG_imported_declaration, scope: !5, entity: !1241, line: 1215)
!1241 = !DISubprogram(name: "scalbnf", scope: !935, file: !935, line: 408, type: !1242, isLocal: false, isDefinition: false, flags: DIFlagPrototyped, isOptimized: false)
!1242 = !DISubroutineType(types: !1243)
!1243 = !{!275, !275, !15}
!1244 = !DIImportedEntity(tag: DW_TAG_imported_declaration, scope: !5, entity: !1245, line: 1216)
!1245 = !DISubprogram(name: "scalbnl", scope: !935, file: !935, line: 475, type: !1246, isLocal: false, isDefinition: false, flags: DIFlagPrototyped, isOptimized: false)
!1246 = !DISubroutineType(types: !1247)
!1247 = !{!334, !334, !15}
!1248 = !DIImportedEntity(tag: DW_TAG_imported_declaration, scope: !5, entity: !1249, line: 1218)
!1249 = !DISubprogram(name: "tgamma", scope: !935, file: !935, line: 313, type: !936, isLocal: false, isDefinition: false, flags: DIFlagPrototyped, isOptimized: false)
!1250 = !DIImportedEntity(tag: DW_TAG_imported_declaration, scope: !5, entity: !1251, line: 1219)
!1251 = !DISubprogram(name: "tgammaf", scope: !935, file: !935, line: 383, type: !998, isLocal: false, isDefinition: false, flags: DIFlagPrototyped, isOptimized: false)
!1252 = !DIImportedEntity(tag: DW_TAG_imported_declaration, scope: !5, entity: !1253, line: 1220)
!1253 = !DISubprogram(name: "tgammal", scope: !935, file: !935, line: 478, type: !1002, isLocal: false, isDefinition: false, flags: DIFlagPrototyped, isOptimized: false)
!1254 = !DIImportedEntity(tag: DW_TAG_imported_declaration, scope: !5, entity: !1255, line: 1222)
!1255 = !DISubprogram(name: "trunc", scope: !935, file: !935, line: 320, type: !936, isLocal: false, isDefinition: false, flags: DIFlagPrototyped, isOptimized: false)
!1256 = !DIImportedEntity(tag: DW_TAG_imported_declaration, scope: !5, entity: !1257, line: 1223)
!1257 = !DISubprogram(name: "truncf", scope: !935, file: !935, line: 390, type: !998, isLocal: false, isDefinition: false, flags: DIFlagPrototyped, isOptimized: false)
!1258 = !DIImportedEntity(tag: DW_TAG_imported_declaration, scope: !5, entity: !1259, line: 1224)
!1259 = !DISubprogram(name: "truncl", scope: !935, file: !935, line: 485, type: !1002, isLocal: false, isDefinition: false, flags: DIFlagPrototyped, isOptimized: false)
!1260 = !{i32 2, !"Dwarf Version", i32 4}
!1261 = !{i32 2, !"Debug Info Version", i32 3}
!1262 = !{i32 1, !"wchar_size", i32 4}
!1263 = !{i32 1, !"min_enum_size", i32 4}
!1264 = !{!"clang version 3.9.0 (tags/RELEASE_390/final)"}
!1265 = distinct !DISubprogram(name: "__cxx_global_var_init", scope: !7, file: !7, line: 74, type: !557, isLocal: true, isDefinition: true, scopeLine: 74, flags: DIFlagPrototyped, isOptimized: false, unit: !0, variables: !2)
!1266 = !DILocation(line: 74, column: 25, scope: !1265)
!1267 = !DILocation(line: 74, column: 25, scope: !1268)
!1268 = !DILexicalBlockFile(scope: !1265, file: !7, discriminator: 1)
!1269 = !{!"Init"}
!1270 = !{!"void."}
!1271 = !{!"/tools/Xilinx/SDK/2018.3/gnu/aarch32/lin/gcc-arm-none-eabi/arm-none-eabi/include/c++/7.3.1/bits/ios_base.h"}
!1272 = !{!"~Init"}
!1273 = distinct !DISubprogram(name: "main", scope: !1274, file: !1274, line: 4, type: !1275, isLocal: false, isDefinition: true, scopeLine: 4, flags: DIFlagPrototyped, isOptimized: false, unit: !0, variables: !2)
!1274 = !DIFile(filename: "/home/bqpd/workspace_sdsoc/MiniZedMM/src/main.cpp", directory: "/home/bqpd/workspace_sdsoc/MiniZedMM/Debug")
!1275 = !DISubroutineType(types: !1276)
!1276 = !{!15, !15, !171}
!1277 = !{!"main"}
!1278 = !{!"int.int.0.const char *[].1"}
!1279 = !{!"/home/bqpd/workspace_sdsoc/MiniZedMM/src/main.cpp"}
!1280 = !DILocalVariable(name: "argc", arg: 1, scope: !1273, file: !1274, line: 4, type: !15)
!1281 = !DIExpression()
!1282 = !DILocation(line: 4, column: 14, scope: !1273)
!1283 = !DILocalVariable(name: "argv", arg: 2, scope: !1273, file: !1274, line: 4, type: !171)
!1284 = !DILocation(line: 4, column: 32, scope: !1273)
!1285 = !DILocalVariable(name: "x", scope: !1273, file: !1274, line: 5, type: !1286)
!1286 = distinct !DICompositeType(tag: DW_TAG_class_type, name: "Node", file: !1287, line: 12, size: 128, align: 64, elements: !1288, identifier: "_ZTS4Node")
!1287 = !DIFile(filename: "../src/node.h", directory: "/home/bqpd/workspace_sdsoc/MiniZedMM/Debug")
!1288 = !{!1289, !1290, !1291, !1301, !1307, !1311, !1326, !1342, !1873, !1876, !1879, !1886, !1890, !1891, !1892}
!1289 = !DIDerivedType(tag: DW_TAG_member, name: "value", scope: !1286, file: !1287, line: 14, baseType: !269, size: 64, align: 64)
!1290 = !DIDerivedType(tag: DW_TAG_member, name: "uid", scope: !1286, file: !1287, line: 15, baseType: !91, size: 32, align: 32, offset: 64)
!1291 = !DISubprogram(name: "gradient_recursive", linkageName: "_ZNK4Node18gradient_recursiveEP5GraphRKlS3_", scope: !1286, file: !1287, line: 17, type: !1292, isLocal: false, isDefinition: false, scopeLine: 17, flags: DIFlagPrototyped, isOptimized: false)
!1292 = !DISubroutineType(types: !1293)
!1293 = !{!269, !1294, !1296, !1299, !1299}
!1294 = !DIDerivedType(tag: DW_TAG_pointer_type, baseType: !1295, size: 32, align: 32, flags: DIFlagArtificial | DIFlagObjectPointer)
!1295 = !DIDerivedType(tag: DW_TAG_const_type, baseType: !1286)
!1296 = !DIDerivedType(tag: DW_TAG_pointer_type, baseType: !1297, size: 32, align: 32)
!1297 = !DICompositeType(tag: DW_TAG_class_type, name: "Graph", file: !1298, line: 8, size: 192, align: 32, flags: DIFlagFwdDecl, identifier: "_ZTS5Graph")
!1298 = !DIFile(filename: "../src/graph.h", directory: "/home/bqpd/workspace_sdsoc/MiniZedMM/Debug")
!1299 = !DIDerivedType(tag: DW_TAG_reference_type, baseType: !1300, size: 32, align: 32)
!1300 = !DIDerivedType(tag: DW_TAG_const_type, baseType: !91)
!1301 = !DISubprogram(name: "Node", scope: !1286, file: !1287, line: 20, type: !1302, isLocal: false, isDefinition: false, scopeLine: 20, flags: DIFlagPublic | DIFlagPrototyped, isOptimized: false)
!1302 = !DISubroutineType(types: !1303)
!1303 = !{null, !1304, !1305}
!1304 = !DIDerivedType(tag: DW_TAG_pointer_type, baseType: !1286, size: 32, align: 32, flags: DIFlagArtificial | DIFlagObjectPointer)
!1305 = !DIDerivedType(tag: DW_TAG_reference_type, baseType: !1306, size: 32, align: 32)
!1306 = !DIDerivedType(tag: DW_TAG_const_type, baseType: !269)
!1307 = !DISubprogram(name: "Node", scope: !1286, file: !1287, line: 21, type: !1308, isLocal: false, isDefinition: false, scopeLine: 21, flags: DIFlagPublic | DIFlagPrototyped, isOptimized: false)
!1308 = !DISubroutineType(types: !1309)
!1309 = !{null, !1304, !1310}
!1310 = !DIDerivedType(tag: DW_TAG_reference_type, baseType: !1295, size: 32, align: 32)
!1311 = !DISubprogram(name: "monadic_operation", linkageName: "_ZN4Node17monadic_operationERKS_PF22MonadicOperationResultRKdE", scope: !1286, file: !1287, line: 23, type: !1312, isLocal: false, isDefinition: false, scopeLine: 23, flags: DIFlagPublic | DIFlagPrototyped, isOptimized: false)
!1312 = !DISubroutineType(types: !1313)
!1313 = !{!1286, !1310, !1314}
!1314 = !DIDerivedType(tag: DW_TAG_pointer_type, baseType: !1315, size: 32, align: 32)
!1315 = !DISubroutineType(types: !1316)
!1316 = !{!1317, !1305}
!1317 = distinct !DICompositeType(tag: DW_TAG_structure_type, name: "MonadicOperationResult", file: !1318, line: 4, size: 128, align: 64, elements: !1319, identifier: "_ZTS22MonadicOperationResult")
!1318 = !DIFile(filename: "../src/mor.h", directory: "/home/bqpd/workspace_sdsoc/MiniZedMM/Debug")
!1319 = !{!1320, !1321, !1322}
!1320 = !DIDerivedType(tag: DW_TAG_member, name: "value", scope: !1317, file: !1318, line: 5, baseType: !269, size: 64, align: 64)
!1321 = !DIDerivedType(tag: DW_TAG_member, name: "grad", scope: !1317, file: !1318, line: 6, baseType: !269, size: 64, align: 64, offset: 64)
!1322 = !DISubprogram(name: "MonadicOperationResult", scope: !1317, file: !1318, line: 8, type: !1323, isLocal: false, isDefinition: false, scopeLine: 8, flags: DIFlagPrototyped, isOptimized: false)
!1323 = !DISubroutineType(types: !1324)
!1324 = !{null, !1325, !269, !269}
!1325 = !DIDerivedType(tag: DW_TAG_pointer_type, baseType: !1317, size: 32, align: 32, flags: DIFlagArtificial | DIFlagObjectPointer)
!1326 = !DISubprogram(name: "dyadic_operation", linkageName: "_ZN4Node16dyadic_operationERKS_S1_PF21DyadicOperationResultRKdS4_E", scope: !1286, file: !1287, line: 24, type: !1327, isLocal: false, isDefinition: false, scopeLine: 24, flags: DIFlagPublic | DIFlagPrototyped, isOptimized: false)
!1327 = !DISubroutineType(types: !1328)
!1328 = !{!1286, !1310, !1310, !1329}
!1329 = !DIDerivedType(tag: DW_TAG_pointer_type, baseType: !1330, size: 32, align: 32)
!1330 = !DISubroutineType(types: !1331)
!1331 = !{!1332, !1305, !1305}
!1332 = distinct !DICompositeType(tag: DW_TAG_structure_type, name: "DyadicOperationResult", file: !1333, line: 4, size: 192, align: 64, elements: !1334, identifier: "_ZTS21DyadicOperationResult")
!1333 = !DIFile(filename: "../src/dor.h", directory: "/home/bqpd/workspace_sdsoc/MiniZedMM/Debug")
!1334 = !{!1335, !1336, !1337, !1338}
!1335 = !DIDerivedType(tag: DW_TAG_member, name: "value", scope: !1332, file: !1333, line: 5, baseType: !269, size: 64, align: 64)
!1336 = !DIDerivedType(tag: DW_TAG_member, name: "left_grad", scope: !1332, file: !1333, line: 6, baseType: !269, size: 64, align: 64, offset: 64)
!1337 = !DIDerivedType(tag: DW_TAG_member, name: "right_grad", scope: !1332, file: !1333, line: 7, baseType: !269, size: 64, align: 64, offset: 128)
!1338 = !DISubprogram(name: "DyadicOperationResult", scope: !1332, file: !1333, line: 9, type: !1339, isLocal: false, isDefinition: false, scopeLine: 9, flags: DIFlagPrototyped, isOptimized: false)
!1339 = !DISubroutineType(types: !1340)
!1340 = !{null, !1341, !269, !269, !269}
!1341 = !DIDerivedType(tag: DW_TAG_pointer_type, baseType: !1332, size: 32, align: 32, flags: DIFlagArtificial | DIFlagObjectPointer)
!1342 = !DISubprogram(name: "polyadic_operation", linkageName: "_ZN4Node18polyadic_operationERKSt6vectorIS_SaIS_EEPF23PolyadicOperationResultRKS0_IdSaIdEEE", scope: !1286, file: !1287, line: 25, type: !1343, isLocal: false, isDefinition: false, scopeLine: 25, flags: DIFlagPublic | DIFlagPrototyped, isOptimized: false)
!1343 = !DISubroutineType(types: !1344)
!1344 = !{!1286, !1345, !1349}
!1345 = !DIDerivedType(tag: DW_TAG_reference_type, baseType: !1346, size: 32, align: 32)
!1346 = !DIDerivedType(tag: DW_TAG_const_type, baseType: !1347)
!1347 = !DICompositeType(tag: DW_TAG_class_type, name: "vector<Node, std::allocator<Node> >", scope: !5, file: !1348, line: 216, size: 96, align: 32, flags: DIFlagFwdDecl, identifier: "_ZTSSt6vectorI4NodeSaIS0_EE")
!1348 = !DIFile(filename: "/tools/Xilinx/SDK/2018.3/gnu/aarch32/lin/gcc-arm-none-eabi/arm-none-eabi/include/c++/7.3.1/bits/stl_vector.h", directory: "/home/bqpd/workspace_sdsoc/MiniZedMM/Debug")
!1349 = !DIDerivedType(tag: DW_TAG_pointer_type, baseType: !1350, size: 32, align: 32)
!1350 = !DISubroutineType(types: !1351)
!1351 = !{!1352, !1562}
!1352 = distinct !DICompositeType(tag: DW_TAG_structure_type, name: "PolyadicOperationResult", file: !1353, line: 6, size: 192, align: 64, elements: !1354, identifier: "_ZTS23PolyadicOperationResult")
!1353 = !DIFile(filename: "../src/por.h", directory: "/home/bqpd/workspace_sdsoc/MiniZedMM/Debug")
!1354 = !{!1355, !1356, !1869}
!1355 = !DIDerivedType(tag: DW_TAG_member, name: "value", scope: !1352, file: !1353, line: 7, baseType: !269, size: 64, align: 64)
!1356 = !DIDerivedType(tag: DW_TAG_member, name: "gradients", scope: !1352, file: !1353, line: 8, baseType: !1357, size: 96, align: 32, offset: 64)
!1357 = distinct !DICompositeType(tag: DW_TAG_class_type, name: "vector<double, std::allocator<double> >", scope: !5, file: !1348, line: 216, size: 96, align: 32, elements: !1358, templateParams: !1538, identifier: "_ZTSSt6vectorIdSaIdEE")
!1358 = !{!1359, !1539, !1543, !1549, !1553, !1559, !1564, !1568, !1571, !1574, !1579, !1580, !1584, !1587, !1590, !1593, !1596, !1656, !1714, !1715, !1716, !1721, !1726, !1727, !1728, !1729, !1730, !1731, !1732, !1735, !1736, !1739, !1740, !1741, !1742, !1745, !1746, !1754, !1761, !1764, !1765, !1766, !1769, !1772, !1773, !1774, !1777, !1780, !1783, !1787, !1788, !1791, !1794, !1797, !1800, !1803, !1806, !1809, !1810, !1811, !1812, !1813, !1816, !1817, !1820, !1821, !1822, !1826, !1830, !1833, !1836, !1854}
!1359 = !DIDerivedType(tag: DW_TAG_inheritance, scope: !1357, baseType: !1360, flags: DIFlagProtected)
!1360 = distinct !DICompositeType(tag: DW_TAG_structure_type, name: "_Vector_base<double, std::allocator<double> >", scope: !5, file: !1348, line: 74, size: 96, align: 32, elements: !1361, templateParams: !1538, identifier: "_ZTSSt12_Vector_baseIdSaIdEE")
!1361 = !{!1362, !1492, !1497, !1502, !1506, !1509, !1514, !1517, !1520, !1523, !1527, !1530, !1531, !1534, !1537}
!1362 = !DIDerivedType(tag: DW_TAG_member, name: "_M_impl", scope: !1360, file: !1348, line: 166, baseType: !1363, size: 96, align: 32)
!1363 = distinct !DICompositeType(tag: DW_TAG_structure_type, name: "_Vector_impl", scope: !1360, file: !1348, line: 81, size: 96, align: 32, elements: !1364, identifier: "_ZTSNSt12_Vector_baseIdSaIdEE12_Vector_implE")
!1364 = !{!1365, !1470, !1473, !1474, !1475, !1479, !1484, !1488}
!1365 = !DIDerivedType(tag: DW_TAG_inheritance, scope: !1363, baseType: !1366)
!1366 = !DIDerivedType(tag: DW_TAG_typedef, name: "_Tp_alloc_type", scope: !1360, file: !1348, line: 77, baseType: !1367)
!1367 = !DIDerivedType(tag: DW_TAG_typedef, name: "other", scope: !1369, file: !1368, line: 117, baseType: !1469)
!1368 = !DIFile(filename: "/tools/Xilinx/SDK/2018.3/gnu/aarch32/lin/gcc-arm-none-eabi/arm-none-eabi/include/c++/7.3.1/ext/alloc_traits.h", directory: "/home/bqpd/workspace_sdsoc/MiniZedMM/Debug")
!1369 = distinct !DICompositeType(tag: DW_TAG_structure_type, name: "rebind<double>", scope: !1370, file: !1368, line: 116, size: 8, align: 8, elements: !2, templateParams: !1424, identifier: "_ZTSN9__gnu_cxx14__alloc_traitsISaIdEE6rebindIdEE")
!1370 = distinct !DICompositeType(tag: DW_TAG_structure_type, name: "__alloc_traits<std::allocator<double> >", scope: !330, file: !1368, line: 50, size: 8, align: 8, elements: !1371, templateParams: !1453, identifier: "_ZTSN9__gnu_cxx14__alloc_traitsISaIdEEE")
!1371 = !{!1372, !1455, !1458, !1462, !1465, !1466, !1467, !1468}
!1372 = !DIDerivedType(tag: DW_TAG_inheritance, scope: !1370, baseType: !1373)
!1373 = distinct !DICompositeType(tag: DW_TAG_structure_type, name: "allocator_traits<std::allocator<double> >", scope: !5, file: !1374, line: 384, size: 8, align: 8, elements: !1375, templateParams: !1453, identifier: "_ZTSSt16allocator_traitsISaIdEE")
!1374 = !DIFile(filename: "/tools/Xilinx/SDK/2018.3/gnu/aarch32/lin/gcc-arm-none-eabi/arm-none-eabi/include/c++/7.3.1/bits/alloc_traits.h", directory: "/home/bqpd/workspace_sdsoc/MiniZedMM/Debug")
!1375 = !{!1376, !1437, !1441, !1444, !1450}
!1376 = !DISubprogram(name: "allocate", linkageName: "_ZNSt16allocator_traitsISaIdEE8allocateERS0_j", scope: !1373, file: !1374, line: 435, type: !1377, isLocal: false, isDefinition: false, scopeLine: 435, flags: DIFlagPrototyped, isOptimized: false)
!1377 = !DISubroutineType(types: !1378)
!1378 = !{!1379, !1380, !1436}
!1379 = !DIDerivedType(tag: DW_TAG_typedef, name: "pointer", scope: !1373, file: !1374, line: 392, baseType: !977)
!1380 = !DIDerivedType(tag: DW_TAG_reference_type, baseType: !1381, size: 32, align: 32)
!1381 = !DIDerivedType(tag: DW_TAG_typedef, name: "allocator_type", scope: !1373, file: !1374, line: 387, baseType: !1382)
!1382 = distinct !DICompositeType(tag: DW_TAG_class_type, name: "allocator<double>", scope: !5, file: !1383, line: 108, size: 8, align: 8, elements: !1384, templateParams: !1424, identifier: "_ZTSSaIdE")
!1383 = !DIFile(filename: "/tools/Xilinx/SDK/2018.3/gnu/aarch32/lin/gcc-arm-none-eabi/arm-none-eabi/include/c++/7.3.1/bits/allocator.h", directory: "/home/bqpd/workspace_sdsoc/MiniZedMM/Debug")
!1384 = !{!1385, !1426, !1430, !1435}
!1385 = !DIDerivedType(tag: DW_TAG_inheritance, scope: !1382, baseType: !1386, flags: DIFlagPublic)
!1386 = !DIDerivedType(tag: DW_TAG_typedef, name: "__allocator_base<double>", scope: !5, file: !1387, line: 48, baseType: !1388)
!1387 = !DIFile(filename: "/tools/Xilinx/SDK/2018.3/gnu/aarch32/lin/gcc-arm-none-eabi/arm-none-eabi/include/c++/7.3.1/arm-none-eabi/bits/c++allocator.h", directory: "/home/bqpd/workspace_sdsoc/MiniZedMM/Debug")
!1388 = distinct !DICompositeType(tag: DW_TAG_class_type, name: "new_allocator<double>", scope: !330, file: !1389, line: 58, size: 8, align: 8, elements: !1390, templateParams: !1424, identifier: "_ZTSN9__gnu_cxx13new_allocatorIdEE")
!1389 = !DIFile(filename: "/tools/Xilinx/SDK/2018.3/gnu/aarch32/lin/gcc-arm-none-eabi/arm-none-eabi/include/c++/7.3.1/ext/new_allocator.h", directory: "/home/bqpd/workspace_sdsoc/MiniZedMM/Debug")
!1390 = !{!1391, !1395, !1400, !1401, !1408, !1414, !1418, !1421}
!1391 = !DISubprogram(name: "new_allocator", scope: !1388, file: !1389, line: 79, type: !1392, isLocal: false, isDefinition: false, scopeLine: 79, flags: DIFlagPublic | DIFlagPrototyped, isOptimized: false)
!1392 = !DISubroutineType(types: !1393)
!1393 = !{null, !1394}
!1394 = !DIDerivedType(tag: DW_TAG_pointer_type, baseType: !1388, size: 32, align: 32, flags: DIFlagArtificial | DIFlagObjectPointer)
!1395 = !DISubprogram(name: "new_allocator", scope: !1388, file: !1389, line: 81, type: !1396, isLocal: false, isDefinition: false, scopeLine: 81, flags: DIFlagPublic | DIFlagPrototyped, isOptimized: false)
!1396 = !DISubroutineType(types: !1397)
!1397 = !{null, !1394, !1398}
!1398 = !DIDerivedType(tag: DW_TAG_reference_type, baseType: !1399, size: 32, align: 32)
!1399 = !DIDerivedType(tag: DW_TAG_const_type, baseType: !1388)
!1400 = !DISubprogram(name: "~new_allocator", scope: !1388, file: !1389, line: 86, type: !1392, isLocal: false, isDefinition: false, scopeLine: 86, flags: DIFlagPublic | DIFlagPrototyped, isOptimized: false)
!1401 = !DISubprogram(name: "address", linkageName: "_ZNK9__gnu_cxx13new_allocatorIdE7addressERd", scope: !1388, file: !1389, line: 89, type: !1402, isLocal: false, isDefinition: false, scopeLine: 89, flags: DIFlagPublic | DIFlagPrototyped, isOptimized: false)
!1402 = !DISubroutineType(types: !1403)
!1403 = !{!1404, !1405, !1406}
!1404 = !DIDerivedType(tag: DW_TAG_typedef, name: "pointer", scope: !1388, file: !1389, line: 63, baseType: !977)
!1405 = !DIDerivedType(tag: DW_TAG_pointer_type, baseType: !1399, size: 32, align: 32, flags: DIFlagArtificial | DIFlagObjectPointer)
!1406 = !DIDerivedType(tag: DW_TAG_typedef, name: "reference", scope: !1388, file: !1389, line: 65, baseType: !1407)
!1407 = !DIDerivedType(tag: DW_TAG_reference_type, baseType: !269, size: 32, align: 32)
!1408 = !DISubprogram(name: "address", linkageName: "_ZNK9__gnu_cxx13new_allocatorIdE7addressERKd", scope: !1388, file: !1389, line: 93, type: !1409, isLocal: false, isDefinition: false, scopeLine: 93, flags: DIFlagPublic | DIFlagPrototyped, isOptimized: false)
!1409 = !DISubroutineType(types: !1410)
!1410 = !{!1411, !1405, !1413}
!1411 = !DIDerivedType(tag: DW_TAG_typedef, name: "const_pointer", scope: !1388, file: !1389, line: 64, baseType: !1412)
!1412 = !DIDerivedType(tag: DW_TAG_pointer_type, baseType: !1306, size: 32, align: 32)
!1413 = !DIDerivedType(tag: DW_TAG_typedef, name: "const_reference", scope: !1388, file: !1389, line: 66, baseType: !1305)
!1414 = !DISubprogram(name: "allocate", linkageName: "_ZN9__gnu_cxx13new_allocatorIdE8allocateEjPKv", scope: !1388, file: !1389, line: 99, type: !1415, isLocal: false, isDefinition: false, scopeLine: 99, flags: DIFlagPublic | DIFlagPrototyped, isOptimized: false)
!1415 = !DISubroutineType(types: !1416)
!1416 = !{!1404, !1394, !1417, !580}
!1417 = !DIDerivedType(tag: DW_TAG_typedef, name: "size_type", file: !1389, line: 61, baseType: !540)
!1418 = !DISubprogram(name: "deallocate", linkageName: "_ZN9__gnu_cxx13new_allocatorIdE10deallocateEPdj", scope: !1388, file: !1389, line: 116, type: !1419, isLocal: false, isDefinition: false, scopeLine: 116, flags: DIFlagPublic | DIFlagPrototyped, isOptimized: false)
!1419 = !DISubroutineType(types: !1420)
!1420 = !{null, !1394, !1404, !1417}
!1421 = !DISubprogram(name: "max_size", linkageName: "_ZNK9__gnu_cxx13new_allocatorIdE8max_sizeEv", scope: !1388, file: !1389, line: 129, type: !1422, isLocal: false, isDefinition: false, scopeLine: 129, flags: DIFlagPublic | DIFlagPrototyped, isOptimized: false)
!1422 = !DISubroutineType(types: !1423)
!1423 = !{!1417, !1405}
!1424 = !{!1425}
!1425 = !DITemplateTypeParameter(name: "_Tp", type: !269)
!1426 = !DISubprogram(name: "allocator", scope: !1382, file: !1383, line: 131, type: !1427, isLocal: false, isDefinition: false, scopeLine: 131, flags: DIFlagPublic | DIFlagPrototyped, isOptimized: false)
!1427 = !DISubroutineType(types: !1428)
!1428 = !{null, !1429}
!1429 = !DIDerivedType(tag: DW_TAG_pointer_type, baseType: !1382, size: 32, align: 32, flags: DIFlagArtificial | DIFlagObjectPointer)
!1430 = !DISubprogram(name: "allocator", scope: !1382, file: !1383, line: 133, type: !1431, isLocal: false, isDefinition: false, scopeLine: 133, flags: DIFlagPublic | DIFlagPrototyped, isOptimized: false)
!1431 = !DISubroutineType(types: !1432)
!1432 = !{null, !1429, !1433}
!1433 = !DIDerivedType(tag: DW_TAG_reference_type, baseType: !1434, size: 32, align: 32)
!1434 = !DIDerivedType(tag: DW_TAG_const_type, baseType: !1382)
!1435 = !DISubprogram(name: "~allocator", scope: !1382, file: !1383, line: 139, type: !1427, isLocal: false, isDefinition: false, scopeLine: 139, flags: DIFlagPublic | DIFlagPrototyped, isOptimized: false)
!1436 = !DIDerivedType(tag: DW_TAG_typedef, name: "size_type", file: !1374, line: 407, baseType: !540)
!1437 = !DISubprogram(name: "allocate", linkageName: "_ZNSt16allocator_traitsISaIdEE8allocateERS0_jPKv", scope: !1373, file: !1374, line: 449, type: !1438, isLocal: false, isDefinition: false, scopeLine: 449, flags: DIFlagPrototyped, isOptimized: false)
!1438 = !DISubroutineType(types: !1439)
!1439 = !{!1379, !1380, !1436, !1440}
!1440 = !DIDerivedType(tag: DW_TAG_typedef, name: "const_void_pointer", file: !1374, line: 401, baseType: !580)
!1441 = !DISubprogram(name: "deallocate", linkageName: "_ZNSt16allocator_traitsISaIdEE10deallocateERS0_Pdj", scope: !1373, file: !1374, line: 461, type: !1442, isLocal: false, isDefinition: false, scopeLine: 461, flags: DIFlagPrototyped, isOptimized: false)
!1442 = !DISubroutineType(types: !1443)
!1443 = !{null, !1380, !1379, !1436}
!1444 = !DISubprogram(name: "max_size", linkageName: "_ZNSt16allocator_traitsISaIdEE8max_sizeERKS0_", scope: !1373, file: !1374, line: 495, type: !1445, isLocal: false, isDefinition: false, scopeLine: 495, flags: DIFlagPrototyped, isOptimized: false)
!1445 = !DISubroutineType(types: !1446)
!1446 = !{!1447, !1448}
!1447 = !DIDerivedType(tag: DW_TAG_typedef, name: "size_type", scope: !1373, file: !1374, line: 407, baseType: !540)
!1448 = !DIDerivedType(tag: DW_TAG_reference_type, baseType: !1449, size: 32, align: 32)
!1449 = !DIDerivedType(tag: DW_TAG_const_type, baseType: !1381)
!1450 = !DISubprogram(name: "select_on_container_copy_construction", linkageName: "_ZNSt16allocator_traitsISaIdEE37select_on_container_copy_constructionERKS0_", scope: !1373, file: !1374, line: 504, type: !1451, isLocal: false, isDefinition: false, scopeLine: 504, flags: DIFlagPrototyped, isOptimized: false)
!1451 = !DISubroutineType(types: !1452)
!1452 = !{!1381, !1448}
!1453 = !{!1454}
!1454 = !DITemplateTypeParameter(name: "_Alloc", type: !1382)
!1455 = !DISubprogram(name: "_S_select_on_copy", linkageName: "_ZN9__gnu_cxx14__alloc_traitsISaIdEE17_S_select_on_copyERKS1_", scope: !1370, file: !1368, line: 94, type: !1456, isLocal: false, isDefinition: false, scopeLine: 94, flags: DIFlagPrototyped, isOptimized: false)
!1456 = !DISubroutineType(types: !1457)
!1457 = !{!1382, !1433}
!1458 = !DISubprogram(name: "_S_on_swap", linkageName: "_ZN9__gnu_cxx14__alloc_traitsISaIdEE10_S_on_swapERS1_S3_", scope: !1370, file: !1368, line: 97, type: !1459, isLocal: false, isDefinition: false, scopeLine: 97, flags: DIFlagPrototyped, isOptimized: false)
!1459 = !DISubroutineType(types: !1460)
!1460 = !{null, !1461, !1461}
!1461 = !DIDerivedType(tag: DW_TAG_reference_type, baseType: !1382, size: 32, align: 32)
!1462 = !DISubprogram(name: "_S_propagate_on_copy_assign", linkageName: "_ZN9__gnu_cxx14__alloc_traitsISaIdEE27_S_propagate_on_copy_assignEv", scope: !1370, file: !1368, line: 100, type: !1463, isLocal: false, isDefinition: false, scopeLine: 100, flags: DIFlagPrototyped, isOptimized: false)
!1463 = !DISubroutineType(types: !1464)
!1464 = !{!17}
!1465 = !DISubprogram(name: "_S_propagate_on_move_assign", linkageName: "_ZN9__gnu_cxx14__alloc_traitsISaIdEE27_S_propagate_on_move_assignEv", scope: !1370, file: !1368, line: 103, type: !1463, isLocal: false, isDefinition: false, scopeLine: 103, flags: DIFlagPrototyped, isOptimized: false)
!1466 = !DISubprogram(name: "_S_propagate_on_swap", linkageName: "_ZN9__gnu_cxx14__alloc_traitsISaIdEE20_S_propagate_on_swapEv", scope: !1370, file: !1368, line: 106, type: !1463, isLocal: false, isDefinition: false, scopeLine: 106, flags: DIFlagPrototyped, isOptimized: false)
!1467 = !DISubprogram(name: "_S_always_equal", linkageName: "_ZN9__gnu_cxx14__alloc_traitsISaIdEE15_S_always_equalEv", scope: !1370, file: !1368, line: 109, type: !1463, isLocal: false, isDefinition: false, scopeLine: 109, flags: DIFlagPrototyped, isOptimized: false)
!1468 = !DISubprogram(name: "_S_nothrow_move", linkageName: "_ZN9__gnu_cxx14__alloc_traitsISaIdEE15_S_nothrow_moveEv", scope: !1370, file: !1368, line: 112, type: !1463, isLocal: false, isDefinition: false, scopeLine: 112, flags: DIFlagPrototyped, isOptimized: false)
!1469 = !DIDerivedType(tag: DW_TAG_typedef, name: "rebind_alloc<double>", scope: !1373, file: !1374, line: 422, baseType: !1382)
!1470 = !DIDerivedType(tag: DW_TAG_member, name: "_M_start", scope: !1363, file: !1348, line: 84, baseType: !1471, size: 32, align: 32)
!1471 = !DIDerivedType(tag: DW_TAG_typedef, name: "pointer", scope: !1360, file: !1348, line: 79, baseType: !1472)
!1472 = !DIDerivedType(tag: DW_TAG_typedef, name: "pointer", scope: !1370, file: !1368, line: 59, baseType: !1379)
!1473 = !DIDerivedType(tag: DW_TAG_member, name: "_M_finish", scope: !1363, file: !1348, line: 85, baseType: !1471, size: 32, align: 32, offset: 32)
!1474 = !DIDerivedType(tag: DW_TAG_member, name: "_M_end_of_storage", scope: !1363, file: !1348, line: 86, baseType: !1471, size: 32, align: 32, offset: 64)
!1475 = !DISubprogram(name: "_Vector_impl", scope: !1363, file: !1348, line: 88, type: !1476, isLocal: false, isDefinition: false, scopeLine: 88, flags: DIFlagPrototyped, isOptimized: false)
!1476 = !DISubroutineType(types: !1477)
!1477 = !{null, !1478}
!1478 = !DIDerivedType(tag: DW_TAG_pointer_type, baseType: !1363, size: 32, align: 32, flags: DIFlagArtificial | DIFlagObjectPointer)
!1479 = !DISubprogram(name: "_Vector_impl", scope: !1363, file: !1348, line: 92, type: !1480, isLocal: false, isDefinition: false, scopeLine: 92, flags: DIFlagPrototyped, isOptimized: false)
!1480 = !DISubroutineType(types: !1481)
!1481 = !{null, !1478, !1482}
!1482 = !DIDerivedType(tag: DW_TAG_reference_type, baseType: !1483, size: 32, align: 32)
!1483 = !DIDerivedType(tag: DW_TAG_const_type, baseType: !1366)
!1484 = !DISubprogram(name: "_Vector_impl", scope: !1363, file: !1348, line: 97, type: !1485, isLocal: false, isDefinition: false, scopeLine: 97, flags: DIFlagPrototyped, isOptimized: false)
!1485 = !DISubroutineType(types: !1486)
!1486 = !{null, !1478, !1487}
!1487 = !DIDerivedType(tag: DW_TAG_rvalue_reference_type, baseType: !1366, size: 32, align: 32)
!1488 = !DISubprogram(name: "_M_swap_data", linkageName: "_ZNSt12_Vector_baseIdSaIdEE12_Vector_impl12_M_swap_dataERS2_", scope: !1363, file: !1348, line: 103, type: !1489, isLocal: false, isDefinition: false, scopeLine: 103, flags: DIFlagPrototyped, isOptimized: false)
!1489 = !DISubroutineType(types: !1490)
!1490 = !{null, !1478, !1491}
!1491 = !DIDerivedType(tag: DW_TAG_reference_type, baseType: !1363, size: 32, align: 32)
!1492 = !DISubprogram(name: "_M_get_Tp_allocator", linkageName: "_ZNSt12_Vector_baseIdSaIdEE19_M_get_Tp_allocatorEv", scope: !1360, file: !1348, line: 115, type: !1493, isLocal: false, isDefinition: false, scopeLine: 115, flags: DIFlagPrototyped, isOptimized: false)
!1493 = !DISubroutineType(types: !1494)
!1494 = !{!1495, !1496}
!1495 = !DIDerivedType(tag: DW_TAG_reference_type, baseType: !1366, size: 32, align: 32)
!1496 = !DIDerivedType(tag: DW_TAG_pointer_type, baseType: !1360, size: 32, align: 32, flags: DIFlagArtificial | DIFlagObjectPointer)
!1497 = !DISubprogram(name: "_M_get_Tp_allocator", linkageName: "_ZNKSt12_Vector_baseIdSaIdEE19_M_get_Tp_allocatorEv", scope: !1360, file: !1348, line: 119, type: !1498, isLocal: false, isDefinition: false, scopeLine: 119, flags: DIFlagPrototyped, isOptimized: false)
!1498 = !DISubroutineType(types: !1499)
!1499 = !{!1482, !1500}
!1500 = !DIDerivedType(tag: DW_TAG_pointer_type, baseType: !1501, size: 32, align: 32, flags: DIFlagArtificial | DIFlagObjectPointer)
!1501 = !DIDerivedType(tag: DW_TAG_const_type, baseType: !1360)
!1502 = !DISubprogram(name: "get_allocator", linkageName: "_ZNKSt12_Vector_baseIdSaIdEE13get_allocatorEv", scope: !1360, file: !1348, line: 123, type: !1503, isLocal: false, isDefinition: false, scopeLine: 123, flags: DIFlagPrototyped, isOptimized: false)
!1503 = !DISubroutineType(types: !1504)
!1504 = !{!1505, !1500}
!1505 = !DIDerivedType(tag: DW_TAG_typedef, name: "allocator_type", scope: !1360, file: !1348, line: 112, baseType: !1382)
!1506 = !DISubprogram(name: "_Vector_base", scope: !1360, file: !1348, line: 126, type: !1507, isLocal: false, isDefinition: false, scopeLine: 126, flags: DIFlagPrototyped, isOptimized: false)
!1507 = !DISubroutineType(types: !1508)
!1508 = !{null, !1496}
!1509 = !DISubprogram(name: "_Vector_base", scope: !1360, file: !1348, line: 129, type: !1510, isLocal: false, isDefinition: false, scopeLine: 129, flags: DIFlagPrototyped, isOptimized: false)
!1510 = !DISubroutineType(types: !1511)
!1511 = !{null, !1496, !1512}
!1512 = !DIDerivedType(tag: DW_TAG_reference_type, baseType: !1513, size: 32, align: 32)
!1513 = !DIDerivedType(tag: DW_TAG_const_type, baseType: !1505)
!1514 = !DISubprogram(name: "_Vector_base", scope: !1360, file: !1348, line: 132, type: !1515, isLocal: false, isDefinition: false, scopeLine: 132, flags: DIFlagPrototyped, isOptimized: false)
!1515 = !DISubroutineType(types: !1516)
!1516 = !{null, !1496, !540}
!1517 = !DISubprogram(name: "_Vector_base", scope: !1360, file: !1348, line: 136, type: !1518, isLocal: false, isDefinition: false, scopeLine: 136, flags: DIFlagPrototyped, isOptimized: false)
!1518 = !DISubroutineType(types: !1519)
!1519 = !{null, !1496, !540, !1512}
!1520 = !DISubprogram(name: "_Vector_base", scope: !1360, file: !1348, line: 141, type: !1521, isLocal: false, isDefinition: false, scopeLine: 141, flags: DIFlagPrototyped, isOptimized: false)
!1521 = !DISubroutineType(types: !1522)
!1522 = !{null, !1496, !1487}
!1523 = !DISubprogram(name: "_Vector_base", scope: !1360, file: !1348, line: 144, type: !1524, isLocal: false, isDefinition: false, scopeLine: 144, flags: DIFlagPrototyped, isOptimized: false)
!1524 = !DISubroutineType(types: !1525)
!1525 = !{null, !1496, !1526}
!1526 = !DIDerivedType(tag: DW_TAG_rvalue_reference_type, baseType: !1360, size: 32, align: 32)
!1527 = !DISubprogram(name: "_Vector_base", scope: !1360, file: !1348, line: 148, type: !1528, isLocal: false, isDefinition: false, scopeLine: 148, flags: DIFlagPrototyped, isOptimized: false)
!1528 = !DISubroutineType(types: !1529)
!1529 = !{null, !1496, !1526, !1512}
!1530 = !DISubprogram(name: "~_Vector_base", scope: !1360, file: !1348, line: 161, type: !1507, isLocal: false, isDefinition: false, scopeLine: 161, flags: DIFlagPrototyped, isOptimized: false)
!1531 = !DISubprogram(name: "_M_allocate", linkageName: "_ZNSt12_Vector_baseIdSaIdEE11_M_allocateEj", scope: !1360, file: !1348, line: 169, type: !1532, isLocal: false, isDefinition: false, scopeLine: 169, flags: DIFlagPrototyped, isOptimized: false)
!1532 = !DISubroutineType(types: !1533)
!1533 = !{!1471, !1496, !540}
!1534 = !DISubprogram(name: "_M_deallocate", linkageName: "_ZNSt12_Vector_baseIdSaIdEE13_M_deallocateEPdj", scope: !1360, file: !1348, line: 176, type: !1535, isLocal: false, isDefinition: false, scopeLine: 176, flags: DIFlagPrototyped, isOptimized: false)
!1535 = !DISubroutineType(types: !1536)
!1536 = !{null, !1496, !1471, !540}
!1537 = !DISubprogram(name: "_M_create_storage", linkageName: "_ZNSt12_Vector_baseIdSaIdEE17_M_create_storageEj", scope: !1360, file: !1348, line: 185, type: !1515, isLocal: false, isDefinition: false, scopeLine: 185, flags: DIFlagPrivate | DIFlagPrototyped, isOptimized: false)
!1538 = !{!1425, !1454}
!1539 = !DISubprogram(name: "vector", scope: !1357, file: !1348, line: 259, type: !1540, isLocal: false, isDefinition: false, scopeLine: 259, flags: DIFlagPublic | DIFlagPrototyped, isOptimized: false)
!1540 = !DISubroutineType(types: !1541)
!1541 = !{null, !1542}
!1542 = !DIDerivedType(tag: DW_TAG_pointer_type, baseType: !1357, size: 32, align: 32, flags: DIFlagArtificial | DIFlagObjectPointer)
!1543 = !DISubprogram(name: "vector", scope: !1357, file: !1348, line: 270, type: !1544, isLocal: false, isDefinition: false, scopeLine: 270, flags: DIFlagPublic | DIFlagExplicit | DIFlagPrototyped, isOptimized: false)
!1544 = !DISubroutineType(types: !1545)
!1545 = !{null, !1542, !1546}
!1546 = !DIDerivedType(tag: DW_TAG_reference_type, baseType: !1547, size: 32, align: 32)
!1547 = !DIDerivedType(tag: DW_TAG_const_type, baseType: !1548)
!1548 = !DIDerivedType(tag: DW_TAG_typedef, name: "allocator_type", scope: !1357, file: !1348, line: 244, baseType: !1382)
!1549 = !DISubprogram(name: "vector", scope: !1357, file: !1348, line: 283, type: !1550, isLocal: false, isDefinition: false, scopeLine: 283, flags: DIFlagPublic | DIFlagExplicit | DIFlagPrototyped, isOptimized: false)
!1550 = !DISubroutineType(types: !1551)
!1551 = !{null, !1542, !1552, !1546}
!1552 = !DIDerivedType(tag: DW_TAG_typedef, name: "size_type", file: !1348, line: 242, baseType: !540)
!1553 = !DISubprogram(name: "vector", scope: !1357, file: !1348, line: 295, type: !1554, isLocal: false, isDefinition: false, scopeLine: 295, flags: DIFlagPublic | DIFlagPrototyped, isOptimized: false)
!1554 = !DISubroutineType(types: !1555)
!1555 = !{null, !1542, !1552, !1556, !1546}
!1556 = !DIDerivedType(tag: DW_TAG_reference_type, baseType: !1557, size: 32, align: 32)
!1557 = !DIDerivedType(tag: DW_TAG_const_type, baseType: !1558)
!1558 = !DIDerivedType(tag: DW_TAG_typedef, name: "value_type", scope: !1357, file: !1348, line: 232, baseType: !269)
!1559 = !DISubprogram(name: "vector", scope: !1357, file: !1348, line: 326, type: !1560, isLocal: false, isDefinition: false, scopeLine: 326, flags: DIFlagPublic | DIFlagPrototyped, isOptimized: false)
!1560 = !DISubroutineType(types: !1561)
!1561 = !{null, !1542, !1562}
!1562 = !DIDerivedType(tag: DW_TAG_reference_type, baseType: !1563, size: 32, align: 32)
!1563 = !DIDerivedType(tag: DW_TAG_const_type, baseType: !1357)
!1564 = !DISubprogram(name: "vector", scope: !1357, file: !1348, line: 344, type: !1565, isLocal: false, isDefinition: false, scopeLine: 344, flags: DIFlagPublic | DIFlagPrototyped, isOptimized: false)
!1565 = !DISubroutineType(types: !1566)
!1566 = !{null, !1542, !1567}
!1567 = !DIDerivedType(tag: DW_TAG_rvalue_reference_type, baseType: !1357, size: 32, align: 32)
!1568 = !DISubprogram(name: "vector", scope: !1357, file: !1348, line: 348, type: !1569, isLocal: false, isDefinition: false, scopeLine: 348, flags: DIFlagPublic | DIFlagPrototyped, isOptimized: false)
!1569 = !DISubroutineType(types: !1570)
!1570 = !{null, !1542, !1562, !1546}
!1571 = !DISubprogram(name: "vector", scope: !1357, file: !1348, line: 358, type: !1572, isLocal: false, isDefinition: false, scopeLine: 358, flags: DIFlagPublic | DIFlagPrototyped, isOptimized: false)
!1572 = !DISubroutineType(types: !1573)
!1573 = !{null, !1542, !1567, !1546}
!1574 = !DISubprogram(name: "vector", scope: !1357, file: !1348, line: 383, type: !1575, isLocal: false, isDefinition: false, scopeLine: 383, flags: DIFlagPublic | DIFlagPrototyped, isOptimized: false)
!1575 = !DISubroutineType(types: !1576)
!1576 = !{null, !1542, !1577, !1546}
!1577 = !DICompositeType(tag: DW_TAG_class_type, name: "initializer_list<double>", scope: !5, file: !1578, line: 47, size: 64, align: 32, flags: DIFlagFwdDecl, identifier: "_ZTSSt16initializer_listIdE")
!1578 = !DIFile(filename: "/tools/Xilinx/SDK/2018.3/gnu/aarch32/lin/gcc-arm-none-eabi/arm-none-eabi/include/c++/7.3.1/initializer_list", directory: "/home/bqpd/workspace_sdsoc/MiniZedMM/Debug")
!1579 = !DISubprogram(name: "~vector", scope: !1357, file: !1348, line: 433, type: !1540, isLocal: false, isDefinition: false, scopeLine: 433, flags: DIFlagPublic | DIFlagPrototyped, isOptimized: false)
!1580 = !DISubprogram(name: "operator=", linkageName: "_ZNSt6vectorIdSaIdEEaSERKS1_", scope: !1357, file: !1348, line: 447, type: !1581, isLocal: false, isDefinition: false, scopeLine: 447, flags: DIFlagPublic | DIFlagPrototyped, isOptimized: false)
!1581 = !DISubroutineType(types: !1582)
!1582 = !{!1583, !1542, !1562}
!1583 = !DIDerivedType(tag: DW_TAG_reference_type, baseType: !1357, size: 32, align: 32)
!1584 = !DISubprogram(name: "operator=", linkageName: "_ZNSt6vectorIdSaIdEEaSEOS1_", scope: !1357, file: !1348, line: 461, type: !1585, isLocal: false, isDefinition: false, scopeLine: 461, flags: DIFlagPublic | DIFlagPrototyped, isOptimized: false)
!1585 = !DISubroutineType(types: !1586)
!1586 = !{!1583, !1542, !1567}
!1587 = !DISubprogram(name: "operator=", linkageName: "_ZNSt6vectorIdSaIdEEaSESt16initializer_listIdE", scope: !1357, file: !1348, line: 482, type: !1588, isLocal: false, isDefinition: false, scopeLine: 482, flags: DIFlagPublic | DIFlagPrototyped, isOptimized: false)
!1588 = !DISubroutineType(types: !1589)
!1589 = !{!1583, !1542, !1577}
!1590 = !DISubprogram(name: "assign", linkageName: "_ZNSt6vectorIdSaIdEE6assignEjRKd", scope: !1357, file: !1348, line: 501, type: !1591, isLocal: false, isDefinition: false, scopeLine: 501, flags: DIFlagPublic | DIFlagPrototyped, isOptimized: false)
!1591 = !DISubroutineType(types: !1592)
!1592 = !{null, !1542, !1552, !1556}
!1593 = !DISubprogram(name: "assign", linkageName: "_ZNSt6vectorIdSaIdEE6assignESt16initializer_listIdE", scope: !1357, file: !1348, line: 546, type: !1594, isLocal: false, isDefinition: false, scopeLine: 546, flags: DIFlagPublic | DIFlagPrototyped, isOptimized: false)
!1594 = !DISubroutineType(types: !1595)
!1595 = !{null, !1542, !1577}
!1596 = !DISubprogram(name: "begin", linkageName: "_ZNSt6vectorIdSaIdEE5beginEv", scope: !1357, file: !1348, line: 563, type: !1597, isLocal: false, isDefinition: false, scopeLine: 563, flags: DIFlagPublic | DIFlagPrototyped, isOptimized: false)
!1597 = !DISubroutineType(types: !1598)
!1598 = !{!1599, !1542}
!1599 = !DIDerivedType(tag: DW_TAG_typedef, name: "iterator", scope: !1357, file: !1348, line: 237, baseType: !1600)
!1600 = distinct !DICompositeType(tag: DW_TAG_class_type, name: "__normal_iterator<double *, std::vector<double, std::allocator<double> > >", scope: !330, file: !1601, line: 760, size: 32, align: 32, elements: !1602, templateParams: !1654, identifier: "_ZTSN9__gnu_cxx17__normal_iteratorIPdSt6vectorIdSaIdEEEE")
!1601 = !DIFile(filename: "/tools/Xilinx/SDK/2018.3/gnu/aarch32/lin/gcc-arm-none-eabi/arm-none-eabi/include/c++/7.3.1/bits/stl_iterator.h", directory: "/home/bqpd/workspace_sdsoc/MiniZedMM/Debug")
!1602 = !{!1603, !1604, !1608, !1613, !1624, !1629, !1633, !1636, !1637, !1638, !1643, !1646, !1649, !1650, !1651}
!1603 = !DIDerivedType(tag: DW_TAG_member, name: "_M_current", scope: !1600, file: !1601, line: 763, baseType: !977, size: 32, align: 32, flags: DIFlagProtected)
!1604 = !DISubprogram(name: "__normal_iterator", scope: !1600, file: !1601, line: 775, type: !1605, isLocal: false, isDefinition: false, scopeLine: 775, flags: DIFlagPublic | DIFlagPrototyped, isOptimized: false)
!1605 = !DISubroutineType(types: !1606)
!1606 = !{null, !1607}
!1607 = !DIDerivedType(tag: DW_TAG_pointer_type, baseType: !1600, size: 32, align: 32, flags: DIFlagArtificial | DIFlagObjectPointer)
!1608 = !DISubprogram(name: "__normal_iterator", scope: !1600, file: !1601, line: 779, type: !1609, isLocal: false, isDefinition: false, scopeLine: 779, flags: DIFlagPublic | DIFlagExplicit | DIFlagPrototyped, isOptimized: false)
!1609 = !DISubroutineType(types: !1610)
!1610 = !{null, !1607, !1611}
!1611 = !DIDerivedType(tag: DW_TAG_reference_type, baseType: !1612, size: 32, align: 32)
!1612 = !DIDerivedType(tag: DW_TAG_const_type, baseType: !977)
!1613 = !DISubprogram(name: "operator*", linkageName: "_ZNK9__gnu_cxx17__normal_iteratorIPdSt6vectorIdSaIdEEEdeEv", scope: !1600, file: !1601, line: 792, type: !1614, isLocal: false, isDefinition: false, scopeLine: 792, flags: DIFlagPublic | DIFlagPrototyped, isOptimized: false)
!1614 = !DISubroutineType(types: !1615)
!1615 = !{!1616, !1622}
!1616 = !DIDerivedType(tag: DW_TAG_typedef, name: "reference", scope: !1600, file: !1601, line: 772, baseType: !1617)
!1617 = !DIDerivedType(tag: DW_TAG_typedef, name: "reference", scope: !1619, file: !1618, line: 184, baseType: !1407)
!1618 = !DIFile(filename: "/tools/Xilinx/SDK/2018.3/gnu/aarch32/lin/gcc-arm-none-eabi/arm-none-eabi/include/c++/7.3.1/bits/stl_iterator_base_types.h", directory: "/home/bqpd/workspace_sdsoc/MiniZedMM/Debug")
!1619 = distinct !DICompositeType(tag: DW_TAG_structure_type, name: "iterator_traits<double *>", scope: !5, file: !1618, line: 178, size: 8, align: 8, elements: !2, templateParams: !1620, identifier: "_ZTSSt15iterator_traitsIPdE")
!1620 = !{!1621}
!1621 = !DITemplateTypeParameter(name: "_Iterator", type: !977)
!1622 = !DIDerivedType(tag: DW_TAG_pointer_type, baseType: !1623, size: 32, align: 32, flags: DIFlagArtificial | DIFlagObjectPointer)
!1623 = !DIDerivedType(tag: DW_TAG_const_type, baseType: !1600)
!1624 = !DISubprogram(name: "operator->", linkageName: "_ZNK9__gnu_cxx17__normal_iteratorIPdSt6vectorIdSaIdEEEptEv", scope: !1600, file: !1601, line: 796, type: !1625, isLocal: false, isDefinition: false, scopeLine: 796, flags: DIFlagPublic | DIFlagPrototyped, isOptimized: false)
!1625 = !DISubroutineType(types: !1626)
!1626 = !{!1627, !1622}
!1627 = !DIDerivedType(tag: DW_TAG_typedef, name: "pointer", scope: !1600, file: !1601, line: 773, baseType: !1628)
!1628 = !DIDerivedType(tag: DW_TAG_typedef, name: "pointer", scope: !1619, file: !1618, line: 183, baseType: !977)
!1629 = !DISubprogram(name: "operator++", linkageName: "_ZN9__gnu_cxx17__normal_iteratorIPdSt6vectorIdSaIdEEEppEv", scope: !1600, file: !1601, line: 800, type: !1630, isLocal: false, isDefinition: false, scopeLine: 800, flags: DIFlagPublic | DIFlagPrototyped, isOptimized: false)
!1630 = !DISubroutineType(types: !1631)
!1631 = !{!1632, !1607}
!1632 = !DIDerivedType(tag: DW_TAG_reference_type, baseType: !1600, size: 32, align: 32)
!1633 = !DISubprogram(name: "operator++", linkageName: "_ZN9__gnu_cxx17__normal_iteratorIPdSt6vectorIdSaIdEEEppEi", scope: !1600, file: !1601, line: 807, type: !1634, isLocal: false, isDefinition: false, scopeLine: 807, flags: DIFlagPublic | DIFlagPrototyped, isOptimized: false)
!1634 = !DISubroutineType(types: !1635)
!1635 = !{!1600, !1607, !15}
!1636 = !DISubprogram(name: "operator--", linkageName: "_ZN9__gnu_cxx17__normal_iteratorIPdSt6vectorIdSaIdEEEmmEv", scope: !1600, file: !1601, line: 812, type: !1630, isLocal: false, isDefinition: false, scopeLine: 812, flags: DIFlagPublic | DIFlagPrototyped, isOptimized: false)
!1637 = !DISubprogram(name: "operator--", linkageName: "_ZN9__gnu_cxx17__normal_iteratorIPdSt6vectorIdSaIdEEEmmEi", scope: !1600, file: !1601, line: 819, type: !1634, isLocal: false, isDefinition: false, scopeLine: 819, flags: DIFlagPublic | DIFlagPrototyped, isOptimized: false)
!1638 = !DISubprogram(name: "operator[]", linkageName: "_ZNK9__gnu_cxx17__normal_iteratorIPdSt6vectorIdSaIdEEEixEi", scope: !1600, file: !1601, line: 824, type: !1639, isLocal: false, isDefinition: false, scopeLine: 824, flags: DIFlagPublic | DIFlagPrototyped, isOptimized: false)
!1639 = !DISubroutineType(types: !1640)
!1640 = !{!1616, !1622, !1641}
!1641 = !DIDerivedType(tag: DW_TAG_typedef, name: "difference_type", scope: !1600, file: !1601, line: 771, baseType: !1642)
!1642 = !DIDerivedType(tag: DW_TAG_typedef, name: "difference_type", scope: !1619, file: !1618, line: 182, baseType: !542)
!1643 = !DISubprogram(name: "operator+=", linkageName: "_ZN9__gnu_cxx17__normal_iteratorIPdSt6vectorIdSaIdEEEpLEi", scope: !1600, file: !1601, line: 828, type: !1644, isLocal: false, isDefinition: false, scopeLine: 828, flags: DIFlagPublic | DIFlagPrototyped, isOptimized: false)
!1644 = !DISubroutineType(types: !1645)
!1645 = !{!1632, !1607, !1641}
!1646 = !DISubprogram(name: "operator+", linkageName: "_ZNK9__gnu_cxx17__normal_iteratorIPdSt6vectorIdSaIdEEEplEi", scope: !1600, file: !1601, line: 832, type: !1647, isLocal: false, isDefinition: false, scopeLine: 832, flags: DIFlagPublic | DIFlagPrototyped, isOptimized: false)
!1647 = !DISubroutineType(types: !1648)
!1648 = !{!1600, !1622, !1641}
!1649 = !DISubprogram(name: "operator-=", linkageName: "_ZN9__gnu_cxx17__normal_iteratorIPdSt6vectorIdSaIdEEEmIEi", scope: !1600, file: !1601, line: 836, type: !1644, isLocal: false, isDefinition: false, scopeLine: 836, flags: DIFlagPublic | DIFlagPrototyped, isOptimized: false)
!1650 = !DISubprogram(name: "operator-", linkageName: "_ZNK9__gnu_cxx17__normal_iteratorIPdSt6vectorIdSaIdEEEmiEi", scope: !1600, file: !1601, line: 840, type: !1647, isLocal: false, isDefinition: false, scopeLine: 840, flags: DIFlagPublic | DIFlagPrototyped, isOptimized: false)
!1651 = !DISubprogram(name: "base", linkageName: "_ZNK9__gnu_cxx17__normal_iteratorIPdSt6vectorIdSaIdEEE4baseEv", scope: !1600, file: !1601, line: 844, type: !1652, isLocal: false, isDefinition: false, scopeLine: 844, flags: DIFlagPublic | DIFlagPrototyped, isOptimized: false)
!1652 = !DISubroutineType(types: !1653)
!1653 = !{!1611, !1622}
!1654 = !{!1621, !1655}
!1655 = !DITemplateTypeParameter(name: "_Container", type: !1357)
!1656 = !DISubprogram(name: "begin", linkageName: "_ZNKSt6vectorIdSaIdEE5beginEv", scope: !1357, file: !1348, line: 572, type: !1657, isLocal: false, isDefinition: false, scopeLine: 572, flags: DIFlagPublic | DIFlagPrototyped, isOptimized: false)
!1657 = !DISubroutineType(types: !1658)
!1658 = !{!1659, !1713}
!1659 = !DIDerivedType(tag: DW_TAG_typedef, name: "const_iterator", scope: !1357, file: !1348, line: 239, baseType: !1660)
!1660 = distinct !DICompositeType(tag: DW_TAG_class_type, name: "__normal_iterator<const double *, std::vector<double, std::allocator<double> > >", scope: !330, file: !1601, line: 760, size: 32, align: 32, elements: !1661, templateParams: !1712, identifier: "_ZTSN9__gnu_cxx17__normal_iteratorIPKdSt6vectorIdSaIdEEEE")
!1661 = !{!1662, !1663, !1667, !1672, !1682, !1687, !1691, !1694, !1695, !1696, !1701, !1704, !1707, !1708, !1709}
!1662 = !DIDerivedType(tag: DW_TAG_member, name: "_M_current", scope: !1660, file: !1601, line: 763, baseType: !1412, size: 32, align: 32, flags: DIFlagProtected)
!1663 = !DISubprogram(name: "__normal_iterator", scope: !1660, file: !1601, line: 775, type: !1664, isLocal: false, isDefinition: false, scopeLine: 775, flags: DIFlagPublic | DIFlagPrototyped, isOptimized: false)
!1664 = !DISubroutineType(types: !1665)
!1665 = !{null, !1666}
!1666 = !DIDerivedType(tag: DW_TAG_pointer_type, baseType: !1660, size: 32, align: 32, flags: DIFlagArtificial | DIFlagObjectPointer)
!1667 = !DISubprogram(name: "__normal_iterator", scope: !1660, file: !1601, line: 779, type: !1668, isLocal: false, isDefinition: false, scopeLine: 779, flags: DIFlagPublic | DIFlagExplicit | DIFlagPrototyped, isOptimized: false)
!1668 = !DISubroutineType(types: !1669)
!1669 = !{null, !1666, !1670}
!1670 = !DIDerivedType(tag: DW_TAG_reference_type, baseType: !1671, size: 32, align: 32)
!1671 = !DIDerivedType(tag: DW_TAG_const_type, baseType: !1412)
!1672 = !DISubprogram(name: "operator*", linkageName: "_ZNK9__gnu_cxx17__normal_iteratorIPKdSt6vectorIdSaIdEEEdeEv", scope: !1660, file: !1601, line: 792, type: !1673, isLocal: false, isDefinition: false, scopeLine: 792, flags: DIFlagPublic | DIFlagPrototyped, isOptimized: false)
!1673 = !DISubroutineType(types: !1674)
!1674 = !{!1675, !1680}
!1675 = !DIDerivedType(tag: DW_TAG_typedef, name: "reference", scope: !1660, file: !1601, line: 772, baseType: !1676)
!1676 = !DIDerivedType(tag: DW_TAG_typedef, name: "reference", scope: !1677, file: !1618, line: 195, baseType: !1305)
!1677 = distinct !DICompositeType(tag: DW_TAG_structure_type, name: "iterator_traits<const double *>", scope: !5, file: !1618, line: 189, size: 8, align: 8, elements: !2, templateParams: !1678, identifier: "_ZTSSt15iterator_traitsIPKdE")
!1678 = !{!1679}
!1679 = !DITemplateTypeParameter(name: "_Iterator", type: !1412)
!1680 = !DIDerivedType(tag: DW_TAG_pointer_type, baseType: !1681, size: 32, align: 32, flags: DIFlagArtificial | DIFlagObjectPointer)
!1681 = !DIDerivedType(tag: DW_TAG_const_type, baseType: !1660)
!1682 = !DISubprogram(name: "operator->", linkageName: "_ZNK9__gnu_cxx17__normal_iteratorIPKdSt6vectorIdSaIdEEEptEv", scope: !1660, file: !1601, line: 796, type: !1683, isLocal: false, isDefinition: false, scopeLine: 796, flags: DIFlagPublic | DIFlagPrototyped, isOptimized: false)
!1683 = !DISubroutineType(types: !1684)
!1684 = !{!1685, !1680}
!1685 = !DIDerivedType(tag: DW_TAG_typedef, name: "pointer", scope: !1660, file: !1601, line: 773, baseType: !1686)
!1686 = !DIDerivedType(tag: DW_TAG_typedef, name: "pointer", scope: !1677, file: !1618, line: 194, baseType: !1412)
!1687 = !DISubprogram(name: "operator++", linkageName: "_ZN9__gnu_cxx17__normal_iteratorIPKdSt6vectorIdSaIdEEEppEv", scope: !1660, file: !1601, line: 800, type: !1688, isLocal: false, isDefinition: false, scopeLine: 800, flags: DIFlagPublic | DIFlagPrototyped, isOptimized: false)
!1688 = !DISubroutineType(types: !1689)
!1689 = !{!1690, !1666}
!1690 = !DIDerivedType(tag: DW_TAG_reference_type, baseType: !1660, size: 32, align: 32)
!1691 = !DISubprogram(name: "operator++", linkageName: "_ZN9__gnu_cxx17__normal_iteratorIPKdSt6vectorIdSaIdEEEppEi", scope: !1660, file: !1601, line: 807, type: !1692, isLocal: false, isDefinition: false, scopeLine: 807, flags: DIFlagPublic | DIFlagPrototyped, isOptimized: false)
!1692 = !DISubroutineType(types: !1693)
!1693 = !{!1660, !1666, !15}
!1694 = !DISubprogram(name: "operator--", linkageName: "_ZN9__gnu_cxx17__normal_iteratorIPKdSt6vectorIdSaIdEEEmmEv", scope: !1660, file: !1601, line: 812, type: !1688, isLocal: false, isDefinition: false, scopeLine: 812, flags: DIFlagPublic | DIFlagPrototyped, isOptimized: false)
!1695 = !DISubprogram(name: "operator--", linkageName: "_ZN9__gnu_cxx17__normal_iteratorIPKdSt6vectorIdSaIdEEEmmEi", scope: !1660, file: !1601, line: 819, type: !1692, isLocal: false, isDefinition: false, scopeLine: 819, flags: DIFlagPublic | DIFlagPrototyped, isOptimized: false)
!1696 = !DISubprogram(name: "operator[]", linkageName: "_ZNK9__gnu_cxx17__normal_iteratorIPKdSt6vectorIdSaIdEEEixEi", scope: !1660, file: !1601, line: 824, type: !1697, isLocal: false, isDefinition: false, scopeLine: 824, flags: DIFlagPublic | DIFlagPrototyped, isOptimized: false)
!1697 = !DISubroutineType(types: !1698)
!1698 = !{!1675, !1680, !1699}
!1699 = !DIDerivedType(tag: DW_TAG_typedef, name: "difference_type", scope: !1660, file: !1601, line: 771, baseType: !1700)
!1700 = !DIDerivedType(tag: DW_TAG_typedef, name: "difference_type", scope: !1677, file: !1618, line: 193, baseType: !542)
!1701 = !DISubprogram(name: "operator+=", linkageName: "_ZN9__gnu_cxx17__normal_iteratorIPKdSt6vectorIdSaIdEEEpLEi", scope: !1660, file: !1601, line: 828, type: !1702, isLocal: false, isDefinition: false, scopeLine: 828, flags: DIFlagPublic | DIFlagPrototyped, isOptimized: false)
!1702 = !DISubroutineType(types: !1703)
!1703 = !{!1690, !1666, !1699}
!1704 = !DISubprogram(name: "operator+", linkageName: "_ZNK9__gnu_cxx17__normal_iteratorIPKdSt6vectorIdSaIdEEEplEi", scope: !1660, file: !1601, line: 832, type: !1705, isLocal: false, isDefinition: false, scopeLine: 832, flags: DIFlagPublic | DIFlagPrototyped, isOptimized: false)
!1705 = !DISubroutineType(types: !1706)
!1706 = !{!1660, !1680, !1699}
!1707 = !DISubprogram(name: "operator-=", linkageName: "_ZN9__gnu_cxx17__normal_iteratorIPKdSt6vectorIdSaIdEEEmIEi", scope: !1660, file: !1601, line: 836, type: !1702, isLocal: false, isDefinition: false, scopeLine: 836, flags: DIFlagPublic | DIFlagPrototyped, isOptimized: false)
!1708 = !DISubprogram(name: "operator-", linkageName: "_ZNK9__gnu_cxx17__normal_iteratorIPKdSt6vectorIdSaIdEEEmiEi", scope: !1660, file: !1601, line: 840, type: !1705, isLocal: false, isDefinition: false, scopeLine: 840, flags: DIFlagPublic | DIFlagPrototyped, isOptimized: false)
!1709 = !DISubprogram(name: "base", linkageName: "_ZNK9__gnu_cxx17__normal_iteratorIPKdSt6vectorIdSaIdEEE4baseEv", scope: !1660, file: !1601, line: 844, type: !1710, isLocal: false, isDefinition: false, scopeLine: 844, flags: DIFlagPublic | DIFlagPrototyped, isOptimized: false)
!1710 = !DISubroutineType(types: !1711)
!1711 = !{!1670, !1680}
!1712 = !{!1679, !1655}
!1713 = !DIDerivedType(tag: DW_TAG_pointer_type, baseType: !1563, size: 32, align: 32, flags: DIFlagArtificial | DIFlagObjectPointer)
!1714 = !DISubprogram(name: "end", linkageName: "_ZNSt6vectorIdSaIdEE3endEv", scope: !1357, file: !1348, line: 581, type: !1597, isLocal: false, isDefinition: false, scopeLine: 581, flags: DIFlagPublic | DIFlagPrototyped, isOptimized: false)
!1715 = !DISubprogram(name: "end", linkageName: "_ZNKSt6vectorIdSaIdEE3endEv", scope: !1357, file: !1348, line: 590, type: !1657, isLocal: false, isDefinition: false, scopeLine: 590, flags: DIFlagPublic | DIFlagPrototyped, isOptimized: false)
!1716 = !DISubprogram(name: "rbegin", linkageName: "_ZNSt6vectorIdSaIdEE6rbeginEv", scope: !1357, file: !1348, line: 599, type: !1717, isLocal: false, isDefinition: false, scopeLine: 599, flags: DIFlagPublic | DIFlagPrototyped, isOptimized: false)
!1717 = !DISubroutineType(types: !1718)
!1718 = !{!1719, !1542}
!1719 = !DIDerivedType(tag: DW_TAG_typedef, name: "reverse_iterator", scope: !1357, file: !1348, line: 241, baseType: !1720)
!1720 = !DICompositeType(tag: DW_TAG_class_type, name: "reverse_iterator<__gnu_cxx::__normal_iterator<double *, std::vector<double, std::allocator<double> > > >", scope: !5, file: !1601, line: 101, flags: DIFlagFwdDecl, identifier: "_ZTSSt16reverse_iteratorIN9__gnu_cxx17__normal_iteratorIPdSt6vectorIdSaIdEEEEE")
!1721 = !DISubprogram(name: "rbegin", linkageName: "_ZNKSt6vectorIdSaIdEE6rbeginEv", scope: !1357, file: !1348, line: 608, type: !1722, isLocal: false, isDefinition: false, scopeLine: 608, flags: DIFlagPublic | DIFlagPrototyped, isOptimized: false)
!1722 = !DISubroutineType(types: !1723)
!1723 = !{!1724, !1713}
!1724 = !DIDerivedType(tag: DW_TAG_typedef, name: "const_reverse_iterator", scope: !1357, file: !1348, line: 240, baseType: !1725)
!1725 = !DICompositeType(tag: DW_TAG_class_type, name: "reverse_iterator<__gnu_cxx::__normal_iterator<const double *, std::vector<double, std::allocator<double> > > >", scope: !5, file: !1601, line: 101, flags: DIFlagFwdDecl, identifier: "_ZTSSt16reverse_iteratorIN9__gnu_cxx17__normal_iteratorIPKdSt6vectorIdSaIdEEEEE")
!1726 = !DISubprogram(name: "rend", linkageName: "_ZNSt6vectorIdSaIdEE4rendEv", scope: !1357, file: !1348, line: 617, type: !1717, isLocal: false, isDefinition: false, scopeLine: 617, flags: DIFlagPublic | DIFlagPrototyped, isOptimized: false)
!1727 = !DISubprogram(name: "rend", linkageName: "_ZNKSt6vectorIdSaIdEE4rendEv", scope: !1357, file: !1348, line: 626, type: !1722, isLocal: false, isDefinition: false, scopeLine: 626, flags: DIFlagPublic | DIFlagPrototyped, isOptimized: false)
!1728 = !DISubprogram(name: "cbegin", linkageName: "_ZNKSt6vectorIdSaIdEE6cbeginEv", scope: !1357, file: !1348, line: 636, type: !1657, isLocal: false, isDefinition: false, scopeLine: 636, flags: DIFlagPublic | DIFlagPrototyped, isOptimized: false)
!1729 = !DISubprogram(name: "cend", linkageName: "_ZNKSt6vectorIdSaIdEE4cendEv", scope: !1357, file: !1348, line: 645, type: !1657, isLocal: false, isDefinition: false, scopeLine: 645, flags: DIFlagPublic | DIFlagPrototyped, isOptimized: false)
!1730 = !DISubprogram(name: "crbegin", linkageName: "_ZNKSt6vectorIdSaIdEE7crbeginEv", scope: !1357, file: !1348, line: 654, type: !1722, isLocal: false, isDefinition: false, scopeLine: 654, flags: DIFlagPublic | DIFlagPrototyped, isOptimized: false)
!1731 = !DISubprogram(name: "crend", linkageName: "_ZNKSt6vectorIdSaIdEE5crendEv", scope: !1357, file: !1348, line: 663, type: !1722, isLocal: false, isDefinition: false, scopeLine: 663, flags: DIFlagPublic | DIFlagPrototyped, isOptimized: false)
!1732 = !DISubprogram(name: "size", linkageName: "_ZNKSt6vectorIdSaIdEE4sizeEv", scope: !1357, file: !1348, line: 670, type: !1733, isLocal: false, isDefinition: false, scopeLine: 670, flags: DIFlagPublic | DIFlagPrototyped, isOptimized: false)
!1733 = !DISubroutineType(types: !1734)
!1734 = !{!1552, !1713}
!1735 = !DISubprogram(name: "max_size", linkageName: "_ZNKSt6vectorIdSaIdEE8max_sizeEv", scope: !1357, file: !1348, line: 675, type: !1733, isLocal: false, isDefinition: false, scopeLine: 675, flags: DIFlagPublic | DIFlagPrototyped, isOptimized: false)
!1736 = !DISubprogram(name: "resize", linkageName: "_ZNSt6vectorIdSaIdEE6resizeEj", scope: !1357, file: !1348, line: 689, type: !1737, isLocal: false, isDefinition: false, scopeLine: 689, flags: DIFlagPublic | DIFlagPrototyped, isOptimized: false)
!1737 = !DISubroutineType(types: !1738)
!1738 = !{null, !1542, !1552}
!1739 = !DISubprogram(name: "resize", linkageName: "_ZNSt6vectorIdSaIdEE6resizeEjRKd", scope: !1357, file: !1348, line: 709, type: !1591, isLocal: false, isDefinition: false, scopeLine: 709, flags: DIFlagPublic | DIFlagPrototyped, isOptimized: false)
!1740 = !DISubprogram(name: "shrink_to_fit", linkageName: "_ZNSt6vectorIdSaIdEE13shrink_to_fitEv", scope: !1357, file: !1348, line: 741, type: !1540, isLocal: false, isDefinition: false, scopeLine: 741, flags: DIFlagPublic | DIFlagPrototyped, isOptimized: false)
!1741 = !DISubprogram(name: "capacity", linkageName: "_ZNKSt6vectorIdSaIdEE8capacityEv", scope: !1357, file: !1348, line: 750, type: !1733, isLocal: false, isDefinition: false, scopeLine: 750, flags: DIFlagPublic | DIFlagPrototyped, isOptimized: false)
!1742 = !DISubprogram(name: "empty", linkageName: "_ZNKSt6vectorIdSaIdEE5emptyEv", scope: !1357, file: !1348, line: 759, type: !1743, isLocal: false, isDefinition: false, scopeLine: 759, flags: DIFlagPublic | DIFlagPrototyped, isOptimized: false)
!1743 = !DISubroutineType(types: !1744)
!1744 = !{!17, !1713}
!1745 = !DISubprogram(name: "reserve", linkageName: "_ZNSt6vectorIdSaIdEE7reserveEj", scope: !1357, file: !1348, line: 780, type: !1737, isLocal: false, isDefinition: false, scopeLine: 780, flags: DIFlagPublic | DIFlagPrototyped, isOptimized: false)
!1746 = !DISubprogram(name: "operator[]", linkageName: "_ZNSt6vectorIdSaIdEEixEj", scope: !1357, file: !1348, line: 795, type: !1747, isLocal: false, isDefinition: false, scopeLine: 795, flags: DIFlagPublic | DIFlagPrototyped, isOptimized: false)
!1747 = !DISubroutineType(types: !1748)
!1748 = !{!1749, !1542, !1552}
!1749 = !DIDerivedType(tag: DW_TAG_typedef, name: "reference", scope: !1357, file: !1348, line: 235, baseType: !1750)
!1750 = !DIDerivedType(tag: DW_TAG_typedef, name: "reference", scope: !1370, file: !1368, line: 64, baseType: !1751)
!1751 = !DIDerivedType(tag: DW_TAG_reference_type, baseType: !1752, size: 32, align: 32)
!1752 = !DIDerivedType(tag: DW_TAG_typedef, name: "value_type", scope: !1370, file: !1368, line: 58, baseType: !1753)
!1753 = !DIDerivedType(tag: DW_TAG_typedef, name: "value_type", scope: !1373, file: !1374, line: 389, baseType: !269)
!1754 = !DISubprogram(name: "operator[]", linkageName: "_ZNKSt6vectorIdSaIdEEixEj", scope: !1357, file: !1348, line: 813, type: !1755, isLocal: false, isDefinition: false, scopeLine: 813, flags: DIFlagPublic | DIFlagPrototyped, isOptimized: false)
!1755 = !DISubroutineType(types: !1756)
!1756 = !{!1757, !1713, !1552}
!1757 = !DIDerivedType(tag: DW_TAG_typedef, name: "const_reference", scope: !1357, file: !1348, line: 236, baseType: !1758)
!1758 = !DIDerivedType(tag: DW_TAG_typedef, name: "const_reference", scope: !1370, file: !1368, line: 65, baseType: !1759)
!1759 = !DIDerivedType(tag: DW_TAG_reference_type, baseType: !1760, size: 32, align: 32)
!1760 = !DIDerivedType(tag: DW_TAG_const_type, baseType: !1752)
!1761 = !DISubprogram(name: "_M_range_check", linkageName: "_ZNKSt6vectorIdSaIdEE14_M_range_checkEj", scope: !1357, file: !1348, line: 822, type: !1762, isLocal: false, isDefinition: false, scopeLine: 822, flags: DIFlagProtected | DIFlagPrototyped, isOptimized: false)
!1762 = !DISubroutineType(types: !1763)
!1763 = !{null, !1713, !1552}
!1764 = !DISubprogram(name: "at", linkageName: "_ZNSt6vectorIdSaIdEE2atEj", scope: !1357, file: !1348, line: 844, type: !1747, isLocal: false, isDefinition: false, scopeLine: 844, flags: DIFlagPublic | DIFlagPrototyped, isOptimized: false)
!1765 = !DISubprogram(name: "at", linkageName: "_ZNKSt6vectorIdSaIdEE2atEj", scope: !1357, file: !1348, line: 862, type: !1755, isLocal: false, isDefinition: false, scopeLine: 862, flags: DIFlagPublic | DIFlagPrototyped, isOptimized: false)
!1766 = !DISubprogram(name: "front", linkageName: "_ZNSt6vectorIdSaIdEE5frontEv", scope: !1357, file: !1348, line: 873, type: !1767, isLocal: false, isDefinition: false, scopeLine: 873, flags: DIFlagPublic | DIFlagPrototyped, isOptimized: false)
!1767 = !DISubroutineType(types: !1768)
!1768 = !{!1749, !1542}
!1769 = !DISubprogram(name: "front", linkageName: "_ZNKSt6vectorIdSaIdEE5frontEv", scope: !1357, file: !1348, line: 884, type: !1770, isLocal: false, isDefinition: false, scopeLine: 884, flags: DIFlagPublic | DIFlagPrototyped, isOptimized: false)
!1770 = !DISubroutineType(types: !1771)
!1771 = !{!1757, !1713}
!1772 = !DISubprogram(name: "back", linkageName: "_ZNSt6vectorIdSaIdEE4backEv", scope: !1357, file: !1348, line: 895, type: !1767, isLocal: false, isDefinition: false, scopeLine: 895, flags: DIFlagPublic | DIFlagPrototyped, isOptimized: false)
!1773 = !DISubprogram(name: "back", linkageName: "_ZNKSt6vectorIdSaIdEE4backEv", scope: !1357, file: !1348, line: 906, type: !1770, isLocal: false, isDefinition: false, scopeLine: 906, flags: DIFlagPublic | DIFlagPrototyped, isOptimized: false)
!1774 = !DISubprogram(name: "data", linkageName: "_ZNSt6vectorIdSaIdEE4dataEv", scope: !1357, file: !1348, line: 920, type: !1775, isLocal: false, isDefinition: false, scopeLine: 920, flags: DIFlagPublic | DIFlagPrototyped, isOptimized: false)
!1775 = !DISubroutineType(types: !1776)
!1776 = !{!977, !1542}
!1777 = !DISubprogram(name: "data", linkageName: "_ZNKSt6vectorIdSaIdEE4dataEv", scope: !1357, file: !1348, line: 924, type: !1778, isLocal: false, isDefinition: false, scopeLine: 924, flags: DIFlagPublic | DIFlagPrototyped, isOptimized: false)
!1778 = !DISubroutineType(types: !1779)
!1779 = !{!1412, !1713}
!1780 = !DISubprogram(name: "push_back", linkageName: "_ZNSt6vectorIdSaIdEE9push_backERKd", scope: !1357, file: !1348, line: 939, type: !1781, isLocal: false, isDefinition: false, scopeLine: 939, flags: DIFlagPublic | DIFlagPrototyped, isOptimized: false)
!1781 = !DISubroutineType(types: !1782)
!1782 = !{null, !1542, !1556}
!1783 = !DISubprogram(name: "push_back", linkageName: "_ZNSt6vectorIdSaIdEE9push_backEOd", scope: !1357, file: !1348, line: 953, type: !1784, isLocal: false, isDefinition: false, scopeLine: 953, flags: DIFlagPublic | DIFlagPrototyped, isOptimized: false)
!1784 = !DISubroutineType(types: !1785)
!1785 = !{null, !1542, !1786}
!1786 = !DIDerivedType(tag: DW_TAG_rvalue_reference_type, baseType: !1558, size: 32, align: 32)
!1787 = !DISubprogram(name: "pop_back", linkageName: "_ZNSt6vectorIdSaIdEE8pop_backEv", scope: !1357, file: !1348, line: 975, type: !1540, isLocal: false, isDefinition: false, scopeLine: 975, flags: DIFlagPublic | DIFlagPrototyped, isOptimized: false)
!1788 = !DISubprogram(name: "insert", linkageName: "_ZNSt6vectorIdSaIdEE6insertEN9__gnu_cxx17__normal_iteratorIPKdS1_EERS4_", scope: !1357, file: !1348, line: 1012, type: !1789, isLocal: false, isDefinition: false, scopeLine: 1012, flags: DIFlagPublic | DIFlagPrototyped, isOptimized: false)
!1789 = !DISubroutineType(types: !1790)
!1790 = !{!1599, !1542, !1659, !1556}
!1791 = !DISubprogram(name: "insert", linkageName: "_ZNSt6vectorIdSaIdEE6insertEN9__gnu_cxx17__normal_iteratorIPKdS1_EEOd", scope: !1357, file: !1348, line: 1042, type: !1792, isLocal: false, isDefinition: false, scopeLine: 1042, flags: DIFlagPublic | DIFlagPrototyped, isOptimized: false)
!1792 = !DISubroutineType(types: !1793)
!1793 = !{!1599, !1542, !1659, !1786}
!1794 = !DISubprogram(name: "insert", linkageName: "_ZNSt6vectorIdSaIdEE6insertEN9__gnu_cxx17__normal_iteratorIPKdS1_EESt16initializer_listIdE", scope: !1357, file: !1348, line: 1059, type: !1795, isLocal: false, isDefinition: false, scopeLine: 1059, flags: DIFlagPublic | DIFlagPrototyped, isOptimized: false)
!1795 = !DISubroutineType(types: !1796)
!1796 = !{!1599, !1542, !1659, !1577}
!1797 = !DISubprogram(name: "insert", linkageName: "_ZNSt6vectorIdSaIdEE6insertEN9__gnu_cxx17__normal_iteratorIPKdS1_EEjRS4_", scope: !1357, file: !1348, line: 1084, type: !1798, isLocal: false, isDefinition: false, scopeLine: 1084, flags: DIFlagPublic | DIFlagPrototyped, isOptimized: false)
!1798 = !DISubroutineType(types: !1799)
!1799 = !{!1599, !1542, !1659, !1552, !1556}
!1800 = !DISubprogram(name: "erase", linkageName: "_ZNSt6vectorIdSaIdEE5eraseEN9__gnu_cxx17__normal_iteratorIPKdS1_EE", scope: !1357, file: !1348, line: 1179, type: !1801, isLocal: false, isDefinition: false, scopeLine: 1179, flags: DIFlagPublic | DIFlagPrototyped, isOptimized: false)
!1801 = !DISubroutineType(types: !1802)
!1802 = !{!1599, !1542, !1659}
!1803 = !DISubprogram(name: "erase", linkageName: "_ZNSt6vectorIdSaIdEE5eraseEN9__gnu_cxx17__normal_iteratorIPKdS1_EES6_", scope: !1357, file: !1348, line: 1206, type: !1804, isLocal: false, isDefinition: false, scopeLine: 1206, flags: DIFlagPublic | DIFlagPrototyped, isOptimized: false)
!1804 = !DISubroutineType(types: !1805)
!1805 = !{!1599, !1542, !1659, !1659}
!1806 = !DISubprogram(name: "swap", linkageName: "_ZNSt6vectorIdSaIdEE4swapERS1_", scope: !1357, file: !1348, line: 1229, type: !1807, isLocal: false, isDefinition: false, scopeLine: 1229, flags: DIFlagPublic | DIFlagPrototyped, isOptimized: false)
!1807 = !DISubroutineType(types: !1808)
!1808 = !{null, !1542, !1583}
!1809 = !DISubprogram(name: "clear", linkageName: "_ZNSt6vectorIdSaIdEE5clearEv", scope: !1357, file: !1348, line: 1247, type: !1540, isLocal: false, isDefinition: false, scopeLine: 1247, flags: DIFlagPublic | DIFlagPrototyped, isOptimized: false)
!1810 = !DISubprogram(name: "_M_fill_initialize", linkageName: "_ZNSt6vectorIdSaIdEE18_M_fill_initializeEjRKd", scope: !1357, file: !1348, line: 1334, type: !1591, isLocal: false, isDefinition: false, scopeLine: 1334, flags: DIFlagProtected | DIFlagPrototyped, isOptimized: false)
!1811 = !DISubprogram(name: "_M_default_initialize", linkageName: "_ZNSt6vectorIdSaIdEE21_M_default_initializeEj", scope: !1357, file: !1348, line: 1344, type: !1737, isLocal: false, isDefinition: false, scopeLine: 1344, flags: DIFlagProtected | DIFlagPrototyped, isOptimized: false)
!1812 = !DISubprogram(name: "_M_fill_assign", linkageName: "_ZNSt6vectorIdSaIdEE14_M_fill_assignEjRKd", scope: !1357, file: !1348, line: 1386, type: !1591, isLocal: false, isDefinition: false, scopeLine: 1386, flags: DIFlagProtected | DIFlagPrototyped, isOptimized: false)
!1813 = !DISubprogram(name: "_M_fill_insert", linkageName: "_ZNSt6vectorIdSaIdEE14_M_fill_insertEN9__gnu_cxx17__normal_iteratorIPdS1_EEjRKd", scope: !1357, file: !1348, line: 1425, type: !1814, isLocal: false, isDefinition: false, scopeLine: 1425, flags: DIFlagProtected | DIFlagPrototyped, isOptimized: false)
!1814 = !DISubroutineType(types: !1815)
!1815 = !{null, !1542, !1599, !1552, !1556}
!1816 = !DISubprogram(name: "_M_default_append", linkageName: "_ZNSt6vectorIdSaIdEE17_M_default_appendEj", scope: !1357, file: !1348, line: 1430, type: !1737, isLocal: false, isDefinition: false, scopeLine: 1430, flags: DIFlagProtected | DIFlagPrototyped, isOptimized: false)
!1817 = !DISubprogram(name: "_M_shrink_to_fit", linkageName: "_ZNSt6vectorIdSaIdEE16_M_shrink_to_fitEv", scope: !1357, file: !1348, line: 1433, type: !1818, isLocal: false, isDefinition: false, scopeLine: 1433, flags: DIFlagProtected | DIFlagPrototyped, isOptimized: false)
!1818 = !DISubroutineType(types: !1819)
!1819 = !{!17, !1542}
!1820 = !DISubprogram(name: "_M_insert_rval", linkageName: "_ZNSt6vectorIdSaIdEE14_M_insert_rvalEN9__gnu_cxx17__normal_iteratorIPKdS1_EEOd", scope: !1357, file: !1348, line: 1482, type: !1792, isLocal: false, isDefinition: false, scopeLine: 1482, flags: DIFlagProtected | DIFlagPrototyped, isOptimized: false)
!1821 = !DISubprogram(name: "_M_emplace_aux", linkageName: "_ZNSt6vectorIdSaIdEE14_M_emplace_auxEN9__gnu_cxx17__normal_iteratorIPKdS1_EEOd", scope: !1357, file: !1348, line: 1491, type: !1792, isLocal: false, isDefinition: false, scopeLine: 1491, flags: DIFlagProtected | DIFlagPrototyped, isOptimized: false)
!1822 = !DISubprogram(name: "_M_check_len", linkageName: "_ZNKSt6vectorIdSaIdEE12_M_check_lenEjPKc", scope: !1357, file: !1348, line: 1497, type: !1823, isLocal: false, isDefinition: false, scopeLine: 1497, flags: DIFlagProtected | DIFlagPrototyped, isOptimized: false)
!1823 = !DISubroutineType(types: !1824)
!1824 = !{!1825, !1713, !1552, !84}
!1825 = !DIDerivedType(tag: DW_TAG_typedef, name: "size_type", scope: !1357, file: !1348, line: 242, baseType: !540)
!1826 = !DISubprogram(name: "_M_erase_at_end", linkageName: "_ZNSt6vectorIdSaIdEE15_M_erase_at_endEPd", scope: !1357, file: !1348, line: 1511, type: !1827, isLocal: false, isDefinition: false, scopeLine: 1511, flags: DIFlagProtected | DIFlagPrototyped, isOptimized: false)
!1827 = !DISubroutineType(types: !1828)
!1828 = !{null, !1542, !1829}
!1829 = !DIDerivedType(tag: DW_TAG_typedef, name: "pointer", scope: !1357, file: !1348, line: 233, baseType: !1471)
!1830 = !DISubprogram(name: "_M_erase", linkageName: "_ZNSt6vectorIdSaIdEE8_M_eraseEN9__gnu_cxx17__normal_iteratorIPdS1_EE", scope: !1357, file: !1348, line: 1518, type: !1831, isLocal: false, isDefinition: false, scopeLine: 1518, flags: DIFlagProtected | DIFlagPrototyped, isOptimized: false)
!1831 = !DISubroutineType(types: !1832)
!1832 = !{!1599, !1542, !1599}
!1833 = !DISubprogram(name: "_M_erase", linkageName: "_ZNSt6vectorIdSaIdEE8_M_eraseEN9__gnu_cxx17__normal_iteratorIPdS1_EES5_", scope: !1357, file: !1348, line: 1521, type: !1834, isLocal: false, isDefinition: false, scopeLine: 1521, flags: DIFlagProtected | DIFlagPrototyped, isOptimized: false)
!1834 = !DISubroutineType(types: !1835)
!1835 = !{!1599, !1542, !1599, !1599}
!1836 = !DISubprogram(name: "_M_move_assign", linkageName: "_ZNSt6vectorIdSaIdEE14_M_move_assignEOS1_St17integral_constantIbLb1EE", scope: !1357, file: !1348, line: 1529, type: !1837, isLocal: false, isDefinition: false, scopeLine: 1529, flags: DIFlagPrototyped, isOptimized: false)
!1837 = !DISubroutineType(types: !1838)
!1838 = !{null, !1542, !1567, !1839}
!1839 = !DIDerivedType(tag: DW_TAG_typedef, name: "true_type", scope: !5, file: !1840, line: 87, baseType: !1841)
!1840 = !DIFile(filename: "/tools/Xilinx/SDK/2018.3/gnu/aarch32/lin/gcc-arm-none-eabi/arm-none-eabi/include/c++/7.3.1/type_traits", directory: "/home/bqpd/workspace_sdsoc/MiniZedMM/Debug")
!1841 = distinct !DICompositeType(tag: DW_TAG_structure_type, name: "integral_constant<bool, true>", scope: !5, file: !1840, line: 69, size: 8, align: 8, elements: !1842, templateParams: !1851, identifier: "_ZTSSt17integral_constantIbLb1EE")
!1842 = !{!1843, !1845}
!1843 = !DIDerivedType(tag: DW_TAG_member, name: "value", scope: !1841, file: !1840, line: 71, baseType: !1844, flags: DIFlagStaticMember, extraData: i1 true)
!1844 = !DIDerivedType(tag: DW_TAG_const_type, baseType: !17)
!1845 = !DISubprogram(name: "operator bool", linkageName: "_ZNKSt17integral_constantIbLb1EEcvbEv", scope: !1841, file: !1840, line: 74, type: !1846, isLocal: false, isDefinition: false, scopeLine: 74, flags: DIFlagPrototyped, isOptimized: false)
!1846 = !DISubroutineType(types: !1847)
!1847 = !{!1848, !1849}
!1848 = !DIDerivedType(tag: DW_TAG_typedef, name: "value_type", scope: !1841, file: !1840, line: 72, baseType: !17)
!1849 = !DIDerivedType(tag: DW_TAG_pointer_type, baseType: !1850, size: 32, align: 32, flags: DIFlagArtificial | DIFlagObjectPointer)
!1850 = !DIDerivedType(tag: DW_TAG_const_type, baseType: !1841)
!1851 = !{!1852, !1853}
!1852 = !DITemplateTypeParameter(name: "_Tp", type: !17)
!1853 = !DITemplateValueParameter(name: "__v", type: !17, value: i8 1)
!1854 = !DISubprogram(name: "_M_move_assign", linkageName: "_ZNSt6vectorIdSaIdEE14_M_move_assignEOS1_St17integral_constantIbLb0EE", scope: !1357, file: !1348, line: 1540, type: !1855, isLocal: false, isDefinition: false, scopeLine: 1540, flags: DIFlagPrototyped, isOptimized: false)
!1855 = !DISubroutineType(types: !1856)
!1856 = !{null, !1542, !1567, !1857}
!1857 = !DIDerivedType(tag: DW_TAG_typedef, name: "false_type", scope: !5, file: !1840, line: 90, baseType: !1858)
!1858 = distinct !DICompositeType(tag: DW_TAG_structure_type, name: "integral_constant<bool, false>", scope: !5, file: !1840, line: 69, size: 8, align: 8, elements: !1859, templateParams: !1867, identifier: "_ZTSSt17integral_constantIbLb0EE")
!1859 = !{!1860, !1861}
!1860 = !DIDerivedType(tag: DW_TAG_member, name: "value", scope: !1858, file: !1840, line: 71, baseType: !1844, flags: DIFlagStaticMember, extraData: i1 false)
!1861 = !DISubprogram(name: "operator bool", linkageName: "_ZNKSt17integral_constantIbLb0EEcvbEv", scope: !1858, file: !1840, line: 74, type: !1862, isLocal: false, isDefinition: false, scopeLine: 74, flags: DIFlagPrototyped, isOptimized: false)
!1862 = !DISubroutineType(types: !1863)
!1863 = !{!1864, !1865}
!1864 = !DIDerivedType(tag: DW_TAG_typedef, name: "value_type", scope: !1858, file: !1840, line: 72, baseType: !17)
!1865 = !DIDerivedType(tag: DW_TAG_pointer_type, baseType: !1866, size: 32, align: 32, flags: DIFlagArtificial | DIFlagObjectPointer)
!1866 = !DIDerivedType(tag: DW_TAG_const_type, baseType: !1858)
!1867 = !{!1852, !1868}
!1868 = !DITemplateValueParameter(name: "__v", type: !17, value: i8 0)
!1869 = !DISubprogram(name: "PolyadicOperationResult", scope: !1352, file: !1353, line: 10, type: !1870, isLocal: false, isDefinition: false, scopeLine: 10, flags: DIFlagPrototyped, isOptimized: false)
!1870 = !DISubroutineType(types: !1871)
!1871 = !{null, !1872, !269, !1562}
!1872 = !DIDerivedType(tag: DW_TAG_pointer_type, baseType: !1352, size: 32, align: 32, flags: DIFlagArtificial | DIFlagObjectPointer)
!1873 = !DISubprogram(name: "gradient", linkageName: "_ZNK4Node8gradientERKS_", scope: !1286, file: !1287, line: 27, type: !1874, isLocal: false, isDefinition: false, scopeLine: 27, flags: DIFlagPublic | DIFlagPrototyped, isOptimized: false)
!1874 = !DISubroutineType(types: !1875)
!1875 = !{!269, !1294, !1310}
!1876 = !DISubprogram(name: "gradient", linkageName: "_ZNK4Node8gradientERKSt6vectorIS_SaIS_EE", scope: !1286, file: !1287, line: 28, type: !1877, isLocal: false, isDefinition: false, scopeLine: 28, flags: DIFlagPublic | DIFlagPrototyped, isOptimized: false)
!1877 = !DISubroutineType(types: !1878)
!1878 = !{!1357, !1294, !1345}
!1879 = !DISubprogram(name: "gradient", linkageName: "_ZNK4Node8gradientERKSt6vectorIS0_IS_SaIS_EESaIS2_EE", scope: !1286, file: !1287, line: 29, type: !1880, isLocal: false, isDefinition: false, scopeLine: 29, flags: DIFlagPublic | DIFlagPrototyped, isOptimized: false)
!1880 = !DISubroutineType(types: !1881)
!1881 = !{!1882, !1294, !1883}
!1882 = !DICompositeType(tag: DW_TAG_class_type, name: "vector<std::vector<double, std::allocator<double> >, std::allocator<std::vector<double, std::allocator<double> > > >", scope: !5, file: !1348, line: 216, flags: DIFlagFwdDecl, identifier: "_ZTSSt6vectorIS_IdSaIdEESaIS1_EE")
!1883 = !DIDerivedType(tag: DW_TAG_reference_type, baseType: !1884, size: 32, align: 32)
!1884 = !DIDerivedType(tag: DW_TAG_const_type, baseType: !1885)
!1885 = !DICompositeType(tag: DW_TAG_class_type, name: "vector<std::vector<Node, std::allocator<Node> >, std::allocator<std::vector<Node, std::allocator<Node> > > >", scope: !5, file: !1348, line: 216, size: 96, align: 32, flags: DIFlagFwdDecl, identifier: "_ZTSSt6vectorIS_I4NodeSaIS0_EESaIS2_EE")
!1886 = !DISubprogram(name: "operator+=", linkageName: "_ZN4NodepLERKS_", scope: !1286, file: !1287, line: 36, type: !1887, isLocal: false, isDefinition: false, scopeLine: 36, flags: DIFlagPublic | DIFlagPrototyped, isOptimized: false)
!1887 = !DISubroutineType(types: !1888)
!1888 = !{!1889, !1304, !1310}
!1889 = !DIDerivedType(tag: DW_TAG_reference_type, baseType: !1286, size: 32, align: 32)
!1890 = !DISubprogram(name: "operator-=", linkageName: "_ZN4NodemIERKS_", scope: !1286, file: !1287, line: 37, type: !1887, isLocal: false, isDefinition: false, scopeLine: 37, flags: DIFlagPublic | DIFlagPrototyped, isOptimized: false)
!1891 = !DISubprogram(name: "operator*=", linkageName: "_ZN4NodemLERKS_", scope: !1286, file: !1287, line: 38, type: !1887, isLocal: false, isDefinition: false, scopeLine: 38, flags: DIFlagPublic | DIFlagPrototyped, isOptimized: false)
!1892 = !DISubprogram(name: "operator/=", linkageName: "_ZN4NodedVERKS_", scope: !1286, file: !1287, line: 39, type: !1887, isLocal: false, isDefinition: false, scopeLine: 39, flags: DIFlagPublic | DIFlagPrototyped, isOptimized: false)
!1893 = !DILocation(line: 5, column: 10, scope: !1273)
!1894 = !DILocation(line: 5, column: 12, scope: !1273)
!1895 = !DILocalVariable(name: "y", scope: !1273, file: !1274, line: 5, type: !1286)
!1896 = !DILocation(line: 5, column: 15, scope: !1273)
!1897 = !DILocation(line: 5, column: 17, scope: !1273)
!1898 = !DILocation(line: 5, column: 17, scope: !1899)
!1899 = !DILexicalBlockFile(scope: !1273, file: !1274, discriminator: 1)
!1900 = !DILocalVariable(name: "f", scope: !1273, file: !1274, line: 6, type: !1286)
!1901 = !DILocation(line: 6, column: 10, scope: !1273)
!1902 = !DILocation(line: 6, column: 15, scope: !1273)
!1903 = !DILocation(line: 6, column: 20, scope: !1899)
!1904 = !DILocation(line: 6, column: 18, scope: !1905)
!1905 = !DILexicalBlockFile(scope: !1273, file: !1274, discriminator: 2)
!1906 = !DILocation(line: 8, column: 15, scope: !1273)
!1907 = !DILocation(line: 8, column: 42, scope: !1899)
!1908 = !DILocation(line: 9, column: 15, scope: !1273)
!1909 = !DILocation(line: 9, column: 23, scope: !1899)
!1910 = !DILocation(line: 9, column: 28, scope: !1905)
!1911 = !DILocation(line: 9, column: 35, scope: !1912)
!1912 = !DILexicalBlockFile(scope: !1273, file: !1274, discriminator: 3)
!1913 = !DILocation(line: 9, column: 40, scope: !1914)
!1914 = !DILexicalBlockFile(scope: !1273, file: !1274, discriminator: 4)
!1915 = !DILocation(line: 9, column: 50, scope: !1916)
!1916 = !DILexicalBlockFile(scope: !1273, file: !1274, discriminator: 5)
!1917 = !DILocation(line: 9, column: 55, scope: !1918)
!1918 = !DILexicalBlockFile(scope: !1273, file: !1274, discriminator: 6)
!1919 = !DILocation(line: 10, column: 15, scope: !1273)
!1920 = !DILocation(line: 10, column: 38, scope: !1899)
!1921 = !DILocation(line: 10, column: 33, scope: !1905)
!1922 = !DILocation(line: 10, column: 50, scope: !1912)
!1923 = !DILocation(line: 11, column: 15, scope: !1273)
!1924 = !DILocation(line: 11, column: 38, scope: !1899)
!1925 = !DILocation(line: 11, column: 33, scope: !1905)
!1926 = !DILocation(line: 11, column: 50, scope: !1912)
!1927 = !DILocation(line: 12, column: 5, scope: !1273)
!1928 = !{!"Node"}
!1929 = !{!"void.const double &.0"}
!1930 = !{!"../src/node.h"}
!1931 = !{!"operator+"}
!1932 = !{!"class Node.const class Node &.0.const class Node &.0"}
!1933 = !{!"operator*"}
!1934 = !{!"sin"}
!1935 = !{!"class Node.const class Node &.0"}
!1936 = !{!"std::operator<<"}
!1937 = !{!"basic_ostream<char, struct std::char_traits<char> > .basic_ostream<char, struct std::char_traits<char> > &.0.const char *.1"}
!1938 = !{!"/tools/Xilinx/SDK/2018.3/gnu/aarch32/lin/gcc-arm-none-eabi/arm-none-eabi/include/c++/7.3.1/ostream"}
!1939 = !{!"operator<<"}
!1940 = !{!"__ostream_type .__ostream_type &(*)(__ostream_type &).1"}
!1941 = !{!"std::endl"}
!1942 = !{!"basic_ostream<char, struct std::char_traits<char> > .basic_ostream<char, struct std::char_traits<char> > &.0"}
!1943 = !{!"std::ostream .std::ostream &.0.const class Node &.0"}
!1944 = !{!"__ostream_type .double.0"}
!1945 = !{!"gradient"}
!1946 = !{!"double.const class Node &.0"}
!1947 = distinct !DISubprogram(linkageName: "_GLOBAL__sub_I_main.cpp", scope: !1, file: !1, type: !1948, isLocal: true, isDefinition: true, flags: DIFlagArtificial, isOptimized: false, unit: !0, variables: !2)
!1948 = !DISubroutineType(types: !2)
!1949 = !DILocation(line: 0, scope: !1947)
