; ModuleID = '/home/bqpd/workspace_sdsoc/MiniZedMM/src/node.cpp'
source_filename = "/home/bqpd/workspace_sdsoc/MiniZedMM/src/node.cpp"
target datalayout = "e-m:e-p:32:32-i64:64-v128:64:128-a:0:32-n32-S64"
target triple = "armv7-none--eabi"

%"class.std::ios_base::Init" = type { i8 }
%class.Node = type <{ double, i32, [4 x i8] }>
%class.Graph = type { %"class.std::map" }
%"class.std::map" = type { %"class.std::_Rb_tree" }
%"class.std::_Rb_tree" = type { %"struct.std::_Rb_tree<long, std::pair<const long, std::vector<std::pair<double, long>, std::allocator<std::pair<double, long> > > >, std::_Select1st<std::pair<const long, std::vector<std::pair<double, long>, std::allocator<std::pair<double, long> > > > >, std::less<long>, std::allocator<std::pair<const long, std::vector<std::pair<double, long>, std::allocator<std::pair<double, long> > > > > >::_Rb_tree_impl" }
%"struct.std::_Rb_tree<long, std::pair<const long, std::vector<std::pair<double, long>, std::allocator<std::pair<double, long> > > >, std::_Select1st<std::pair<const long, std::vector<std::pair<double, long>, std::allocator<std::pair<double, long> > > > >, std::less<long>, std::allocator<std::pair<const long, std::vector<std::pair<double, long>, std::allocator<std::pair<double, long> > > > > >::_Rb_tree_impl" = type { %"struct.std::_Rb_tree_key_compare", %"struct.std::_Rb_tree_header" }
%"struct.std::_Rb_tree_key_compare" = type { %"struct.std::less" }
%"struct.std::less" = type { i8 }
%"struct.std::_Rb_tree_header" = type { %"struct.std::_Rb_tree_node_base", i32 }
%"struct.std::_Rb_tree_node_base" = type { i32, %"struct.std::_Rb_tree_node_base"*, %"struct.std::_Rb_tree_node_base"*, %"struct.std::_Rb_tree_node_base"* }
%"class.std::vector" = type { %"struct.std::_Vector_base" }
%"struct.std::_Vector_base" = type { %"struct.std::_Vector_base<std::pair<double, long>, std::allocator<std::pair<double, long> > >::_Vector_impl" }
%"struct.std::_Vector_base<std::pair<double, long>, std::allocator<std::pair<double, long> > >::_Vector_impl" = type { %"struct.std::pair"*, %"struct.std::pair"*, %"struct.std::pair"* }
%"struct.std::pair" = type <{ double, i32, [4 x i8] }>
%"class.__gnu_cxx::__normal_iterator" = type { %"struct.std::pair"* }
%"class.std::allocator.0" = type { i8 }
%"class.std::vector.8" = type { %"struct.std::_Vector_base.9" }
%"struct.std::_Vector_base.9" = type { %"struct.std::_Vector_base<double, std::allocator<double> >::_Vector_impl" }
%"struct.std::_Vector_base<double, std::allocator<double> >::_Vector_impl" = type { double*, double*, double* }
%"class.std::vector.3" = type { %"struct.std::_Vector_base.4" }
%"struct.std::_Vector_base.4" = type { %"struct.std::_Vector_base<Node, std::allocator<Node> >::_Vector_impl" }
%"struct.std::_Vector_base<Node, std::allocator<Node> >::_Vector_impl" = type { %class.Node*, %class.Node*, %class.Node* }
%"class.std::allocator.10" = type { i8 }
%"class.__gnu_cxx::new_allocator.11" = type { i8 }
%"class.std::vector.18" = type { %"struct.std::_Vector_base.19" }
%"struct.std::_Vector_base.19" = type { %"struct.std::_Vector_base<std::vector<double, std::allocator<double> >, std::allocator<std::vector<double, std::allocator<double> > > >::_Vector_impl" }
%"struct.std::_Vector_base<std::vector<double, std::allocator<double> >, std::allocator<std::vector<double, std::allocator<double> > > >::_Vector_impl" = type { %"class.std::vector.8"*, %"class.std::vector.8"*, %"class.std::vector.8"* }
%"class.std::vector.13" = type { %"struct.std::_Vector_base.14" }
%"struct.std::_Vector_base.14" = type { %"struct.std::_Vector_base<std::vector<Node, std::allocator<Node> >, std::allocator<std::vector<Node, std::allocator<Node> > > >::_Vector_impl" }
%"struct.std::_Vector_base<std::vector<Node, std::allocator<Node> >, std::allocator<std::vector<Node, std::allocator<Node> > > >::_Vector_impl" = type { %"class.std::vector.3"*, %"class.std::vector.3"*, %"class.std::vector.3"* }
%"class.std::allocator.20" = type { i8 }
%"class.__gnu_cxx::new_allocator.21" = type { i8 }
%struct.MonadicOperationResult = type { double, double }
%struct.DyadicOperationResult = type { double, double, double }
%struct.PolyadicOperationResult = type <{ double, %"class.std::vector.8", [4 x i8] }>
%class.anon = type { i8 }
%class.anon.23 = type { i8 }
%class.anon.25 = type { i8 }
%class.anon.27 = type { i8 }
%class.anon.29 = type { i8 }
%class.anon.31 = type { i8 }
%class.anon.33 = type { i8 }
%class.anon.35 = type { i8 }
%class.anon.37 = type { i8 }
%class.anon.39 = type { i8 }
%class.anon.41 = type { i8 }
%class.anon.43 = type { i8 }
%class.anon.45 = type { i8 }
%class.anon.47 = type { i8 }
%class.anon.49 = type { i8 }
%class.anon.51 = type { i8 }
%class.anon.53 = type { i8 }
%class.anon.55 = type { i8 }
%class.anon.57 = type { i8 }
%class.anon.59 = type { i8 }
%class.anon.61 = type { i8 }
%class.anon.63 = type { i8 }
%"class.std::basic_ostream" = type { i32 (...)**, %"class.std::basic_ios" }
%"class.std::basic_ios" = type { %"class.std::ios_base", %"class.std::basic_ostream"*, i8, i8, %"class.std::basic_streambuf"*, %"class.std::ctype"*, %"class.std::num_put"*, %"class.std::num_get"* }
%"class.std::ios_base" = type { i32 (...)**, i32, i32, i32, i32, i32, %"struct.std::ios_base::_Callback_list"*, %"struct.std::ios_base::_Words", [8 x %"struct.std::ios_base::_Words"], i32, %"struct.std::ios_base::_Words"*, %"class.std::locale" }
%"struct.std::ios_base::_Callback_list" = type { %"struct.std::ios_base::_Callback_list"*, void (i32, %"class.std::ios_base"*, i32)*, i32, i32 }
%"struct.std::ios_base::_Words" = type { i8*, i32 }
%"class.std::locale" = type { %"class.std::locale::_Impl"* }
%"class.std::locale::_Impl" = type { i32, %"class.std::locale::facet"**, i32, %"class.std::locale::facet"**, i8** }
%"class.std::locale::facet" = type { i32 (...)**, i32 }
%"class.std::basic_streambuf" = type { i32 (...)**, i8*, i8*, i8*, i8*, i8*, i8*, %"class.std::locale" }
%"class.std::ctype" = type <{ %"class.std::locale::facet", i32*, i8, [3 x i8], i32*, i32*, i8*, i8, [256 x i8], [256 x i8], i8, [2 x i8] }>
%"class.std::num_put" = type { %"class.std::locale::facet" }
%"class.std::num_get" = type { %"class.std::locale::facet" }
%"class.__gnu_cxx::new_allocator.1" = type { i8 }
%"class.std::move_iterator" = type { double* }

$_ZNSt6vectorISt4pairIdlESaIS1_EE5beginEv = comdat any

$_ZNSt6vectorISt4pairIdlESaIS1_EE3endEv = comdat any

$_ZN9__gnu_cxxneIPSt4pairIdlESt6vectorIS2_SaIS2_EEEEbRKNS_17__normal_iteratorIT_T0_EESC_ = comdat any

$_ZNK9__gnu_cxx17__normal_iteratorIPSt4pairIdlESt6vectorIS2_SaIS2_EEEdeEv = comdat any

$_ZN9__gnu_cxx17__normal_iteratorIPSt4pairIdlESt6vectorIS2_SaIS2_EEEppEv = comdat any

$_ZNSt6vectorISt4pairIdlESaIS1_EED2Ev = comdat any

$_ZNKSt6vectorI4NodeSaIS0_EE4sizeEv = comdat any

$_ZNSaIdEC2Ev = comdat any

$_ZNSt6vectorIdSaIdEEC2EjRKS0_ = comdat any

$_ZNSaIdED2Ev = comdat any

$_ZNKSt6vectorI4NodeSaIS0_EEixEj = comdat any

$_ZNSt6vectorIdSaIdEEixEj = comdat any

$_ZNSt6vectorIdSaIdEED2Ev = comdat any

$_ZNKSt6vectorIS_I4NodeSaIS0_EESaIS2_EE4sizeEv = comdat any

$_ZNSaISt6vectorIdSaIdEEEC2Ev = comdat any

$_ZNSt6vectorIS_IdSaIdEESaIS1_EEC2EjRKS2_ = comdat any

$_ZNSaISt6vectorIdSaIdEEED2Ev = comdat any

$_ZNSt6vectorIS_IdSaIdEESaIS1_EEixEj = comdat any

$_ZNSt6vectorIdSaIdEE6resizeEj = comdat any

$_ZNKSt6vectorIS_I4NodeSaIS0_EESaIS2_EEixEj = comdat any

$_ZNSt6vectorIS_IdSaIdEESaIS1_EED2Ev = comdat any

$_ZSt9make_pairIRdRKlESt4pairINSt17__decay_and_stripIT_E6__typeENS4_IT0_E6__typeEEOS5_OS8_ = comdat any

$_ZN23PolyadicOperationResultD2Ev = comdat any

$_ZSt7forwardIRdEOT_RNSt16remove_referenceIS1_E4typeE = comdat any

$_ZSt7forwardIRKlEOT_RNSt16remove_referenceIS2_E4typeE = comdat any

$_ZNSt4pairIdlEC2IRdLb1EEEOT_RKl = comdat any

$_ZN21DyadicOperationResultC2Eddd = comdat any

$_ZN22MonadicOperationResultC2Edd = comdat any

$_ZSt8_DestroyIPddEvT_S1_RSaIT0_E = comdat any

$_ZNSt12_Vector_baseIdSaIdEE19_M_get_Tp_allocatorEv = comdat any

$_ZNSt12_Vector_baseIdSaIdEED2Ev = comdat any

$__clang_call_terminate = comdat any

$_ZSt8_DestroyIPdEvT_S1_ = comdat any

$_ZNSt12_Destroy_auxILb1EE9__destroyIPdEEvT_S3_ = comdat any

$_ZNSt12_Vector_baseIdSaIdEE13_M_deallocateEPdj = comdat any

$_ZNSt12_Vector_baseIdSaIdEE12_Vector_implD2Ev = comdat any

$_ZNSt16allocator_traitsISaIdEE10deallocateERS0_Pdj = comdat any

$_ZN9__gnu_cxx13new_allocatorIdE10deallocateEPdj = comdat any

$_ZN9__gnu_cxx13new_allocatorIdED2Ev = comdat any

$_ZSt8_DestroyIPSt4pairIdlES1_EvT_S3_RSaIT0_E = comdat any

$_ZNSt12_Vector_baseISt4pairIdlESaIS1_EE19_M_get_Tp_allocatorEv = comdat any

$_ZNSt12_Vector_baseISt4pairIdlESaIS1_EED2Ev = comdat any

$_ZSt8_DestroyIPSt4pairIdlEEvT_S3_ = comdat any

$_ZNSt12_Destroy_auxILb1EE9__destroyIPSt4pairIdlEEEvT_S5_ = comdat any

$_ZNSt12_Vector_baseISt4pairIdlESaIS1_EE13_M_deallocateEPS1_j = comdat any

$_ZNSt12_Vector_baseISt4pairIdlESaIS1_EE12_Vector_implD2Ev = comdat any

$_ZNSt16allocator_traitsISaISt4pairIdlEEE10deallocateERS2_PS1_j = comdat any

$_ZN9__gnu_cxx13new_allocatorISt4pairIdlEE10deallocateEPS2_j = comdat any

$_ZNSaISt4pairIdlEED2Ev = comdat any

$_ZN9__gnu_cxx13new_allocatorISt4pairIdlEED2Ev = comdat any

$_ZN9__gnu_cxx17__normal_iteratorIPSt4pairIdlESt6vectorIS2_SaIS2_EEEC2ERKS3_ = comdat any

$_ZNK9__gnu_cxx17__normal_iteratorIPSt4pairIdlESt6vectorIS2_SaIS2_EEE4baseEv = comdat any

$_ZN9__gnu_cxx13new_allocatorIdEC2Ev = comdat any

$_ZNSt12_Vector_baseIdSaIdEEC2EjRKS0_ = comdat any

$_ZNSt6vectorIdSaIdEE21_M_default_initializeEj = comdat any

$_ZNSt12_Vector_baseIdSaIdEE12_Vector_implC2ERKS0_ = comdat any

$_ZNSt12_Vector_baseIdSaIdEE17_M_create_storageEj = comdat any

$_ZNSaIdEC2ERKS_ = comdat any

$_ZN9__gnu_cxx13new_allocatorIdEC2ERKS1_ = comdat any

$_ZNSt12_Vector_baseIdSaIdEE11_M_allocateEj = comdat any

$_ZNSt16allocator_traitsISaIdEE8allocateERS0_j = comdat any

$_ZN9__gnu_cxx13new_allocatorIdE8allocateEjPKv = comdat any

$_ZNK9__gnu_cxx13new_allocatorIdE8max_sizeEv = comdat any

$_ZSt27__uninitialized_default_n_aIPdjdET_S1_T0_RSaIT1_E = comdat any

$_ZSt25__uninitialized_default_nIPdjET_S1_T0_ = comdat any

$_ZNSt27__uninitialized_default_n_1ILb1EE18__uninit_default_nIPdjEET_S3_T0_ = comdat any

$_ZSt6fill_nIPdjdET_S1_T0_RKT1_ = comdat any

$_ZSt10__fill_n_aIPdjdEN9__gnu_cxx11__enable_ifIXsr11__is_scalarIT1_EE7__valueET_E6__typeES4_T0_RKS3_ = comdat any

$_ZSt12__niter_baseIPdET_S1_ = comdat any

$_ZN9__gnu_cxx13new_allocatorISt6vectorIdSaIdEEEC2Ev = comdat any

$_ZN9__gnu_cxx13new_allocatorISt6vectorIdSaIdEEED2Ev = comdat any

$_ZNSt12_Vector_baseISt6vectorIdSaIdEESaIS2_EEC2EjRKS3_ = comdat any

$_ZNSt6vectorIS_IdSaIdEESaIS1_EE21_M_default_initializeEj = comdat any

$_ZNSt12_Vector_baseISt6vectorIdSaIdEESaIS2_EED2Ev = comdat any

$_ZNSt12_Vector_baseISt6vectorIdSaIdEESaIS2_EE12_Vector_implC2ERKS3_ = comdat any

$_ZNSt12_Vector_baseISt6vectorIdSaIdEESaIS2_EE17_M_create_storageEj = comdat any

$_ZNSt12_Vector_baseISt6vectorIdSaIdEESaIS2_EE12_Vector_implD2Ev = comdat any

$_ZNSaISt6vectorIdSaIdEEEC2ERKS2_ = comdat any

$_ZN9__gnu_cxx13new_allocatorISt6vectorIdSaIdEEEC2ERKS4_ = comdat any

$_ZNSt12_Vector_baseISt6vectorIdSaIdEESaIS2_EE11_M_allocateEj = comdat any

$_ZNSt16allocator_traitsISaISt6vectorIdSaIdEEEE8allocateERS3_j = comdat any

$_ZN9__gnu_cxx13new_allocatorISt6vectorIdSaIdEEE8allocateEjPKv = comdat any

$_ZNK9__gnu_cxx13new_allocatorISt6vectorIdSaIdEEE8max_sizeEv = comdat any

$_ZSt27__uninitialized_default_n_aIPSt6vectorIdSaIdEEjS2_ET_S4_T0_RSaIT1_E = comdat any

$_ZNSt12_Vector_baseISt6vectorIdSaIdEESaIS2_EE19_M_get_Tp_allocatorEv = comdat any

$_ZSt25__uninitialized_default_nIPSt6vectorIdSaIdEEjET_S4_T0_ = comdat any

$_ZNSt27__uninitialized_default_n_1ILb0EE18__uninit_default_nIPSt6vectorIdSaIdEEjEET_S6_T0_ = comdat any

$_ZSt10_ConstructISt6vectorIdSaIdEEJEEvPT_DpOT0_ = comdat any

$_ZSt11__addressofISt6vectorIdSaIdEEEPT_RS3_ = comdat any

$_ZSt8_DestroyIPSt6vectorIdSaIdEEEvT_S4_ = comdat any

$_ZNSt6vectorIdSaIdEEC2Ev = comdat any

$_ZNSt12_Vector_baseIdSaIdEEC2Ev = comdat any

$_ZNSt12_Vector_baseIdSaIdEE12_Vector_implC2Ev = comdat any

$_ZNSt12_Destroy_auxILb0EE9__destroyIPSt6vectorIdSaIdEEEEvT_S6_ = comdat any

$_ZSt8_DestroyISt6vectorIdSaIdEEEvPT_ = comdat any

$_ZNSt12_Vector_baseISt6vectorIdSaIdEESaIS2_EE13_M_deallocateEPS2_j = comdat any

$_ZNSt16allocator_traitsISaISt6vectorIdSaIdEEEE10deallocateERS3_PS2_j = comdat any

$_ZN9__gnu_cxx13new_allocatorISt6vectorIdSaIdEEE10deallocateEPS3_j = comdat any

$_ZSt8_DestroyIPSt6vectorIdSaIdEES2_EvT_S4_RSaIT0_E = comdat any

$_ZNKSt6vectorIdSaIdEE4sizeEv = comdat any

$_ZNSt6vectorIdSaIdEE17_M_default_appendEj = comdat any

$_ZNSt6vectorIdSaIdEE15_M_erase_at_endEPd = comdat any

$_ZNKSt6vectorIdSaIdEE12_M_check_lenEjPKc = comdat any

$_ZSt34__uninitialized_move_if_noexcept_aIPdS0_SaIdEET0_T_S3_S2_RT1_ = comdat any

$_ZNKSt6vectorIdSaIdEE8max_sizeEv = comdat any

$_ZSt3maxIjERKT_S2_S2_ = comdat any

$_ZNSt16allocator_traitsISaIdEE8max_sizeERKS0_ = comdat any

$_ZNKSt12_Vector_baseIdSaIdEE19_M_get_Tp_allocatorEv = comdat any

$_ZSt22__uninitialized_copy_aISt13move_iteratorIPdES1_dET0_T_S4_S3_RSaIT1_E = comdat any

$_ZSt32__make_move_if_noexcept_iteratorIdSt13move_iteratorIPdEET0_PT_ = comdat any

$_ZSt18uninitialized_copyISt13move_iteratorIPdES1_ET0_T_S4_S3_ = comdat any

$_ZNSt20__uninitialized_copyILb1EE13__uninit_copyISt13move_iteratorIPdES3_EET0_T_S6_S5_ = comdat any

$_ZSt4copyISt13move_iteratorIPdES1_ET0_T_S4_S3_ = comdat any

$_ZSt14__copy_move_a2ILb1EPdS0_ET1_T0_S2_S1_ = comdat any

$_ZSt12__miter_baseIPdEDTcl12__miter_basecldtfp_4baseEEESt13move_iteratorIT_E = comdat any

$_ZSt13__copy_move_aILb1EPdS0_ET1_T0_S2_S1_ = comdat any

$_ZNSt11__copy_moveILb1ELb1ESt26random_access_iterator_tagE8__copy_mIdEEPT_PKS3_S6_S4_ = comdat any

$_ZSt12__miter_baseIPdET_S1_ = comdat any

$_ZNKSt13move_iteratorIPdE4baseEv = comdat any

$_ZNSt13move_iteratorIPdEC2ES0_ = comdat any

@_ZStL8__ioinit = internal global %"class.std::ios_base::Init" zeroinitializer, align 1
@__dso_handle = external global i8
@.str = private unnamed_addr constant [26 x i8] c"vector::_M_default_append\00", align 1
@llvm.global_ctors = appending global [1 x { i32, void ()*, i8* }] [{ i32, void ()*, i8* } { i32 65535, void ()* @_GLOBAL__sub_I_node.cpp, i8* null }]

@_ZN4NodeC1ERKd = alias %class.Node* (%class.Node*, double*), %class.Node* (%class.Node*, double*)* @_ZN4NodeC2ERKd
@_ZN4NodeC1ERKS_ = alias %class.Node* (%class.Node*, %class.Node*), %class.Node* (%class.Node*, %class.Node*)* @_ZN4NodeC2ERKS_

define internal void @__cxx_global_var_init() #0 !dbg !2487 {
  %1 = call %"class.std::ios_base::Init"* @_ZNSt8ios_base4InitC1Ev(%"class.std::ios_base::Init"* @_ZStL8__ioinit), !dbg !2488
  %2 = call i32 @__cxa_atexit(void (i8*)* bitcast (%"class.std::ios_base::Init"* (%"class.std::ios_base::Init"*)* @_ZNSt8ios_base4InitD1Ev to void (i8*)*), i8* getelementptr inbounds (%"class.std::ios_base::Init", %"class.std::ios_base::Init"* @_ZStL8__ioinit, i32 0, i32 0), i8* @__dso_handle) #3, !dbg !2489
  ret void, !dbg !2488
}

declare !xidane.fname !2491 !xidane.function_declaration_type !2492 !xidane.function_declaration_filename !2493 %"class.std::ios_base::Init"* @_ZNSt8ios_base4InitC1Ev(%"class.std::ios_base::Init"* returned) unnamed_addr #1

; Function Attrs: nounwind
declare !xidane.fname !2494 !xidane.function_declaration_type !2492 !xidane.function_declaration_filename !2493 %"class.std::ios_base::Init"* @_ZNSt8ios_base4InitD1Ev(%"class.std::ios_base::Init"* returned) unnamed_addr #2

; Function Attrs: nounwind
declare i32 @__cxa_atexit(void (i8*)*, i8*, i8*) #3

define %class.Node* @_ZN4NodeC2ERKd(%class.Node* returned, double* dereferenceable(8)) unnamed_addr #0 align 2 !dbg !2495 !xidane.fname !4199 !xidane.function_declaration_type !4200 !xidane.function_declaration_filename !4201 {
  %3 = alloca %class.Node*, align 4
  %4 = alloca double*, align 4
  store %class.Node* %0, %class.Node** %3, align 4
  call void @llvm.dbg.declare(metadata %class.Node** %3, metadata !4202, metadata !4203), !dbg !4204
  store double* %1, double** %4, align 4
  call void @llvm.dbg.declare(metadata double** %4, metadata !4205, metadata !4203), !dbg !4206
  %5 = load %class.Node*, %class.Node** %3, align 4
  %6 = load double*, double** %4, align 4, !dbg !4207
  %7 = load double, double* %6, align 8, !dbg !4207
  %8 = getelementptr inbounds %class.Node, %class.Node* %5, i32 0, i32 0, !dbg !4209
  store double %7, double* %8, align 8, !dbg !4210
  %9 = call i32 @_ZN5Graph3uidEv(), !dbg !4211
  %10 = getelementptr inbounds %class.Node, %class.Node* %5, i32 0, i32 1, !dbg !4212
  store i32 %9, i32* %10, align 8, !dbg !4213
  ret %class.Node* %5, !dbg !4214
}

; Function Attrs: nounwind readnone
declare void @llvm.dbg.declare(metadata, metadata, metadata) #4

declare !xidane.fname !4215 !xidane.function_declaration_type !4216 !xidane.function_declaration_filename !4217 i32 @_ZN5Graph3uidEv() #1

; Function Attrs: nounwind
define %class.Node* @_ZN4NodeC2ERKS_(%class.Node* returned, %class.Node* dereferenceable(16)) unnamed_addr #5 align 2 !dbg !4218 !xidane.fname !4199 !xidane.function_declaration_type !4219 !xidane.function_declaration_filename !4201 {
  %3 = alloca %class.Node*, align 4
  %4 = alloca %class.Node*, align 4
  store %class.Node* %0, %class.Node** %3, align 4
  call void @llvm.dbg.declare(metadata %class.Node** %3, metadata !4220, metadata !4203), !dbg !4221
  store %class.Node* %1, %class.Node** %4, align 4
  call void @llvm.dbg.declare(metadata %class.Node** %4, metadata !4222, metadata !4203), !dbg !4223
  %5 = load %class.Node*, %class.Node** %3, align 4
  %6 = load %class.Node*, %class.Node** %4, align 4, !dbg !4224
  %7 = getelementptr inbounds %class.Node, %class.Node* %6, i32 0, i32 0, !dbg !4226
  %8 = load double, double* %7, align 8, !dbg !4226
  %9 = getelementptr inbounds %class.Node, %class.Node* %5, i32 0, i32 0, !dbg !4227
  store double %8, double* %9, align 8, !dbg !4228
  %10 = load %class.Node*, %class.Node** %4, align 4, !dbg !4229
  %11 = getelementptr inbounds %class.Node, %class.Node* %10, i32 0, i32 1, !dbg !4230
  %12 = load i32, i32* %11, align 8, !dbg !4230
  %13 = getelementptr inbounds %class.Node, %class.Node* %5, i32 0, i32 1, !dbg !4231
  store i32 %12, i32* %13, align 8, !dbg !4232
  ret %class.Node* %5, !dbg !4233
}

define double @_ZNK4Node18gradient_recursiveEP5GraphRKlS3_(%class.Node*, %class.Graph*, i32* dereferenceable(4), i32* dereferenceable(4)) #0 align 2 personality i8* bitcast (i32 (...)* @__gxx_personality_v0 to i8*) !dbg !4234 !xidane.fname !4235 !xidane.function_declaration_type !4236 !xidane.function_declaration_filename !4201 {
  %5 = alloca double, align 8
  %6 = alloca %class.Node*, align 4
  %7 = alloca %class.Graph*, align 4
  %8 = alloca i32*, align 4
  %9 = alloca i32*, align 4
  %10 = alloca double, align 8
  %11 = alloca %"class.std::vector"*, align 4
  %12 = alloca %"class.std::vector", align 4
  %13 = alloca %"class.__gnu_cxx::__normal_iterator", align 4
  %14 = alloca %"class.__gnu_cxx::__normal_iterator", align 4
  %15 = alloca %"struct.std::pair"*, align 4
  %16 = alloca i8*
  %17 = alloca i32
  store %class.Node* %0, %class.Node** %6, align 4
  call void @llvm.dbg.declare(metadata %class.Node** %6, metadata !4237, metadata !4203), !dbg !4238
  store %class.Graph* %1, %class.Graph** %7, align 4
  call void @llvm.dbg.declare(metadata %class.Graph** %7, metadata !4239, metadata !4203), !dbg !4240
  store i32* %2, i32** %8, align 4
  call void @llvm.dbg.declare(metadata i32** %8, metadata !4241, metadata !4203), !dbg !4242
  store i32* %3, i32** %9, align 4
  call void @llvm.dbg.declare(metadata i32** %9, metadata !4243, metadata !4203), !dbg !4244
  %18 = load %class.Node*, %class.Node** %6, align 4
  %19 = load i32*, i32** %8, align 4, !dbg !4245
  %20 = load i32, i32* %19, align 4, !dbg !4245
  %21 = load i32*, i32** %9, align 4, !dbg !4247
  %22 = load i32, i32* %21, align 4, !dbg !4247
  %23 = icmp eq i32 %20, %22, !dbg !4248
  br i1 %23, label %24, label %25, !dbg !4249

; <label>:24:                                     ; preds = %4
  store double 1.000000e+00, double* %5, align 8, !dbg !4250
  br label %68, !dbg !4250

; <label>:25:                                     ; preds = %4
  call void @llvm.dbg.declare(metadata double* %10, metadata !4252, metadata !4203), !dbg !4253
  store double 0.000000e+00, double* %10, align 8, !dbg !4253
  %26 = load %class.Graph*, %class.Graph** %7, align 4, !dbg !4254
  %27 = load i32*, i32** %8, align 4, !dbg !4256
  %28 = call zeroext i1 @_ZNK5Graph3hasERKl(%class.Graph* %26, i32* dereferenceable(4) %27), !dbg !4257
  br i1 %28, label %29, label %66, !dbg !4258

; <label>:29:                                     ; preds = %25
  call void @llvm.dbg.declare(metadata %"class.std::vector"** %11, metadata !4259, metadata !4203), !dbg !4262
  %30 = load %class.Graph*, %class.Graph** %7, align 4, !dbg !4263
  %31 = load i32*, i32** %8, align 4, !dbg !4264
  call void @_ZNK5Graph3getERKl(%"class.std::vector"* sret %12, %class.Graph* %30, i32* dereferenceable(4) %31), !dbg !4265
  store %"class.std::vector"* %12, %"class.std::vector"** %11, align 4, !dbg !4263
  call void @llvm.dbg.declare(metadata %"class.__gnu_cxx::__normal_iterator"* %13, metadata !4266, metadata !4203), !dbg !4262
  %32 = load %"class.std::vector"*, %"class.std::vector"** %11, align 4, !dbg !4267
  %33 = call i32 @_ZNSt6vectorISt4pairIdlESaIS1_EE5beginEv(%"class.std::vector"* %32) #3, !dbg !4268
  %34 = getelementptr inbounds %"class.__gnu_cxx::__normal_iterator", %"class.__gnu_cxx::__normal_iterator"* %13, i32 0, i32 0, !dbg !4267
  %35 = inttoptr i32 %33 to %"struct.std::pair"*, !dbg !4267
  store %"struct.std::pair"* %35, %"struct.std::pair"** %34, align 4, !dbg !4267
  call void @llvm.dbg.declare(metadata %"class.__gnu_cxx::__normal_iterator"* %14, metadata !4270, metadata !4203), !dbg !4262
  %36 = load %"class.std::vector"*, %"class.std::vector"** %11, align 4, !dbg !4267
  %37 = call i32 @_ZNSt6vectorISt4pairIdlESaIS1_EE3endEv(%"class.std::vector"* %36) #3, !dbg !4271
  %38 = getelementptr inbounds %"class.__gnu_cxx::__normal_iterator", %"class.__gnu_cxx::__normal_iterator"* %14, i32 0, i32 0, !dbg !4267
  %39 = inttoptr i32 %37 to %"struct.std::pair"*, !dbg !4267
  store %"struct.std::pair"* %39, %"struct.std::pair"** %38, align 4, !dbg !4267
  br label %40, !dbg !4267

; <label>:40:                                     ; preds = %58, %29
  %41 = call zeroext i1 @_ZN9__gnu_cxxneIPSt4pairIdlESt6vectorIS2_SaIS2_EEEEbRKNS_17__normal_iteratorIT_T0_EESC_(%"class.__gnu_cxx::__normal_iterator"* dereferenceable(4) %13, %"class.__gnu_cxx::__normal_iterator"* dereferenceable(4) %14) #3, !dbg !4273
  br i1 %41, label %44, label %42, !dbg !4273

; <label>:42:                                     ; preds = %40
  %43 = call %"class.std::vector"* @_ZNSt6vectorISt4pairIdlESaIS1_EED2Ev(%"class.std::vector"* %12) #3, !dbg !4275
  br label %65

; <label>:44:                                     ; preds = %40
  call void @llvm.dbg.declare(metadata %"struct.std::pair"** %15, metadata !4277, metadata !4203), !dbg !4279
  %45 = call dereferenceable(16) %"struct.std::pair"* @_ZNK9__gnu_cxx17__normal_iteratorIPSt4pairIdlESt6vectorIS2_SaIS2_EEEdeEv(%"class.__gnu_cxx::__normal_iterator"* %13) #3, !dbg !4280
  store %"struct.std::pair"* %45, %"struct.std::pair"** %15, align 4, !dbg !4282
  %46 = load %"struct.std::pair"*, %"struct.std::pair"** %15, align 4, !dbg !4283
  %47 = getelementptr inbounds %"struct.std::pair", %"struct.std::pair"* %46, i32 0, i32 0, !dbg !4285
  %48 = load double, double* %47, align 8, !dbg !4285
  %49 = load %class.Graph*, %class.Graph** %7, align 4, !dbg !4286
  %50 = load %"struct.std::pair"*, %"struct.std::pair"** %15, align 4, !dbg !4287
  %51 = getelementptr inbounds %"struct.std::pair", %"struct.std::pair"* %50, i32 0, i32 1, !dbg !4288
  %52 = load i32*, i32** %9, align 4, !dbg !4289
  %53 = invoke double @_ZNK4Node18gradient_recursiveEP5GraphRKlS3_(%class.Node* %18, %class.Graph* %49, i32* dereferenceable(4) %51, i32* dereferenceable(4) %52)
          to label %54 unwind label %60, !dbg !4290

; <label>:54:                                     ; preds = %44
  %55 = fmul double %48, %53, !dbg !4291
  %56 = load double, double* %10, align 8, !dbg !4293
  %57 = fadd double %56, %55, !dbg !4293
  store double %57, double* %10, align 8, !dbg !4293
  br label %58, !dbg !4294

; <label>:58:                                     ; preds = %54
  %59 = call dereferenceable(4) %"class.__gnu_cxx::__normal_iterator"* @_ZN9__gnu_cxx17__normal_iteratorIPSt4pairIdlESt6vectorIS2_SaIS2_EEEppEv(%"class.__gnu_cxx::__normal_iterator"* %13) #3, !dbg !4296
  br label %40, !dbg !4296, !llvm.loop !4298

; <label>:60:                                     ; preds = %44
  %61 = landingpad { i8*, i32 }
          cleanup, !dbg !4300
  %62 = extractvalue { i8*, i32 } %61, 0, !dbg !4300
  store i8* %62, i8** %16, align 4, !dbg !4300
  %63 = extractvalue { i8*, i32 } %61, 1, !dbg !4300
  store i32 %63, i32* %17, align 4, !dbg !4300
  %64 = call %"class.std::vector"* @_ZNSt6vectorISt4pairIdlESaIS1_EED2Ev(%"class.std::vector"* %12) #3, !dbg !4301
  br label %70, !dbg !4301

; <label>:65:                                     ; preds = %42
  br label %66, !dbg !4303

; <label>:66:                                     ; preds = %65, %25
  %67 = load double, double* %10, align 8, !dbg !4304
  store double %67, double* %5, align 8, !dbg !4305
  br label %68, !dbg !4305

; <label>:68:                                     ; preds = %66, %24
  %69 = load double, double* %5, align 8, !dbg !4306
  ret double %69, !dbg !4306

; <label>:70:                                     ; preds = %60
  %71 = load i8*, i8** %16, align 4, !dbg !4308
  %72 = load i32, i32* %17, align 4, !dbg !4308
  %73 = insertvalue { i8*, i32 } undef, i8* %71, 0, !dbg !4308
  %74 = insertvalue { i8*, i32 } %73, i32 %72, 1, !dbg !4308
  resume { i8*, i32 } %74, !dbg !4308
}

declare !xidane.fname !4310 !xidane.function_declaration_type !4311 !xidane.function_declaration_filename !4217 zeroext i1 @_ZNK5Graph3hasERKl(%class.Graph*, i32* dereferenceable(4)) #1

declare !xidane.fname !4312 !xidane.function_declaration_type !4313 !xidane.function_declaration_filename !4217 void @_ZNK5Graph3getERKl(%"class.std::vector"* sret, %class.Graph*, i32* dereferenceable(4)) #1

; Function Attrs: nounwind
define linkonce_odr i32 @_ZNSt6vectorISt4pairIdlESaIS1_EE5beginEv(%"class.std::vector"*) #5 comdat align 2 !dbg !4314 !xidane.fname !4315 !xidane.function_declaration_type !4316 !xidane.function_declaration_filename !4317 {
  %2 = alloca %"class.__gnu_cxx::__normal_iterator", align 4
  %3 = alloca %"class.std::vector"*, align 4
  store %"class.std::vector"* %0, %"class.std::vector"** %3, align 4
  call void @llvm.dbg.declare(metadata %"class.std::vector"** %3, metadata !4318, metadata !4203), !dbg !4320
  %4 = load %"class.std::vector"*, %"class.std::vector"** %3, align 4
  %5 = bitcast %"class.std::vector"* %4 to %"struct.std::_Vector_base"*, !dbg !4321
  %6 = getelementptr inbounds %"struct.std::_Vector_base", %"struct.std::_Vector_base"* %5, i32 0, i32 0, !dbg !4321
  %7 = getelementptr inbounds %"struct.std::_Vector_base<std::pair<double, long>, std::allocator<std::pair<double, long> > >::_Vector_impl", %"struct.std::_Vector_base<std::pair<double, long>, std::allocator<std::pair<double, long> > >::_Vector_impl"* %6, i32 0, i32 0, !dbg !4322
  %8 = call %"class.__gnu_cxx::__normal_iterator"* @_ZN9__gnu_cxx17__normal_iteratorIPSt4pairIdlESt6vectorIS2_SaIS2_EEEC2ERKS3_(%"class.__gnu_cxx::__normal_iterator"* %2, %"struct.std::pair"** dereferenceable(4) %7) #3, !dbg !4323
  %9 = getelementptr inbounds %"class.__gnu_cxx::__normal_iterator", %"class.__gnu_cxx::__normal_iterator"* %2, i32 0, i32 0, !dbg !4324
  %10 = load %"struct.std::pair"*, %"struct.std::pair"** %9, align 4, !dbg !4324
  %11 = ptrtoint %"struct.std::pair"* %10 to i32, !dbg !4324
  ret i32 %11, !dbg !4324
}

; Function Attrs: nounwind
define linkonce_odr i32 @_ZNSt6vectorISt4pairIdlESaIS1_EE3endEv(%"class.std::vector"*) #5 comdat align 2 !dbg !4325 !xidane.fname !4326 !xidane.function_declaration_type !4316 !xidane.function_declaration_filename !4317 {
  %2 = alloca %"class.__gnu_cxx::__normal_iterator", align 4
  %3 = alloca %"class.std::vector"*, align 4
  store %"class.std::vector"* %0, %"class.std::vector"** %3, align 4
  call void @llvm.dbg.declare(metadata %"class.std::vector"** %3, metadata !4327, metadata !4203), !dbg !4328
  %4 = load %"class.std::vector"*, %"class.std::vector"** %3, align 4
  %5 = bitcast %"class.std::vector"* %4 to %"struct.std::_Vector_base"*, !dbg !4329
  %6 = getelementptr inbounds %"struct.std::_Vector_base", %"struct.std::_Vector_base"* %5, i32 0, i32 0, !dbg !4329
  %7 = getelementptr inbounds %"struct.std::_Vector_base<std::pair<double, long>, std::allocator<std::pair<double, long> > >::_Vector_impl", %"struct.std::_Vector_base<std::pair<double, long>, std::allocator<std::pair<double, long> > >::_Vector_impl"* %6, i32 0, i32 1, !dbg !4330
  %8 = call %"class.__gnu_cxx::__normal_iterator"* @_ZN9__gnu_cxx17__normal_iteratorIPSt4pairIdlESt6vectorIS2_SaIS2_EEEC2ERKS3_(%"class.__gnu_cxx::__normal_iterator"* %2, %"struct.std::pair"** dereferenceable(4) %7) #3, !dbg !4331
  %9 = getelementptr inbounds %"class.__gnu_cxx::__normal_iterator", %"class.__gnu_cxx::__normal_iterator"* %2, i32 0, i32 0, !dbg !4332
  %10 = load %"struct.std::pair"*, %"struct.std::pair"** %9, align 4, !dbg !4332
  %11 = ptrtoint %"struct.std::pair"* %10 to i32, !dbg !4332
  ret i32 %11, !dbg !4332
}

; Function Attrs: inlinehint nounwind
define linkonce_odr zeroext i1 @_ZN9__gnu_cxxneIPSt4pairIdlESt6vectorIS2_SaIS2_EEEEbRKNS_17__normal_iteratorIT_T0_EESC_(%"class.__gnu_cxx::__normal_iterator"* dereferenceable(4), %"class.__gnu_cxx::__normal_iterator"* dereferenceable(4)) #6 comdat !dbg !4333 !xidane.fname !4337 !xidane.function_declaration_type !4338 !xidane.function_declaration_filename !4339 {
  %3 = alloca %"class.__gnu_cxx::__normal_iterator"*, align 4
  %4 = alloca %"class.__gnu_cxx::__normal_iterator"*, align 4
  store %"class.__gnu_cxx::__normal_iterator"* %0, %"class.__gnu_cxx::__normal_iterator"** %3, align 4
  call void @llvm.dbg.declare(metadata %"class.__gnu_cxx::__normal_iterator"** %3, metadata !4340, metadata !4203), !dbg !4341
  store %"class.__gnu_cxx::__normal_iterator"* %1, %"class.__gnu_cxx::__normal_iterator"** %4, align 4
  call void @llvm.dbg.declare(metadata %"class.__gnu_cxx::__normal_iterator"** %4, metadata !4342, metadata !4203), !dbg !4343
  %5 = load %"class.__gnu_cxx::__normal_iterator"*, %"class.__gnu_cxx::__normal_iterator"** %3, align 4, !dbg !4344
  %6 = call dereferenceable(4) %"struct.std::pair"** @_ZNK9__gnu_cxx17__normal_iteratorIPSt4pairIdlESt6vectorIS2_SaIS2_EEE4baseEv(%"class.__gnu_cxx::__normal_iterator"* %5) #3, !dbg !4345
  %7 = load %"struct.std::pair"*, %"struct.std::pair"** %6, align 4, !dbg !4345
  %8 = load %"class.__gnu_cxx::__normal_iterator"*, %"class.__gnu_cxx::__normal_iterator"** %4, align 4, !dbg !4346
  %9 = call dereferenceable(4) %"struct.std::pair"** @_ZNK9__gnu_cxx17__normal_iteratorIPSt4pairIdlESt6vectorIS2_SaIS2_EEE4baseEv(%"class.__gnu_cxx::__normal_iterator"* %8) #3, !dbg !4347
  %10 = load %"struct.std::pair"*, %"struct.std::pair"** %9, align 4, !dbg !4349
  %11 = icmp ne %"struct.std::pair"* %7, %10, !dbg !4350
  ret i1 %11, !dbg !4351
}

; Function Attrs: nounwind
define linkonce_odr dereferenceable(16) %"struct.std::pair"* @_ZNK9__gnu_cxx17__normal_iteratorIPSt4pairIdlESt6vectorIS2_SaIS2_EEEdeEv(%"class.__gnu_cxx::__normal_iterator"*) #5 comdat align 2 !dbg !4352 !xidane.fname !4353 !xidane.function_declaration_type !4354 !xidane.function_declaration_filename !4339 {
  %2 = alloca %"class.__gnu_cxx::__normal_iterator"*, align 4
  store %"class.__gnu_cxx::__normal_iterator"* %0, %"class.__gnu_cxx::__normal_iterator"** %2, align 4
  call void @llvm.dbg.declare(metadata %"class.__gnu_cxx::__normal_iterator"** %2, metadata !4355, metadata !4203), !dbg !4357
  %3 = load %"class.__gnu_cxx::__normal_iterator"*, %"class.__gnu_cxx::__normal_iterator"** %2, align 4
  %4 = getelementptr inbounds %"class.__gnu_cxx::__normal_iterator", %"class.__gnu_cxx::__normal_iterator"* %3, i32 0, i32 0, !dbg !4358
  %5 = load %"struct.std::pair"*, %"struct.std::pair"** %4, align 4, !dbg !4358
  ret %"struct.std::pair"* %5, !dbg !4359
}

declare i32 @__gxx_personality_v0(...)

; Function Attrs: nounwind
define linkonce_odr dereferenceable(4) %"class.__gnu_cxx::__normal_iterator"* @_ZN9__gnu_cxx17__normal_iteratorIPSt4pairIdlESt6vectorIS2_SaIS2_EEEppEv(%"class.__gnu_cxx::__normal_iterator"*) #5 comdat align 2 !dbg !4360 !xidane.fname !4361 !xidane.function_declaration_type !4362 !xidane.function_declaration_filename !4339 {
  %2 = alloca %"class.__gnu_cxx::__normal_iterator"*, align 4
  store %"class.__gnu_cxx::__normal_iterator"* %0, %"class.__gnu_cxx::__normal_iterator"** %2, align 4
  call void @llvm.dbg.declare(metadata %"class.__gnu_cxx::__normal_iterator"** %2, metadata !4363, metadata !4203), !dbg !4365
  %3 = load %"class.__gnu_cxx::__normal_iterator"*, %"class.__gnu_cxx::__normal_iterator"** %2, align 4
  %4 = getelementptr inbounds %"class.__gnu_cxx::__normal_iterator", %"class.__gnu_cxx::__normal_iterator"* %3, i32 0, i32 0, !dbg !4366
  %5 = load %"struct.std::pair"*, %"struct.std::pair"** %4, align 4, !dbg !4367
  %6 = getelementptr inbounds %"struct.std::pair", %"struct.std::pair"* %5, i32 1, !dbg !4367
  store %"struct.std::pair"* %6, %"struct.std::pair"** %4, align 4, !dbg !4367
  ret %"class.__gnu_cxx::__normal_iterator"* %3, !dbg !4368
}

; Function Attrs: nounwind
define linkonce_odr %"class.std::vector"* @_ZNSt6vectorISt4pairIdlESaIS1_EED2Ev(%"class.std::vector"* returned) unnamed_addr #5 comdat align 2 personality i8* bitcast (i32 (...)* @__gxx_personality_v0 to i8*) !dbg !4369 !xidane.fname !4370 !xidane.function_declaration_type !2492 !xidane.function_declaration_filename !4317 {
  %2 = alloca %"class.std::vector"*, align 4
  %3 = alloca i8*
  %4 = alloca i32
  store %"class.std::vector"* %0, %"class.std::vector"** %2, align 4
  call void @llvm.dbg.declare(metadata %"class.std::vector"** %2, metadata !4371, metadata !4203), !dbg !4372
  %5 = load %"class.std::vector"*, %"class.std::vector"** %2, align 4
  %6 = bitcast %"class.std::vector"* %5 to %"struct.std::_Vector_base"*, !dbg !4373
  %7 = getelementptr inbounds %"struct.std::_Vector_base", %"struct.std::_Vector_base"* %6, i32 0, i32 0, !dbg !4373
  %8 = getelementptr inbounds %"struct.std::_Vector_base<std::pair<double, long>, std::allocator<std::pair<double, long> > >::_Vector_impl", %"struct.std::_Vector_base<std::pair<double, long>, std::allocator<std::pair<double, long> > >::_Vector_impl"* %7, i32 0, i32 0, !dbg !4375
  %9 = load %"struct.std::pair"*, %"struct.std::pair"** %8, align 4, !dbg !4375
  %10 = bitcast %"class.std::vector"* %5 to %"struct.std::_Vector_base"*, !dbg !4376
  %11 = getelementptr inbounds %"struct.std::_Vector_base", %"struct.std::_Vector_base"* %10, i32 0, i32 0, !dbg !4376
  %12 = getelementptr inbounds %"struct.std::_Vector_base<std::pair<double, long>, std::allocator<std::pair<double, long> > >::_Vector_impl", %"struct.std::_Vector_base<std::pair<double, long>, std::allocator<std::pair<double, long> > >::_Vector_impl"* %11, i32 0, i32 1, !dbg !4377
  %13 = load %"struct.std::pair"*, %"struct.std::pair"** %12, align 4, !dbg !4377
  %14 = bitcast %"class.std::vector"* %5 to %"struct.std::_Vector_base"*, !dbg !4378
  %15 = call dereferenceable(1) %"class.std::allocator.0"* @_ZNSt12_Vector_baseISt4pairIdlESaIS1_EE19_M_get_Tp_allocatorEv(%"struct.std::_Vector_base"* %14) #3, !dbg !4378
  invoke void @_ZSt8_DestroyIPSt4pairIdlES1_EvT_S3_RSaIT0_E(%"struct.std::pair"* %9, %"struct.std::pair"* %13, %"class.std::allocator.0"* dereferenceable(1) %15)
          to label %16 unwind label %19, !dbg !4379

; <label>:16:                                     ; preds = %1
  %17 = bitcast %"class.std::vector"* %5 to %"struct.std::_Vector_base"*, !dbg !4380
  %18 = call %"struct.std::_Vector_base"* @_ZNSt12_Vector_baseISt4pairIdlESaIS1_EED2Ev(%"struct.std::_Vector_base"* %17) #3, !dbg !4380
  ret %"class.std::vector"* %5, !dbg !4380

; <label>:19:                                     ; preds = %1
  %20 = landingpad { i8*, i32 }
          catch i8* null, !dbg !4382
  %21 = extractvalue { i8*, i32 } %20, 0, !dbg !4382
  store i8* %21, i8** %3, align 4, !dbg !4382
  %22 = extractvalue { i8*, i32 } %20, 1, !dbg !4382
  store i32 %22, i32* %4, align 4, !dbg !4382
  %23 = bitcast %"class.std::vector"* %5 to %"struct.std::_Vector_base"*, !dbg !4382
  %24 = call %"struct.std::_Vector_base"* @_ZNSt12_Vector_baseISt4pairIdlESaIS1_EED2Ev(%"struct.std::_Vector_base"* %23) #3, !dbg !4382
  br label %25, !dbg !4382

; <label>:25:                                     ; preds = %19
  %26 = load i8*, i8** %3, align 4, !dbg !4384
  call void @__clang_call_terminate(i8* %26) #14, !dbg !4384
  unreachable, !dbg !4384
}

define double @_ZNK4Node8gradientERKS_(%class.Node*, %class.Node* dereferenceable(16)) #0 align 2 !dbg !4386 !xidane.fname !4387 !xidane.function_declaration_type !4388 !xidane.function_declaration_filename !4201 {
  %3 = alloca %class.Node*, align 4
  %4 = alloca %class.Node*, align 4
  %5 = alloca %class.Graph*, align 4
  store %class.Node* %0, %class.Node** %3, align 4
  call void @llvm.dbg.declare(metadata %class.Node** %3, metadata !4389, metadata !4203), !dbg !4390
  store %class.Node* %1, %class.Node** %4, align 4
  call void @llvm.dbg.declare(metadata %class.Node** %4, metadata !4391, metadata !4203), !dbg !4392
  %6 = load %class.Node*, %class.Node** %3, align 4
  call void @llvm.dbg.declare(metadata %class.Graph** %5, metadata !4393, metadata !4203), !dbg !4394
  %7 = call %class.Graph* @_ZN5Graph11getInstanceEv(), !dbg !4395
  store %class.Graph* %7, %class.Graph** %5, align 4, !dbg !4394
  %8 = load %class.Graph*, %class.Graph** %5, align 4, !dbg !4396
  %9 = getelementptr inbounds %class.Node, %class.Node* %6, i32 0, i32 1, !dbg !4397
  %10 = load %class.Node*, %class.Node** %4, align 4, !dbg !4398
  %11 = getelementptr inbounds %class.Node, %class.Node* %10, i32 0, i32 1, !dbg !4399
  %12 = call double @_ZNK4Node18gradient_recursiveEP5GraphRKlS3_(%class.Node* %6, %class.Graph* %8, i32* dereferenceable(4) %9, i32* dereferenceable(4) %11), !dbg !4400
  ret double %12, !dbg !4401
}

declare !xidane.fname !4402 !xidane.function_declaration_type !4403 !xidane.function_declaration_filename !4217 %class.Graph* @_ZN5Graph11getInstanceEv() #1

define void @_ZNK4Node8gradientERKSt6vectorIS_SaIS_EE(%"class.std::vector.8"* noalias sret, %class.Node*, %"class.std::vector.3"* dereferenceable(12)) #0 align 2 personality i8* bitcast (i32 (...)* @__gxx_personality_v0 to i8*) !dbg !4404 !xidane.fname !4387 !xidane.function_declaration_type !4405 !xidane.function_declaration_filename !4201 {
  %4 = alloca %class.Node*, align 4
  %5 = alloca %"class.std::vector.3"*, align 4
  %6 = alloca %class.Graph*, align 4
  %7 = alloca i1, align 1
  %8 = alloca %"class.std::allocator.10", align 1
  %9 = alloca i8*
  %10 = alloca i32
  %11 = alloca i32, align 4
  store %class.Node* %1, %class.Node** %4, align 4
  call void @llvm.dbg.declare(metadata %class.Node** %4, metadata !4406, metadata !4203), !dbg !4407
  store %"class.std::vector.3"* %2, %"class.std::vector.3"** %5, align 4
  call void @llvm.dbg.declare(metadata %"class.std::vector.3"** %5, metadata !4408, metadata !4203), !dbg !4409
  %12 = load %class.Node*, %class.Node** %4, align 4
  call void @llvm.dbg.declare(metadata %class.Graph** %6, metadata !4410, metadata !4203), !dbg !4411
  %13 = call %class.Graph* @_ZN5Graph11getInstanceEv(), !dbg !4412
  store %class.Graph* %13, %class.Graph** %6, align 4, !dbg !4411
  store i1 false, i1* %7, align 1, !dbg !4413
  call void @llvm.dbg.declare(metadata %"class.std::vector.8"* %0, metadata !4414, metadata !4415), !dbg !4416
  %14 = load %"class.std::vector.3"*, %"class.std::vector.3"** %5, align 4, !dbg !4417
  %15 = call i32 @_ZNKSt6vectorI4NodeSaIS0_EE4sizeEv(%"class.std::vector.3"* %14) #3, !dbg !4418
  %16 = call %"class.std::allocator.10"* @_ZNSaIdEC2Ev(%"class.std::allocator.10"* %8) #3, !dbg !4419
  %17 = invoke %"class.std::vector.8"* @_ZNSt6vectorIdSaIdEEC2EjRKS0_(%"class.std::vector.8"* %0, i32 %15, %"class.std::allocator.10"* dereferenceable(1) %8)
          to label %18 unwind label %39, !dbg !4416

; <label>:18:                                     ; preds = %3
  %19 = call %"class.std::allocator.10"* @_ZNSaIdED2Ev(%"class.std::allocator.10"* %8) #3, !dbg !4421
  call void @llvm.dbg.declare(metadata i32* %11, metadata !4423, metadata !4203), !dbg !4425
  store i32 0, i32* %11, align 4, !dbg !4425
  br label %20, !dbg !4426

; <label>:20:                                     ; preds = %36, %18
  %21 = load i32, i32* %11, align 4, !dbg !4427
  %22 = load %"class.std::vector.3"*, %"class.std::vector.3"** %5, align 4, !dbg !4430
  %23 = call i32 @_ZNKSt6vectorI4NodeSaIS0_EE4sizeEv(%"class.std::vector.3"* %22) #3, !dbg !4431
  %24 = icmp ult i32 %21, %23, !dbg !4432
  br i1 %24, label %25, label %49, !dbg !4433

; <label>:25:                                     ; preds = %20
  %26 = load %class.Graph*, %class.Graph** %6, align 4, !dbg !4434
  %27 = getelementptr inbounds %class.Node, %class.Node* %12, i32 0, i32 1, !dbg !4436
  %28 = load %"class.std::vector.3"*, %"class.std::vector.3"** %5, align 4, !dbg !4437
  %29 = load i32, i32* %11, align 4, !dbg !4438
  %30 = call dereferenceable(16) %class.Node* @_ZNKSt6vectorI4NodeSaIS0_EEixEj(%"class.std::vector.3"* %28, i32 %29) #3, !dbg !4437
  %31 = getelementptr inbounds %class.Node, %class.Node* %30, i32 0, i32 1, !dbg !4439
  %32 = invoke double @_ZNK4Node18gradient_recursiveEP5GraphRKlS3_(%class.Node* %12, %class.Graph* %26, i32* dereferenceable(4) %27, i32* dereferenceable(4) %31)
          to label %33 unwind label %44, !dbg !4440

; <label>:33:                                     ; preds = %25
  %34 = load i32, i32* %11, align 4, !dbg !4441
  %35 = call dereferenceable(8) double* @_ZNSt6vectorIdSaIdEEixEj(%"class.std::vector.8"* %0, i32 %34) #3, !dbg !4443
  store double %32, double* %35, align 8, !dbg !4444
  br label %36, !dbg !4445

; <label>:36:                                     ; preds = %33
  %37 = load i32, i32* %11, align 4, !dbg !4446
  %38 = add i32 %37, 1, !dbg !4446
  store i32 %38, i32* %11, align 4, !dbg !4446
  br label %20, !dbg !4448, !llvm.loop !4449

; <label>:39:                                     ; preds = %3
  %40 = landingpad { i8*, i32 }
          cleanup, !dbg !4451
  %41 = extractvalue { i8*, i32 } %40, 0, !dbg !4451
  store i8* %41, i8** %9, align 4, !dbg !4451
  %42 = extractvalue { i8*, i32 } %40, 1, !dbg !4451
  store i32 %42, i32* %10, align 4, !dbg !4451
  %43 = call %"class.std::allocator.10"* @_ZNSaIdED2Ev(%"class.std::allocator.10"* %8) #3, !dbg !4452
  br label %54, !dbg !4452

; <label>:44:                                     ; preds = %25
  %45 = landingpad { i8*, i32 }
          cleanup, !dbg !4454
  %46 = extractvalue { i8*, i32 } %45, 0, !dbg !4454
  store i8* %46, i8** %9, align 4, !dbg !4454
  %47 = extractvalue { i8*, i32 } %45, 1, !dbg !4454
  store i32 %47, i32* %10, align 4, !dbg !4454
  %48 = call %"class.std::vector.8"* @_ZNSt6vectorIdSaIdEED2Ev(%"class.std::vector.8"* %0) #3, !dbg !4454
  br label %54, !dbg !4454

; <label>:49:                                     ; preds = %20
  store i1 true, i1* %7, align 1, !dbg !4455
  %50 = load i1, i1* %7, align 1, !dbg !4456
  br i1 %50, label %53, label %51, !dbg !4456

; <label>:51:                                     ; preds = %49
  %52 = call %"class.std::vector.8"* @_ZNSt6vectorIdSaIdEED2Ev(%"class.std::vector.8"* %0) #3, !dbg !4457
  br label %53, !dbg !4457

; <label>:53:                                     ; preds = %51, %49
  ret void, !dbg !4459

; <label>:54:                                     ; preds = %44, %39
  %55 = load i8*, i8** %9, align 4, !dbg !4460
  %56 = load i32, i32* %10, align 4, !dbg !4460
  %57 = insertvalue { i8*, i32 } undef, i8* %55, 0, !dbg !4460
  %58 = insertvalue { i8*, i32 } %57, i32 %56, 1, !dbg !4460
  resume { i8*, i32 } %58, !dbg !4460
}

; Function Attrs: nounwind
define linkonce_odr i32 @_ZNKSt6vectorI4NodeSaIS0_EE4sizeEv(%"class.std::vector.3"*) #5 comdat align 2 !dbg !4461 !xidane.fname !4462 !xidane.function_declaration_type !4463 !xidane.function_declaration_filename !4317 {
  %2 = alloca %"class.std::vector.3"*, align 4
  store %"class.std::vector.3"* %0, %"class.std::vector.3"** %2, align 4
  call void @llvm.dbg.declare(metadata %"class.std::vector.3"** %2, metadata !4464, metadata !4203), !dbg !4465
  %3 = load %"class.std::vector.3"*, %"class.std::vector.3"** %2, align 4
  %4 = bitcast %"class.std::vector.3"* %3 to %"struct.std::_Vector_base.4"*, !dbg !4466
  %5 = getelementptr inbounds %"struct.std::_Vector_base.4", %"struct.std::_Vector_base.4"* %4, i32 0, i32 0, !dbg !4466
  %6 = getelementptr inbounds %"struct.std::_Vector_base<Node, std::allocator<Node> >::_Vector_impl", %"struct.std::_Vector_base<Node, std::allocator<Node> >::_Vector_impl"* %5, i32 0, i32 1, !dbg !4467
  %7 = load %class.Node*, %class.Node** %6, align 4, !dbg !4467
  %8 = bitcast %"class.std::vector.3"* %3 to %"struct.std::_Vector_base.4"*, !dbg !4468
  %9 = getelementptr inbounds %"struct.std::_Vector_base.4", %"struct.std::_Vector_base.4"* %8, i32 0, i32 0, !dbg !4468
  %10 = getelementptr inbounds %"struct.std::_Vector_base<Node, std::allocator<Node> >::_Vector_impl", %"struct.std::_Vector_base<Node, std::allocator<Node> >::_Vector_impl"* %9, i32 0, i32 0, !dbg !4469
  %11 = load %class.Node*, %class.Node** %10, align 4, !dbg !4469
  %12 = ptrtoint %class.Node* %7 to i32, !dbg !4470
  %13 = ptrtoint %class.Node* %11 to i32, !dbg !4470
  %14 = sub i32 %12, %13, !dbg !4470
  %15 = sdiv exact i32 %14, 16, !dbg !4470
  ret i32 %15, !dbg !4471
}

; Function Attrs: nounwind
define linkonce_odr %"class.std::allocator.10"* @_ZNSaIdEC2Ev(%"class.std::allocator.10"* returned) unnamed_addr #5 comdat align 2 !dbg !4472 !xidane.fname !4473 !xidane.function_declaration_type !2492 !xidane.function_declaration_filename !4474 {
  %2 = alloca %"class.std::allocator.10"*, align 4
  store %"class.std::allocator.10"* %0, %"class.std::allocator.10"** %2, align 4
  call void @llvm.dbg.declare(metadata %"class.std::allocator.10"** %2, metadata !4475, metadata !4203), !dbg !4477
  %3 = load %"class.std::allocator.10"*, %"class.std::allocator.10"** %2, align 4
  %4 = bitcast %"class.std::allocator.10"* %3 to %"class.__gnu_cxx::new_allocator.11"*, !dbg !4478
  %5 = call %"class.__gnu_cxx::new_allocator.11"* @_ZN9__gnu_cxx13new_allocatorIdEC2Ev(%"class.__gnu_cxx::new_allocator.11"* %4) #3, !dbg !4479
  ret %"class.std::allocator.10"* %3, !dbg !4480
}

define linkonce_odr %"class.std::vector.8"* @_ZNSt6vectorIdSaIdEEC2EjRKS0_(%"class.std::vector.8"* returned, i32, %"class.std::allocator.10"* dereferenceable(1)) unnamed_addr #0 comdat align 2 personality i8* bitcast (i32 (...)* @__gxx_personality_v0 to i8*) !dbg !4481 !xidane.fname !4482 !xidane.function_declaration_type !4483 !xidane.function_declaration_filename !4317 {
  %4 = alloca %"class.std::vector.8"*, align 4
  %5 = alloca i32, align 4
  %6 = alloca %"class.std::allocator.10"*, align 4
  %7 = alloca i8*
  %8 = alloca i32
  store %"class.std::vector.8"* %0, %"class.std::vector.8"** %4, align 4
  call void @llvm.dbg.declare(metadata %"class.std::vector.8"** %4, metadata !4484, metadata !4203), !dbg !4485
  store i32 %1, i32* %5, align 4
  call void @llvm.dbg.declare(metadata i32* %5, metadata !4486, metadata !4203), !dbg !4487
  store %"class.std::allocator.10"* %2, %"class.std::allocator.10"** %6, align 4
  call void @llvm.dbg.declare(metadata %"class.std::allocator.10"** %6, metadata !4488, metadata !4203), !dbg !4489
  %9 = load %"class.std::vector.8"*, %"class.std::vector.8"** %4, align 4
  %10 = bitcast %"class.std::vector.8"* %9 to %"struct.std::_Vector_base.9"*, !dbg !4490
  %11 = load i32, i32* %5, align 4, !dbg !4491
  %12 = load %"class.std::allocator.10"*, %"class.std::allocator.10"** %6, align 4, !dbg !4492
  %13 = call %"struct.std::_Vector_base.9"* @_ZNSt12_Vector_baseIdSaIdEEC2EjRKS0_(%"struct.std::_Vector_base.9"* %10, i32 %11, %"class.std::allocator.10"* dereferenceable(1) %12), !dbg !4493
  %14 = load i32, i32* %5, align 4, !dbg !4494
  invoke void @_ZNSt6vectorIdSaIdEE21_M_default_initializeEj(%"class.std::vector.8"* %9, i32 %14)
          to label %15 unwind label %16, !dbg !4496

; <label>:15:                                     ; preds = %3
  ret %"class.std::vector.8"* %9, !dbg !4497

; <label>:16:                                     ; preds = %3
  %17 = landingpad { i8*, i32 }
          cleanup, !dbg !4499
  %18 = extractvalue { i8*, i32 } %17, 0, !dbg !4499
  store i8* %18, i8** %7, align 4, !dbg !4499
  %19 = extractvalue { i8*, i32 } %17, 1, !dbg !4499
  store i32 %19, i32* %8, align 4, !dbg !4499
  %20 = bitcast %"class.std::vector.8"* %9 to %"struct.std::_Vector_base.9"*, !dbg !4499
  %21 = call %"struct.std::_Vector_base.9"* @_ZNSt12_Vector_baseIdSaIdEED2Ev(%"struct.std::_Vector_base.9"* %20) #3, !dbg !4499
  br label %22, !dbg !4499

; <label>:22:                                     ; preds = %16
  %23 = load i8*, i8** %7, align 4, !dbg !4501
  %24 = load i32, i32* %8, align 4, !dbg !4501
  %25 = insertvalue { i8*, i32 } undef, i8* %23, 0, !dbg !4501
  %26 = insertvalue { i8*, i32 } %25, i32 %24, 1, !dbg !4501
  resume { i8*, i32 } %26, !dbg !4501
}

; Function Attrs: nounwind
define linkonce_odr %"class.std::allocator.10"* @_ZNSaIdED2Ev(%"class.std::allocator.10"* returned) unnamed_addr #5 comdat align 2 !dbg !4503 !xidane.fname !4504 !xidane.function_declaration_type !2492 !xidane.function_declaration_filename !4474 {
  %2 = alloca %"class.std::allocator.10"*, align 4
  store %"class.std::allocator.10"* %0, %"class.std::allocator.10"** %2, align 4
  call void @llvm.dbg.declare(metadata %"class.std::allocator.10"** %2, metadata !4505, metadata !4203), !dbg !4506
  %3 = load %"class.std::allocator.10"*, %"class.std::allocator.10"** %2, align 4
  %4 = bitcast %"class.std::allocator.10"* %3 to %"class.__gnu_cxx::new_allocator.11"*, !dbg !4507
  %5 = call %"class.__gnu_cxx::new_allocator.11"* @_ZN9__gnu_cxx13new_allocatorIdED2Ev(%"class.__gnu_cxx::new_allocator.11"* %4) #3, !dbg !4507
  ret %"class.std::allocator.10"* %3, !dbg !4509
}

; Function Attrs: nounwind
define linkonce_odr dereferenceable(16) %class.Node* @_ZNKSt6vectorI4NodeSaIS0_EEixEj(%"class.std::vector.3"*, i32) #5 comdat align 2 !dbg !4510 !xidane.fname !4511 !xidane.function_declaration_type !4512 !xidane.function_declaration_filename !4317 {
  %3 = alloca %"class.std::vector.3"*, align 4
  %4 = alloca i32, align 4
  store %"class.std::vector.3"* %0, %"class.std::vector.3"** %3, align 4
  call void @llvm.dbg.declare(metadata %"class.std::vector.3"** %3, metadata !4513, metadata !4203), !dbg !4514
  store i32 %1, i32* %4, align 4
  call void @llvm.dbg.declare(metadata i32* %4, metadata !4515, metadata !4203), !dbg !4516
  %5 = load %"class.std::vector.3"*, %"class.std::vector.3"** %3, align 4
  %6 = bitcast %"class.std::vector.3"* %5 to %"struct.std::_Vector_base.4"*, !dbg !4517
  %7 = getelementptr inbounds %"struct.std::_Vector_base.4", %"struct.std::_Vector_base.4"* %6, i32 0, i32 0, !dbg !4517
  %8 = getelementptr inbounds %"struct.std::_Vector_base<Node, std::allocator<Node> >::_Vector_impl", %"struct.std::_Vector_base<Node, std::allocator<Node> >::_Vector_impl"* %7, i32 0, i32 0, !dbg !4518
  %9 = load %class.Node*, %class.Node** %8, align 4, !dbg !4518
  %10 = load i32, i32* %4, align 4, !dbg !4519
  %11 = getelementptr inbounds %class.Node, %class.Node* %9, i32 %10, !dbg !4520
  ret %class.Node* %11, !dbg !4521
}

; Function Attrs: nounwind
define linkonce_odr dereferenceable(8) double* @_ZNSt6vectorIdSaIdEEixEj(%"class.std::vector.8"*, i32) #5 comdat align 2 !dbg !4522 !xidane.fname !4511 !xidane.function_declaration_type !4523 !xidane.function_declaration_filename !4317 {
  %3 = alloca %"class.std::vector.8"*, align 4
  %4 = alloca i32, align 4
  store %"class.std::vector.8"* %0, %"class.std::vector.8"** %3, align 4
  call void @llvm.dbg.declare(metadata %"class.std::vector.8"** %3, metadata !4524, metadata !4203), !dbg !4525
  store i32 %1, i32* %4, align 4
  call void @llvm.dbg.declare(metadata i32* %4, metadata !4526, metadata !4203), !dbg !4527
  %5 = load %"class.std::vector.8"*, %"class.std::vector.8"** %3, align 4
  %6 = bitcast %"class.std::vector.8"* %5 to %"struct.std::_Vector_base.9"*, !dbg !4528
  %7 = getelementptr inbounds %"struct.std::_Vector_base.9", %"struct.std::_Vector_base.9"* %6, i32 0, i32 0, !dbg !4528
  %8 = getelementptr inbounds %"struct.std::_Vector_base<double, std::allocator<double> >::_Vector_impl", %"struct.std::_Vector_base<double, std::allocator<double> >::_Vector_impl"* %7, i32 0, i32 0, !dbg !4529
  %9 = load double*, double** %8, align 4, !dbg !4529
  %10 = load i32, i32* %4, align 4, !dbg !4530
  %11 = getelementptr inbounds double, double* %9, i32 %10, !dbg !4531
  ret double* %11, !dbg !4532
}

; Function Attrs: nounwind
define linkonce_odr %"class.std::vector.8"* @_ZNSt6vectorIdSaIdEED2Ev(%"class.std::vector.8"* returned) unnamed_addr #5 comdat align 2 personality i8* bitcast (i32 (...)* @__gxx_personality_v0 to i8*) !dbg !4533 !xidane.fname !4370 !xidane.function_declaration_type !2492 !xidane.function_declaration_filename !4317 {
  %2 = alloca %"class.std::vector.8"*, align 4
  %3 = alloca i8*
  %4 = alloca i32
  store %"class.std::vector.8"* %0, %"class.std::vector.8"** %2, align 4
  call void @llvm.dbg.declare(metadata %"class.std::vector.8"** %2, metadata !4534, metadata !4203), !dbg !4535
  %5 = load %"class.std::vector.8"*, %"class.std::vector.8"** %2, align 4
  %6 = bitcast %"class.std::vector.8"* %5 to %"struct.std::_Vector_base.9"*, !dbg !4536
  %7 = getelementptr inbounds %"struct.std::_Vector_base.9", %"struct.std::_Vector_base.9"* %6, i32 0, i32 0, !dbg !4536
  %8 = getelementptr inbounds %"struct.std::_Vector_base<double, std::allocator<double> >::_Vector_impl", %"struct.std::_Vector_base<double, std::allocator<double> >::_Vector_impl"* %7, i32 0, i32 0, !dbg !4538
  %9 = load double*, double** %8, align 4, !dbg !4538
  %10 = bitcast %"class.std::vector.8"* %5 to %"struct.std::_Vector_base.9"*, !dbg !4539
  %11 = getelementptr inbounds %"struct.std::_Vector_base.9", %"struct.std::_Vector_base.9"* %10, i32 0, i32 0, !dbg !4539
  %12 = getelementptr inbounds %"struct.std::_Vector_base<double, std::allocator<double> >::_Vector_impl", %"struct.std::_Vector_base<double, std::allocator<double> >::_Vector_impl"* %11, i32 0, i32 1, !dbg !4540
  %13 = load double*, double** %12, align 4, !dbg !4540
  %14 = bitcast %"class.std::vector.8"* %5 to %"struct.std::_Vector_base.9"*, !dbg !4541
  %15 = call dereferenceable(1) %"class.std::allocator.10"* @_ZNSt12_Vector_baseIdSaIdEE19_M_get_Tp_allocatorEv(%"struct.std::_Vector_base.9"* %14) #3, !dbg !4541
  invoke void @_ZSt8_DestroyIPddEvT_S1_RSaIT0_E(double* %9, double* %13, %"class.std::allocator.10"* dereferenceable(1) %15)
          to label %16 unwind label %19, !dbg !4542

; <label>:16:                                     ; preds = %1
  %17 = bitcast %"class.std::vector.8"* %5 to %"struct.std::_Vector_base.9"*, !dbg !4543
  %18 = call %"struct.std::_Vector_base.9"* @_ZNSt12_Vector_baseIdSaIdEED2Ev(%"struct.std::_Vector_base.9"* %17) #3, !dbg !4543
  ret %"class.std::vector.8"* %5, !dbg !4543

; <label>:19:                                     ; preds = %1
  %20 = landingpad { i8*, i32 }
          catch i8* null, !dbg !4545
  %21 = extractvalue { i8*, i32 } %20, 0, !dbg !4545
  store i8* %21, i8** %3, align 4, !dbg !4545
  %22 = extractvalue { i8*, i32 } %20, 1, !dbg !4545
  store i32 %22, i32* %4, align 4, !dbg !4545
  %23 = bitcast %"class.std::vector.8"* %5 to %"struct.std::_Vector_base.9"*, !dbg !4545
  %24 = call %"struct.std::_Vector_base.9"* @_ZNSt12_Vector_baseIdSaIdEED2Ev(%"struct.std::_Vector_base.9"* %23) #3, !dbg !4545
  br label %25, !dbg !4545

; <label>:25:                                     ; preds = %19
  %26 = load i8*, i8** %3, align 4, !dbg !4547
  call void @__clang_call_terminate(i8* %26) #14, !dbg !4547
  unreachable, !dbg !4547
}

define void @_ZNK4Node8gradientERKSt6vectorIS0_IS_SaIS_EESaIS2_EE(%"class.std::vector.18"* noalias sret, %class.Node*, %"class.std::vector.13"* dereferenceable(12)) #0 align 2 personality i8* bitcast (i32 (...)* @__gxx_personality_v0 to i8*) !dbg !4549 !xidane.fname !4387 !xidane.function_declaration_type !4550 !xidane.function_declaration_filename !4201 {
  %4 = alloca %class.Node*, align 4
  %5 = alloca %"class.std::vector.13"*, align 4
  %6 = alloca %class.Graph*, align 4
  %7 = alloca i1, align 1
  %8 = alloca %"class.std::allocator.20", align 1
  %9 = alloca i8*
  %10 = alloca i32
  %11 = alloca i32, align 4
  %12 = alloca i32, align 4
  store %class.Node* %1, %class.Node** %4, align 4
  call void @llvm.dbg.declare(metadata %class.Node** %4, metadata !4551, metadata !4203), !dbg !4552
  store %"class.std::vector.13"* %2, %"class.std::vector.13"** %5, align 4
  call void @llvm.dbg.declare(metadata %"class.std::vector.13"** %5, metadata !4553, metadata !4203), !dbg !4554
  %13 = load %class.Node*, %class.Node** %4, align 4
  call void @llvm.dbg.declare(metadata %class.Graph** %6, metadata !4555, metadata !4203), !dbg !4556
  %14 = call %class.Graph* @_ZN5Graph11getInstanceEv(), !dbg !4557
  store %class.Graph* %14, %class.Graph** %6, align 4, !dbg !4556
  store i1 false, i1* %7, align 1, !dbg !4558
  call void @llvm.dbg.declare(metadata %"class.std::vector.18"* %0, metadata !4559, metadata !4415), !dbg !4560
  %15 = load %"class.std::vector.13"*, %"class.std::vector.13"** %5, align 4, !dbg !4561
  %16 = call i32 @_ZNKSt6vectorIS_I4NodeSaIS0_EESaIS2_EE4sizeEv(%"class.std::vector.13"* %15) #3, !dbg !4562
  %17 = call %"class.std::allocator.20"* @_ZNSaISt6vectorIdSaIdEEEC2Ev(%"class.std::allocator.20"* %8) #3, !dbg !4563
  %18 = invoke %"class.std::vector.18"* @_ZNSt6vectorIS_IdSaIdEESaIS1_EEC2EjRKS2_(%"class.std::vector.18"* %0, i32 %16, %"class.std::allocator.20"* dereferenceable(1) %8)
          to label %19 unwind label %59, !dbg !4560

; <label>:19:                                     ; preds = %3
  %20 = call %"class.std::allocator.20"* @_ZNSaISt6vectorIdSaIdEEED2Ev(%"class.std::allocator.20"* %8) #3, !dbg !4565
  call void @llvm.dbg.declare(metadata i32* %11, metadata !4567, metadata !4203), !dbg !4569
  store i32 0, i32* %11, align 4, !dbg !4569
  br label %21, !dbg !4570

; <label>:21:                                     ; preds = %70, %19
  %22 = load i32, i32* %11, align 4, !dbg !4571
  %23 = load %"class.std::vector.13"*, %"class.std::vector.13"** %5, align 4, !dbg !4574
  %24 = call i32 @_ZNKSt6vectorIS_I4NodeSaIS0_EESaIS2_EE4sizeEv(%"class.std::vector.13"* %23) #3, !dbg !4575
  %25 = icmp ult i32 %22, %24, !dbg !4576
  br i1 %25, label %26, label %73, !dbg !4577

; <label>:26:                                     ; preds = %21
  %27 = load i32, i32* %11, align 4, !dbg !4578
  %28 = call dereferenceable(12) %"class.std::vector.8"* @_ZNSt6vectorIS_IdSaIdEESaIS1_EEixEj(%"class.std::vector.18"* %0, i32 %27) #3, !dbg !4580
  %29 = load %"class.std::vector.13"*, %"class.std::vector.13"** %5, align 4, !dbg !4581
  %30 = load i32, i32* %11, align 4, !dbg !4582
  %31 = call dereferenceable(12) %"class.std::vector.3"* @_ZNKSt6vectorIS_I4NodeSaIS0_EESaIS2_EEixEj(%"class.std::vector.13"* %29, i32 %30) #3, !dbg !4583
  %32 = call i32 @_ZNKSt6vectorI4NodeSaIS0_EE4sizeEv(%"class.std::vector.3"* %31) #3, !dbg !4585
  invoke void @_ZNSt6vectorIdSaIdEE6resizeEj(%"class.std::vector.8"* %28, i32 %32)
          to label %33 unwind label %64, !dbg !4587

; <label>:33:                                     ; preds = %26
  call void @llvm.dbg.declare(metadata i32* %12, metadata !4588, metadata !4203), !dbg !4590
  store i32 0, i32* %12, align 4, !dbg !4590
  br label %34, !dbg !4591

; <label>:34:                                     ; preds = %56, %33
  %35 = load i32, i32* %12, align 4, !dbg !4592
  %36 = load %"class.std::vector.13"*, %"class.std::vector.13"** %5, align 4, !dbg !4595
  %37 = load i32, i32* %11, align 4, !dbg !4596
  %38 = call dereferenceable(12) %"class.std::vector.3"* @_ZNKSt6vectorIS_I4NodeSaIS0_EESaIS2_EEixEj(%"class.std::vector.13"* %36, i32 %37) #3, !dbg !4595
  %39 = call i32 @_ZNKSt6vectorI4NodeSaIS0_EE4sizeEv(%"class.std::vector.3"* %38) #3, !dbg !4597
  %40 = icmp ult i32 %35, %39, !dbg !4599
  br i1 %40, label %41, label %69, !dbg !4600

; <label>:41:                                     ; preds = %34
  %42 = load %class.Graph*, %class.Graph** %6, align 4, !dbg !4601
  %43 = getelementptr inbounds %class.Node, %class.Node* %13, i32 0, i32 1, !dbg !4603
  %44 = load %"class.std::vector.13"*, %"class.std::vector.13"** %5, align 4, !dbg !4604
  %45 = load i32, i32* %11, align 4, !dbg !4605
  %46 = call dereferenceable(12) %"class.std::vector.3"* @_ZNKSt6vectorIS_I4NodeSaIS0_EESaIS2_EEixEj(%"class.std::vector.13"* %44, i32 %45) #3, !dbg !4604
  %47 = load i32, i32* %12, align 4, !dbg !4606
  %48 = call dereferenceable(16) %class.Node* @_ZNKSt6vectorI4NodeSaIS0_EEixEj(%"class.std::vector.3"* %46, i32 %47) #3, !dbg !4607
  %49 = getelementptr inbounds %class.Node, %class.Node* %48, i32 0, i32 1, !dbg !4609
  %50 = invoke double @_ZNK4Node18gradient_recursiveEP5GraphRKlS3_(%class.Node* %13, %class.Graph* %42, i32* dereferenceable(4) %43, i32* dereferenceable(4) %49)
          to label %51 unwind label %64, !dbg !4610

; <label>:51:                                     ; preds = %41
  %52 = load i32, i32* %11, align 4, !dbg !4611
  %53 = call dereferenceable(12) %"class.std::vector.8"* @_ZNSt6vectorIS_IdSaIdEESaIS1_EEixEj(%"class.std::vector.18"* %0, i32 %52) #3, !dbg !4613
  %54 = load i32, i32* %12, align 4, !dbg !4614
  %55 = call dereferenceable(8) double* @_ZNSt6vectorIdSaIdEEixEj(%"class.std::vector.8"* %53, i32 %54) #3, !dbg !4615
  store double %50, double* %55, align 8, !dbg !4617
  br label %56, !dbg !4618

; <label>:56:                                     ; preds = %51
  %57 = load i32, i32* %12, align 4, !dbg !4619
  %58 = add i32 %57, 1, !dbg !4619
  store i32 %58, i32* %12, align 4, !dbg !4619
  br label %34, !dbg !4621, !llvm.loop !4622

; <label>:59:                                     ; preds = %3
  %60 = landingpad { i8*, i32 }
          cleanup, !dbg !4624
  %61 = extractvalue { i8*, i32 } %60, 0, !dbg !4624
  store i8* %61, i8** %9, align 4, !dbg !4624
  %62 = extractvalue { i8*, i32 } %60, 1, !dbg !4624
  store i32 %62, i32* %10, align 4, !dbg !4624
  %63 = call %"class.std::allocator.20"* @_ZNSaISt6vectorIdSaIdEEED2Ev(%"class.std::allocator.20"* %8) #3, !dbg !4625
  br label %78, !dbg !4625

; <label>:64:                                     ; preds = %41, %26
  %65 = landingpad { i8*, i32 }
          cleanup, !dbg !4627
  %66 = extractvalue { i8*, i32 } %65, 0, !dbg !4627
  store i8* %66, i8** %9, align 4, !dbg !4627
  %67 = extractvalue { i8*, i32 } %65, 1, !dbg !4627
  store i32 %67, i32* %10, align 4, !dbg !4627
  %68 = call %"class.std::vector.18"* @_ZNSt6vectorIS_IdSaIdEESaIS1_EED2Ev(%"class.std::vector.18"* %0) #3, !dbg !4627
  br label %78, !dbg !4627

; <label>:69:                                     ; preds = %34
  br label %70, !dbg !4628

; <label>:70:                                     ; preds = %69
  %71 = load i32, i32* %11, align 4, !dbg !4629
  %72 = add i32 %71, 1, !dbg !4629
  store i32 %72, i32* %11, align 4, !dbg !4629
  br label %21, !dbg !4631, !llvm.loop !4632

; <label>:73:                                     ; preds = %21
  store i1 true, i1* %7, align 1, !dbg !4634
  %74 = load i1, i1* %7, align 1, !dbg !4635
  br i1 %74, label %77, label %75, !dbg !4635

; <label>:75:                                     ; preds = %73
  %76 = call %"class.std::vector.18"* @_ZNSt6vectorIS_IdSaIdEESaIS1_EED2Ev(%"class.std::vector.18"* %0) #3, !dbg !4636
  br label %77, !dbg !4636

; <label>:77:                                     ; preds = %75, %73
  ret void, !dbg !4638

; <label>:78:                                     ; preds = %64, %59
  %79 = load i8*, i8** %9, align 4, !dbg !4639
  %80 = load i32, i32* %10, align 4, !dbg !4639
  %81 = insertvalue { i8*, i32 } undef, i8* %79, 0, !dbg !4639
  %82 = insertvalue { i8*, i32 } %81, i32 %80, 1, !dbg !4639
  resume { i8*, i32 } %82, !dbg !4639
}

; Function Attrs: nounwind
define linkonce_odr i32 @_ZNKSt6vectorIS_I4NodeSaIS0_EESaIS2_EE4sizeEv(%"class.std::vector.13"*) #5 comdat align 2 !dbg !4640 !xidane.fname !4462 !xidane.function_declaration_type !4463 !xidane.function_declaration_filename !4317 {
  %2 = alloca %"class.std::vector.13"*, align 4
  store %"class.std::vector.13"* %0, %"class.std::vector.13"** %2, align 4
  call void @llvm.dbg.declare(metadata %"class.std::vector.13"** %2, metadata !4641, metadata !4203), !dbg !4643
  %3 = load %"class.std::vector.13"*, %"class.std::vector.13"** %2, align 4
  %4 = bitcast %"class.std::vector.13"* %3 to %"struct.std::_Vector_base.14"*, !dbg !4644
  %5 = getelementptr inbounds %"struct.std::_Vector_base.14", %"struct.std::_Vector_base.14"* %4, i32 0, i32 0, !dbg !4644
  %6 = getelementptr inbounds %"struct.std::_Vector_base<std::vector<Node, std::allocator<Node> >, std::allocator<std::vector<Node, std::allocator<Node> > > >::_Vector_impl", %"struct.std::_Vector_base<std::vector<Node, std::allocator<Node> >, std::allocator<std::vector<Node, std::allocator<Node> > > >::_Vector_impl"* %5, i32 0, i32 1, !dbg !4645
  %7 = load %"class.std::vector.3"*, %"class.std::vector.3"** %6, align 4, !dbg !4645
  %8 = bitcast %"class.std::vector.13"* %3 to %"struct.std::_Vector_base.14"*, !dbg !4646
  %9 = getelementptr inbounds %"struct.std::_Vector_base.14", %"struct.std::_Vector_base.14"* %8, i32 0, i32 0, !dbg !4646
  %10 = getelementptr inbounds %"struct.std::_Vector_base<std::vector<Node, std::allocator<Node> >, std::allocator<std::vector<Node, std::allocator<Node> > > >::_Vector_impl", %"struct.std::_Vector_base<std::vector<Node, std::allocator<Node> >, std::allocator<std::vector<Node, std::allocator<Node> > > >::_Vector_impl"* %9, i32 0, i32 0, !dbg !4647
  %11 = load %"class.std::vector.3"*, %"class.std::vector.3"** %10, align 4, !dbg !4647
  %12 = ptrtoint %"class.std::vector.3"* %7 to i32, !dbg !4648
  %13 = ptrtoint %"class.std::vector.3"* %11 to i32, !dbg !4648
  %14 = sub i32 %12, %13, !dbg !4648
  %15 = sdiv exact i32 %14, 12, !dbg !4648
  ret i32 %15, !dbg !4649
}

; Function Attrs: nounwind
define linkonce_odr %"class.std::allocator.20"* @_ZNSaISt6vectorIdSaIdEEEC2Ev(%"class.std::allocator.20"* returned) unnamed_addr #5 comdat align 2 !dbg !4650 !xidane.fname !4473 !xidane.function_declaration_type !2492 !xidane.function_declaration_filename !4474 {
  %2 = alloca %"class.std::allocator.20"*, align 4
  store %"class.std::allocator.20"* %0, %"class.std::allocator.20"** %2, align 4
  call void @llvm.dbg.declare(metadata %"class.std::allocator.20"** %2, metadata !4651, metadata !4203), !dbg !4653
  %3 = load %"class.std::allocator.20"*, %"class.std::allocator.20"** %2, align 4
  %4 = bitcast %"class.std::allocator.20"* %3 to %"class.__gnu_cxx::new_allocator.21"*, !dbg !4654
  %5 = call %"class.__gnu_cxx::new_allocator.21"* @_ZN9__gnu_cxx13new_allocatorISt6vectorIdSaIdEEEC2Ev(%"class.__gnu_cxx::new_allocator.21"* %4) #3, !dbg !4655
  ret %"class.std::allocator.20"* %3, !dbg !4656
}

define linkonce_odr %"class.std::vector.18"* @_ZNSt6vectorIS_IdSaIdEESaIS1_EEC2EjRKS2_(%"class.std::vector.18"* returned, i32, %"class.std::allocator.20"* dereferenceable(1)) unnamed_addr #0 comdat align 2 personality i8* bitcast (i32 (...)* @__gxx_personality_v0 to i8*) !dbg !4657 !xidane.fname !4482 !xidane.function_declaration_type !4483 !xidane.function_declaration_filename !4317 {
  %4 = alloca %"class.std::vector.18"*, align 4
  %5 = alloca i32, align 4
  %6 = alloca %"class.std::allocator.20"*, align 4
  %7 = alloca i8*
  %8 = alloca i32
  store %"class.std::vector.18"* %0, %"class.std::vector.18"** %4, align 4
  call void @llvm.dbg.declare(metadata %"class.std::vector.18"** %4, metadata !4658, metadata !4203), !dbg !4660
  store i32 %1, i32* %5, align 4
  call void @llvm.dbg.declare(metadata i32* %5, metadata !4661, metadata !4203), !dbg !4662
  store %"class.std::allocator.20"* %2, %"class.std::allocator.20"** %6, align 4
  call void @llvm.dbg.declare(metadata %"class.std::allocator.20"** %6, metadata !4663, metadata !4203), !dbg !4664
  %9 = load %"class.std::vector.18"*, %"class.std::vector.18"** %4, align 4
  %10 = bitcast %"class.std::vector.18"* %9 to %"struct.std::_Vector_base.19"*, !dbg !4665
  %11 = load i32, i32* %5, align 4, !dbg !4666
  %12 = load %"class.std::allocator.20"*, %"class.std::allocator.20"** %6, align 4, !dbg !4667
  %13 = call %"struct.std::_Vector_base.19"* @_ZNSt12_Vector_baseISt6vectorIdSaIdEESaIS2_EEC2EjRKS3_(%"struct.std::_Vector_base.19"* %10, i32 %11, %"class.std::allocator.20"* dereferenceable(1) %12), !dbg !4668
  %14 = load i32, i32* %5, align 4, !dbg !4669
  invoke void @_ZNSt6vectorIS_IdSaIdEESaIS1_EE21_M_default_initializeEj(%"class.std::vector.18"* %9, i32 %14)
          to label %15 unwind label %16, !dbg !4671

; <label>:15:                                     ; preds = %3
  ret %"class.std::vector.18"* %9, !dbg !4672

; <label>:16:                                     ; preds = %3
  %17 = landingpad { i8*, i32 }
          cleanup, !dbg !4674
  %18 = extractvalue { i8*, i32 } %17, 0, !dbg !4674
  store i8* %18, i8** %7, align 4, !dbg !4674
  %19 = extractvalue { i8*, i32 } %17, 1, !dbg !4674
  store i32 %19, i32* %8, align 4, !dbg !4674
  %20 = bitcast %"class.std::vector.18"* %9 to %"struct.std::_Vector_base.19"*, !dbg !4674
  %21 = call %"struct.std::_Vector_base.19"* @_ZNSt12_Vector_baseISt6vectorIdSaIdEESaIS2_EED2Ev(%"struct.std::_Vector_base.19"* %20) #3, !dbg !4674
  br label %22, !dbg !4674

; <label>:22:                                     ; preds = %16
  %23 = load i8*, i8** %7, align 4, !dbg !4676
  %24 = load i32, i32* %8, align 4, !dbg !4676
  %25 = insertvalue { i8*, i32 } undef, i8* %23, 0, !dbg !4676
  %26 = insertvalue { i8*, i32 } %25, i32 %24, 1, !dbg !4676
  resume { i8*, i32 } %26, !dbg !4676
}

; Function Attrs: nounwind
define linkonce_odr %"class.std::allocator.20"* @_ZNSaISt6vectorIdSaIdEEED2Ev(%"class.std::allocator.20"* returned) unnamed_addr #5 comdat align 2 !dbg !4678 !xidane.fname !4504 !xidane.function_declaration_type !2492 !xidane.function_declaration_filename !4474 {
  %2 = alloca %"class.std::allocator.20"*, align 4
  store %"class.std::allocator.20"* %0, %"class.std::allocator.20"** %2, align 4
  call void @llvm.dbg.declare(metadata %"class.std::allocator.20"** %2, metadata !4679, metadata !4203), !dbg !4680
  %3 = load %"class.std::allocator.20"*, %"class.std::allocator.20"** %2, align 4
  %4 = bitcast %"class.std::allocator.20"* %3 to %"class.__gnu_cxx::new_allocator.21"*, !dbg !4681
  %5 = call %"class.__gnu_cxx::new_allocator.21"* @_ZN9__gnu_cxx13new_allocatorISt6vectorIdSaIdEEED2Ev(%"class.__gnu_cxx::new_allocator.21"* %4) #3, !dbg !4681
  ret %"class.std::allocator.20"* %3, !dbg !4683
}

; Function Attrs: nounwind
define linkonce_odr dereferenceable(12) %"class.std::vector.8"* @_ZNSt6vectorIS_IdSaIdEESaIS1_EEixEj(%"class.std::vector.18"*, i32) #5 comdat align 2 !dbg !4684 !xidane.fname !4511 !xidane.function_declaration_type !4523 !xidane.function_declaration_filename !4317 {
  %3 = alloca %"class.std::vector.18"*, align 4
  %4 = alloca i32, align 4
  store %"class.std::vector.18"* %0, %"class.std::vector.18"** %3, align 4
  call void @llvm.dbg.declare(metadata %"class.std::vector.18"** %3, metadata !4685, metadata !4203), !dbg !4686
  store i32 %1, i32* %4, align 4
  call void @llvm.dbg.declare(metadata i32* %4, metadata !4687, metadata !4203), !dbg !4688
  %5 = load %"class.std::vector.18"*, %"class.std::vector.18"** %3, align 4
  %6 = bitcast %"class.std::vector.18"* %5 to %"struct.std::_Vector_base.19"*, !dbg !4689
  %7 = getelementptr inbounds %"struct.std::_Vector_base.19", %"struct.std::_Vector_base.19"* %6, i32 0, i32 0, !dbg !4689
  %8 = getelementptr inbounds %"struct.std::_Vector_base<std::vector<double, std::allocator<double> >, std::allocator<std::vector<double, std::allocator<double> > > >::_Vector_impl", %"struct.std::_Vector_base<std::vector<double, std::allocator<double> >, std::allocator<std::vector<double, std::allocator<double> > > >::_Vector_impl"* %7, i32 0, i32 0, !dbg !4690
  %9 = load %"class.std::vector.8"*, %"class.std::vector.8"** %8, align 4, !dbg !4690
  %10 = load i32, i32* %4, align 4, !dbg !4691
  %11 = getelementptr inbounds %"class.std::vector.8", %"class.std::vector.8"* %9, i32 %10, !dbg !4692
  ret %"class.std::vector.8"* %11, !dbg !4693
}

define linkonce_odr void @_ZNSt6vectorIdSaIdEE6resizeEj(%"class.std::vector.8"*, i32) #0 comdat align 2 !dbg !4694 !xidane.fname !4695 !xidane.function_declaration_type !4696 !xidane.function_declaration_filename !4317 {
  %3 = alloca %"class.std::vector.8"*, align 4
  %4 = alloca i32, align 4
  store %"class.std::vector.8"* %0, %"class.std::vector.8"** %3, align 4
  call void @llvm.dbg.declare(metadata %"class.std::vector.8"** %3, metadata !4697, metadata !4203), !dbg !4698
  store i32 %1, i32* %4, align 4
  call void @llvm.dbg.declare(metadata i32* %4, metadata !4699, metadata !4203), !dbg !4700
  %5 = load %"class.std::vector.8"*, %"class.std::vector.8"** %3, align 4
  %6 = load i32, i32* %4, align 4, !dbg !4701
  %7 = call i32 @_ZNKSt6vectorIdSaIdEE4sizeEv(%"class.std::vector.8"* %5) #3, !dbg !4703
  %8 = icmp ugt i32 %6, %7, !dbg !4704
  br i1 %8, label %9, label %13, !dbg !4705

; <label>:9:                                      ; preds = %2
  %10 = load i32, i32* %4, align 4, !dbg !4706
  %11 = call i32 @_ZNKSt6vectorIdSaIdEE4sizeEv(%"class.std::vector.8"* %5) #3, !dbg !4707
  %12 = sub i32 %10, %11, !dbg !4708
  call void @_ZNSt6vectorIdSaIdEE17_M_default_appendEj(%"class.std::vector.8"* %5, i32 %12), !dbg !4709
  br label %25, !dbg !4711

; <label>:13:                                     ; preds = %2
  %14 = load i32, i32* %4, align 4, !dbg !4712
  %15 = call i32 @_ZNKSt6vectorIdSaIdEE4sizeEv(%"class.std::vector.8"* %5) #3, !dbg !4714
  %16 = icmp ult i32 %14, %15, !dbg !4715
  br i1 %16, label %17, label %24, !dbg !4716

; <label>:17:                                     ; preds = %13
  %18 = bitcast %"class.std::vector.8"* %5 to %"struct.std::_Vector_base.9"*, !dbg !4717
  %19 = getelementptr inbounds %"struct.std::_Vector_base.9", %"struct.std::_Vector_base.9"* %18, i32 0, i32 0, !dbg !4717
  %20 = getelementptr inbounds %"struct.std::_Vector_base<double, std::allocator<double> >::_Vector_impl", %"struct.std::_Vector_base<double, std::allocator<double> >::_Vector_impl"* %19, i32 0, i32 0, !dbg !4718
  %21 = load double*, double** %20, align 4, !dbg !4718
  %22 = load i32, i32* %4, align 4, !dbg !4719
  %23 = getelementptr inbounds double, double* %21, i32 %22, !dbg !4720
  call void @_ZNSt6vectorIdSaIdEE15_M_erase_at_endEPd(%"class.std::vector.8"* %5, double* %23) #3, !dbg !4721
  br label %24, !dbg !4721

; <label>:24:                                     ; preds = %17, %13
  br label %25

; <label>:25:                                     ; preds = %24, %9
  ret void, !dbg !4722
}

; Function Attrs: nounwind
define linkonce_odr dereferenceable(12) %"class.std::vector.3"* @_ZNKSt6vectorIS_I4NodeSaIS0_EESaIS2_EEixEj(%"class.std::vector.13"*, i32) #5 comdat align 2 !dbg !4723 !xidane.fname !4511 !xidane.function_declaration_type !4512 !xidane.function_declaration_filename !4317 {
  %3 = alloca %"class.std::vector.13"*, align 4
  %4 = alloca i32, align 4
  store %"class.std::vector.13"* %0, %"class.std::vector.13"** %3, align 4
  call void @llvm.dbg.declare(metadata %"class.std::vector.13"** %3, metadata !4724, metadata !4203), !dbg !4725
  store i32 %1, i32* %4, align 4
  call void @llvm.dbg.declare(metadata i32* %4, metadata !4726, metadata !4203), !dbg !4727
  %5 = load %"class.std::vector.13"*, %"class.std::vector.13"** %3, align 4
  %6 = bitcast %"class.std::vector.13"* %5 to %"struct.std::_Vector_base.14"*, !dbg !4728
  %7 = getelementptr inbounds %"struct.std::_Vector_base.14", %"struct.std::_Vector_base.14"* %6, i32 0, i32 0, !dbg !4728
  %8 = getelementptr inbounds %"struct.std::_Vector_base<std::vector<Node, std::allocator<Node> >, std::allocator<std::vector<Node, std::allocator<Node> > > >::_Vector_impl", %"struct.std::_Vector_base<std::vector<Node, std::allocator<Node> >, std::allocator<std::vector<Node, std::allocator<Node> > > >::_Vector_impl"* %7, i32 0, i32 0, !dbg !4729
  %9 = load %"class.std::vector.3"*, %"class.std::vector.3"** %8, align 4, !dbg !4729
  %10 = load i32, i32* %4, align 4, !dbg !4730
  %11 = getelementptr inbounds %"class.std::vector.3", %"class.std::vector.3"* %9, i32 %10, !dbg !4731
  ret %"class.std::vector.3"* %11, !dbg !4732
}

; Function Attrs: nounwind
define linkonce_odr %"class.std::vector.18"* @_ZNSt6vectorIS_IdSaIdEESaIS1_EED2Ev(%"class.std::vector.18"* returned) unnamed_addr #5 comdat align 2 personality i8* bitcast (i32 (...)* @__gxx_personality_v0 to i8*) !dbg !4733 !xidane.fname !4370 !xidane.function_declaration_type !2492 !xidane.function_declaration_filename !4317 {
  %2 = alloca %"class.std::vector.18"*, align 4
  %3 = alloca i8*
  %4 = alloca i32
  store %"class.std::vector.18"* %0, %"class.std::vector.18"** %2, align 4
  call void @llvm.dbg.declare(metadata %"class.std::vector.18"** %2, metadata !4734, metadata !4203), !dbg !4735
  %5 = load %"class.std::vector.18"*, %"class.std::vector.18"** %2, align 4
  %6 = bitcast %"class.std::vector.18"* %5 to %"struct.std::_Vector_base.19"*, !dbg !4736
  %7 = getelementptr inbounds %"struct.std::_Vector_base.19", %"struct.std::_Vector_base.19"* %6, i32 0, i32 0, !dbg !4736
  %8 = getelementptr inbounds %"struct.std::_Vector_base<std::vector<double, std::allocator<double> >, std::allocator<std::vector<double, std::allocator<double> > > >::_Vector_impl", %"struct.std::_Vector_base<std::vector<double, std::allocator<double> >, std::allocator<std::vector<double, std::allocator<double> > > >::_Vector_impl"* %7, i32 0, i32 0, !dbg !4738
  %9 = load %"class.std::vector.8"*, %"class.std::vector.8"** %8, align 4, !dbg !4738
  %10 = bitcast %"class.std::vector.18"* %5 to %"struct.std::_Vector_base.19"*, !dbg !4739
  %11 = getelementptr inbounds %"struct.std::_Vector_base.19", %"struct.std::_Vector_base.19"* %10, i32 0, i32 0, !dbg !4739
  %12 = getelementptr inbounds %"struct.std::_Vector_base<std::vector<double, std::allocator<double> >, std::allocator<std::vector<double, std::allocator<double> > > >::_Vector_impl", %"struct.std::_Vector_base<std::vector<double, std::allocator<double> >, std::allocator<std::vector<double, std::allocator<double> > > >::_Vector_impl"* %11, i32 0, i32 1, !dbg !4740
  %13 = load %"class.std::vector.8"*, %"class.std::vector.8"** %12, align 4, !dbg !4740
  %14 = bitcast %"class.std::vector.18"* %5 to %"struct.std::_Vector_base.19"*, !dbg !4741
  %15 = call dereferenceable(1) %"class.std::allocator.20"* @_ZNSt12_Vector_baseISt6vectorIdSaIdEESaIS2_EE19_M_get_Tp_allocatorEv(%"struct.std::_Vector_base.19"* %14) #3, !dbg !4741
  invoke void @_ZSt8_DestroyIPSt6vectorIdSaIdEES2_EvT_S4_RSaIT0_E(%"class.std::vector.8"* %9, %"class.std::vector.8"* %13, %"class.std::allocator.20"* dereferenceable(1) %15)
          to label %16 unwind label %19, !dbg !4742

; <label>:16:                                     ; preds = %1
  %17 = bitcast %"class.std::vector.18"* %5 to %"struct.std::_Vector_base.19"*, !dbg !4743
  %18 = call %"struct.std::_Vector_base.19"* @_ZNSt12_Vector_baseISt6vectorIdSaIdEESaIS2_EED2Ev(%"struct.std::_Vector_base.19"* %17) #3, !dbg !4743
  ret %"class.std::vector.18"* %5, !dbg !4743

; <label>:19:                                     ; preds = %1
  %20 = landingpad { i8*, i32 }
          catch i8* null, !dbg !4745
  %21 = extractvalue { i8*, i32 } %20, 0, !dbg !4745
  store i8* %21, i8** %3, align 4, !dbg !4745
  %22 = extractvalue { i8*, i32 } %20, 1, !dbg !4745
  store i32 %22, i32* %4, align 4, !dbg !4745
  %23 = bitcast %"class.std::vector.18"* %5 to %"struct.std::_Vector_base.19"*, !dbg !4745
  %24 = call %"struct.std::_Vector_base.19"* @_ZNSt12_Vector_baseISt6vectorIdSaIdEESaIS2_EED2Ev(%"struct.std::_Vector_base.19"* %23) #3, !dbg !4745
  br label %25, !dbg !4745

; <label>:25:                                     ; preds = %19
  %26 = load i8*, i8** %3, align 4, !dbg !4747
  call void @__clang_call_terminate(i8* %26) #14, !dbg !4747
  unreachable, !dbg !4747
}

define void @_ZN4Node17monadic_operationERKS_PF22MonadicOperationResultRKdE(%class.Node* noalias sret, %class.Node* dereferenceable(16), void (%struct.MonadicOperationResult*, double*)*) #0 align 2 !dbg !4749 !xidane.fname !4750 !xidane.function_declaration_type !4751 !xidane.function_declaration_filename !4201 {
  %4 = alloca %class.Node*, align 4
  %5 = alloca void (%struct.MonadicOperationResult*, double*)*, align 4
  %6 = alloca %struct.MonadicOperationResult, align 8
  %7 = alloca %class.Graph*, align 4
  %8 = alloca %"struct.std::pair", align 8
  store %class.Node* %1, %class.Node** %4, align 4
  call void @llvm.dbg.declare(metadata %class.Node** %4, metadata !4752, metadata !4203), !dbg !4753
  store void (%struct.MonadicOperationResult*, double*)* %2, void (%struct.MonadicOperationResult*, double*)** %5, align 4
  call void @llvm.dbg.declare(metadata void (%struct.MonadicOperationResult*, double*)** %5, metadata !4754, metadata !4203), !dbg !4755
  call void @llvm.dbg.declare(metadata %struct.MonadicOperationResult* %6, metadata !4756, metadata !4203), !dbg !4757
  %9 = load void (%struct.MonadicOperationResult*, double*)*, void (%struct.MonadicOperationResult*, double*)** %5, align 4, !dbg !4758
  %10 = load %class.Node*, %class.Node** %4, align 4, !dbg !4759
  %11 = getelementptr inbounds %class.Node, %class.Node* %10, i32 0, i32 0, !dbg !4760
  call void %9(%struct.MonadicOperationResult* sret %6, double* dereferenceable(8) %11), !dbg !4758
  call void @llvm.dbg.declare(metadata %class.Node* %0, metadata !4761, metadata !4415), !dbg !4762
  %12 = getelementptr inbounds %struct.MonadicOperationResult, %struct.MonadicOperationResult* %6, i32 0, i32 0, !dbg !4763
  %13 = call %class.Node* @_ZN4NodeC1ERKd(%class.Node* %0, double* dereferenceable(8) %12), !dbg !4762
  call void @llvm.dbg.declare(metadata %class.Graph** %7, metadata !4764, metadata !4203), !dbg !4765
  %14 = call %class.Graph* @_ZN5Graph11getInstanceEv(), !dbg !4766
  store %class.Graph* %14, %class.Graph** %7, align 4, !dbg !4765
  %15 = load %class.Graph*, %class.Graph** %7, align 4, !dbg !4767
  %16 = getelementptr inbounds %class.Node, %class.Node* %0, i32 0, i32 1, !dbg !4768
  %17 = getelementptr inbounds %struct.MonadicOperationResult, %struct.MonadicOperationResult* %6, i32 0, i32 1, !dbg !4769
  %18 = load %class.Node*, %class.Node** %4, align 4, !dbg !4770
  %19 = getelementptr inbounds %class.Node, %class.Node* %18, i32 0, i32 1, !dbg !4771
  call void @_ZSt9make_pairIRdRKlESt4pairINSt17__decay_and_stripIT_E6__typeENS4_IT0_E6__typeEEOS5_OS8_(%"struct.std::pair"* sret %8, double* dereferenceable(8) %17, i32* dereferenceable(4) %19), !dbg !4772
  call void @_ZN5Graph7connectERKlRKSt4pairIdlE(%class.Graph* %15, i32* dereferenceable(4) %16, %"struct.std::pair"* dereferenceable(16) %8), !dbg !4773
  ret void, !dbg !4775
}

declare !xidane.fname !4776 !xidane.function_declaration_type !4777 !xidane.function_declaration_filename !4217 void @_ZN5Graph7connectERKlRKSt4pairIdlE(%class.Graph*, i32* dereferenceable(4), %"struct.std::pair"* dereferenceable(16)) #1

define linkonce_odr void @_ZSt9make_pairIRdRKlESt4pairINSt17__decay_and_stripIT_E6__typeENS4_IT0_E6__typeEEOS5_OS8_(%"struct.std::pair"* noalias sret, double* dereferenceable(8), i32* dereferenceable(4)) #0 comdat !dbg !4778 !xidane.fname !4784 !xidane.function_declaration_type !4785 !xidane.function_declaration_filename !4786 {
  %4 = alloca double*, align 4
  %5 = alloca i32*, align 4
  store double* %1, double** %4, align 4
  call void @llvm.dbg.declare(metadata double** %4, metadata !4787, metadata !4203), !dbg !4788
  store i32* %2, i32** %5, align 4
  call void @llvm.dbg.declare(metadata i32** %5, metadata !4789, metadata !4203), !dbg !4790
  %6 = load double*, double** %4, align 4, !dbg !4791
  %7 = call dereferenceable(8) double* @_ZSt7forwardIRdEOT_RNSt16remove_referenceIS1_E4typeE(double* dereferenceable(8) %6) #3, !dbg !4792
  %8 = load i32*, i32** %5, align 4, !dbg !4793
  %9 = call dereferenceable(4) i32* @_ZSt7forwardIRKlEOT_RNSt16remove_referenceIS2_E4typeE(i32* dereferenceable(4) %8) #3, !dbg !4794
  %10 = call %"struct.std::pair"* @_ZNSt4pairIdlEC2IRdLb1EEEOT_RKl(%"struct.std::pair"* %0, double* dereferenceable(8) %7, i32* dereferenceable(4) %9), !dbg !4796
  ret void, !dbg !4798
}

define void @_ZN4Node16dyadic_operationERKS_S1_PF21DyadicOperationResultRKdS4_E(%class.Node* noalias sret, %class.Node* dereferenceable(16), %class.Node* dereferenceable(16), void (%struct.DyadicOperationResult*, double*, double*)*) #0 align 2 !dbg !4799 !xidane.fname !4800 !xidane.function_declaration_type !4801 !xidane.function_declaration_filename !4201 {
  %5 = alloca %class.Node*, align 4
  %6 = alloca %class.Node*, align 4
  %7 = alloca void (%struct.DyadicOperationResult*, double*, double*)*, align 4
  %8 = alloca %struct.DyadicOperationResult, align 8
  %9 = alloca %class.Graph*, align 4
  %10 = alloca %"struct.std::pair", align 8
  %11 = alloca %"struct.std::pair", align 8
  store %class.Node* %1, %class.Node** %5, align 4
  call void @llvm.dbg.declare(metadata %class.Node** %5, metadata !4802, metadata !4203), !dbg !4803
  store %class.Node* %2, %class.Node** %6, align 4
  call void @llvm.dbg.declare(metadata %class.Node** %6, metadata !4804, metadata !4203), !dbg !4805
  store void (%struct.DyadicOperationResult*, double*, double*)* %3, void (%struct.DyadicOperationResult*, double*, double*)** %7, align 4
  call void @llvm.dbg.declare(metadata void (%struct.DyadicOperationResult*, double*, double*)** %7, metadata !4806, metadata !4203), !dbg !4807
  call void @llvm.dbg.declare(metadata %struct.DyadicOperationResult* %8, metadata !4808, metadata !4203), !dbg !4809
  %12 = load void (%struct.DyadicOperationResult*, double*, double*)*, void (%struct.DyadicOperationResult*, double*, double*)** %7, align 4, !dbg !4810
  %13 = load %class.Node*, %class.Node** %5, align 4, !dbg !4811
  %14 = getelementptr inbounds %class.Node, %class.Node* %13, i32 0, i32 0, !dbg !4812
  %15 = load %class.Node*, %class.Node** %6, align 4, !dbg !4813
  %16 = getelementptr inbounds %class.Node, %class.Node* %15, i32 0, i32 0, !dbg !4814
  call void %12(%struct.DyadicOperationResult* sret %8, double* dereferenceable(8) %14, double* dereferenceable(8) %16), !dbg !4810
  call void @llvm.dbg.declare(metadata %class.Node* %0, metadata !4815, metadata !4415), !dbg !4816
  %17 = getelementptr inbounds %struct.DyadicOperationResult, %struct.DyadicOperationResult* %8, i32 0, i32 0, !dbg !4817
  %18 = call %class.Node* @_ZN4NodeC1ERKd(%class.Node* %0, double* dereferenceable(8) %17), !dbg !4816
  call void @llvm.dbg.declare(metadata %class.Graph** %9, metadata !4818, metadata !4203), !dbg !4819
  %19 = call %class.Graph* @_ZN5Graph11getInstanceEv(), !dbg !4820
  store %class.Graph* %19, %class.Graph** %9, align 4, !dbg !4819
  %20 = load %class.Graph*, %class.Graph** %9, align 4, !dbg !4821
  %21 = getelementptr inbounds %class.Node, %class.Node* %0, i32 0, i32 1, !dbg !4822
  %22 = getelementptr inbounds %struct.DyadicOperationResult, %struct.DyadicOperationResult* %8, i32 0, i32 1, !dbg !4823
  %23 = load %class.Node*, %class.Node** %5, align 4, !dbg !4824
  %24 = getelementptr inbounds %class.Node, %class.Node* %23, i32 0, i32 1, !dbg !4825
  call void @_ZSt9make_pairIRdRKlESt4pairINSt17__decay_and_stripIT_E6__typeENS4_IT0_E6__typeEEOS5_OS8_(%"struct.std::pair"* sret %10, double* dereferenceable(8) %22, i32* dereferenceable(4) %24), !dbg !4826
  call void @_ZN5Graph7connectERKlRKSt4pairIdlE(%class.Graph* %20, i32* dereferenceable(4) %21, %"struct.std::pair"* dereferenceable(16) %10), !dbg !4827
  %25 = load %class.Graph*, %class.Graph** %9, align 4, !dbg !4829
  %26 = getelementptr inbounds %class.Node, %class.Node* %0, i32 0, i32 1, !dbg !4830
  %27 = getelementptr inbounds %struct.DyadicOperationResult, %struct.DyadicOperationResult* %8, i32 0, i32 2, !dbg !4831
  %28 = load %class.Node*, %class.Node** %6, align 4, !dbg !4832
  %29 = getelementptr inbounds %class.Node, %class.Node* %28, i32 0, i32 1, !dbg !4833
  call void @_ZSt9make_pairIRdRKlESt4pairINSt17__decay_and_stripIT_E6__typeENS4_IT0_E6__typeEEOS5_OS8_(%"struct.std::pair"* sret %11, double* dereferenceable(8) %27, i32* dereferenceable(4) %29), !dbg !4834
  call void @_ZN5Graph7connectERKlRKSt4pairIdlE(%class.Graph* %25, i32* dereferenceable(4) %26, %"struct.std::pair"* dereferenceable(16) %11), !dbg !4835
  ret void, !dbg !4836
}

define void @_ZN4Node18polyadic_operationERKSt6vectorIS_SaIS_EEPF23PolyadicOperationResultRKS0_IdSaIdEEE(%class.Node* noalias sret, %"class.std::vector.3"* dereferenceable(12), void (%struct.PolyadicOperationResult*, %"class.std::vector.8"*)*) #0 align 2 personality i8* bitcast (i32 (...)* @__gxx_personality_v0 to i8*) !dbg !4837 !xidane.fname !4838 !xidane.function_declaration_type !4839 !xidane.function_declaration_filename !4201 {
  %4 = alloca %"class.std::vector.3"*, align 4
  %5 = alloca void (%struct.PolyadicOperationResult*, %"class.std::vector.8"*)*, align 4
  %6 = alloca %"class.std::vector.8", align 4
  %7 = alloca %"class.std::allocator.10", align 1
  %8 = alloca i8*
  %9 = alloca i32
  %10 = alloca i32, align 4
  %11 = alloca %struct.PolyadicOperationResult, align 8
  %12 = alloca %class.Graph*, align 4
  %13 = alloca i32, align 4
  %14 = alloca %"struct.std::pair", align 8
  store %"class.std::vector.3"* %1, %"class.std::vector.3"** %4, align 4
  call void @llvm.dbg.declare(metadata %"class.std::vector.3"** %4, metadata !4840, metadata !4203), !dbg !4841
  store void (%struct.PolyadicOperationResult*, %"class.std::vector.8"*)* %2, void (%struct.PolyadicOperationResult*, %"class.std::vector.8"*)** %5, align 4
  call void @llvm.dbg.declare(metadata void (%struct.PolyadicOperationResult*, %"class.std::vector.8"*)** %5, metadata !4842, metadata !4203), !dbg !4843
  call void @llvm.dbg.declare(metadata %"class.std::vector.8"* %6, metadata !4844, metadata !4203), !dbg !4845
  %15 = load %"class.std::vector.3"*, %"class.std::vector.3"** %4, align 4, !dbg !4846
  %16 = call i32 @_ZNKSt6vectorI4NodeSaIS0_EE4sizeEv(%"class.std::vector.3"* %15) #3, !dbg !4847
  %17 = call %"class.std::allocator.10"* @_ZNSaIdEC2Ev(%"class.std::allocator.10"* %7) #3, !dbg !4848
  %18 = invoke %"class.std::vector.8"* @_ZNSt6vectorIdSaIdEEC2EjRKS0_(%"class.std::vector.8"* %6, i32 %16, %"class.std::allocator.10"* dereferenceable(1) %7)
          to label %19 unwind label %37, !dbg !4845

; <label>:19:                                     ; preds = %3
  %20 = call %"class.std::allocator.10"* @_ZNSaIdED2Ev(%"class.std::allocator.10"* %7) #3, !dbg !4850
  call void @llvm.dbg.declare(metadata i32* %10, metadata !4852, metadata !4203), !dbg !4854
  store i32 0, i32* %10, align 4, !dbg !4854
  br label %21, !dbg !4855

; <label>:21:                                     ; preds = %34, %19
  %22 = load i32, i32* %10, align 4, !dbg !4856
  %23 = load %"class.std::vector.3"*, %"class.std::vector.3"** %4, align 4, !dbg !4859
  %24 = call i32 @_ZNKSt6vectorI4NodeSaIS0_EE4sizeEv(%"class.std::vector.3"* %23) #3, !dbg !4860
  %25 = icmp ult i32 %22, %24, !dbg !4861
  br i1 %25, label %26, label %42, !dbg !4862

; <label>:26:                                     ; preds = %21
  %27 = load %"class.std::vector.3"*, %"class.std::vector.3"** %4, align 4, !dbg !4863
  %28 = load i32, i32* %10, align 4, !dbg !4865
  %29 = call dereferenceable(16) %class.Node* @_ZNKSt6vectorI4NodeSaIS0_EEixEj(%"class.std::vector.3"* %27, i32 %28) #3, !dbg !4863
  %30 = getelementptr inbounds %class.Node, %class.Node* %29, i32 0, i32 0, !dbg !4866
  %31 = load double, double* %30, align 8, !dbg !4866
  %32 = load i32, i32* %10, align 4, !dbg !4867
  %33 = call dereferenceable(8) double* @_ZNSt6vectorIdSaIdEEixEj(%"class.std::vector.8"* %6, i32 %32) #3, !dbg !4868
  store double %31, double* %33, align 8, !dbg !4870
  br label %34, !dbg !4871

; <label>:34:                                     ; preds = %26
  %35 = load i32, i32* %10, align 4, !dbg !4872
  %36 = add i32 %35, 1, !dbg !4872
  store i32 %36, i32* %10, align 4, !dbg !4872
  br label %21, !dbg !4874, !llvm.loop !4875

; <label>:37:                                     ; preds = %3
  %38 = landingpad { i8*, i32 }
          cleanup, !dbg !4877
  %39 = extractvalue { i8*, i32 } %38, 0, !dbg !4877
  store i8* %39, i8** %8, align 4, !dbg !4877
  %40 = extractvalue { i8*, i32 } %38, 1, !dbg !4877
  store i32 %40, i32* %9, align 4, !dbg !4877
  %41 = call %"class.std::allocator.10"* @_ZNSaIdED2Ev(%"class.std::allocator.10"* %7) #3, !dbg !4878
  br label %84, !dbg !4878

; <label>:42:                                     ; preds = %21
  call void @llvm.dbg.declare(metadata %struct.PolyadicOperationResult* %11, metadata !4880, metadata !4203), !dbg !4881
  %43 = load void (%struct.PolyadicOperationResult*, %"class.std::vector.8"*)*, void (%struct.PolyadicOperationResult*, %"class.std::vector.8"*)** %5, align 4, !dbg !4882
  invoke void %43(%struct.PolyadicOperationResult* sret %11, %"class.std::vector.8"* dereferenceable(12) %6)
          to label %44 unwind label %70, !dbg !4882

; <label>:44:                                     ; preds = %42
  call void @llvm.dbg.declare(metadata %class.Node* %0, metadata !4883, metadata !4415), !dbg !4884
  %45 = getelementptr inbounds %struct.PolyadicOperationResult, %struct.PolyadicOperationResult* %11, i32 0, i32 0, !dbg !4885
  %46 = invoke %class.Node* @_ZN4NodeC1ERKd(%class.Node* %0, double* dereferenceable(8) %45)
          to label %47 unwind label %74, !dbg !4884

; <label>:47:                                     ; preds = %44
  call void @llvm.dbg.declare(metadata %class.Graph** %12, metadata !4886, metadata !4203), !dbg !4887
  %48 = invoke %class.Graph* @_ZN5Graph11getInstanceEv()
          to label %49 unwind label %74, !dbg !4888

; <label>:49:                                     ; preds = %47
  store %class.Graph* %48, %class.Graph** %12, align 4, !dbg !4889
  call void @llvm.dbg.declare(metadata i32* %13, metadata !4890, metadata !4203), !dbg !4892
  store i32 0, i32* %13, align 4, !dbg !4892
  br label %50, !dbg !4893

; <label>:50:                                     ; preds = %67, %49
  %51 = load i32, i32* %13, align 4, !dbg !4894
  %52 = load %"class.std::vector.3"*, %"class.std::vector.3"** %4, align 4, !dbg !4897
  %53 = call i32 @_ZNKSt6vectorI4NodeSaIS0_EE4sizeEv(%"class.std::vector.3"* %52) #3, !dbg !4898
  %54 = icmp ult i32 %51, %53, !dbg !4899
  br i1 %54, label %55, label %79, !dbg !4900

; <label>:55:                                     ; preds = %50
  %56 = load %class.Graph*, %class.Graph** %12, align 4, !dbg !4901
  %57 = getelementptr inbounds %class.Node, %class.Node* %0, i32 0, i32 1, !dbg !4903
  %58 = getelementptr inbounds %struct.PolyadicOperationResult, %struct.PolyadicOperationResult* %11, i32 0, i32 1, !dbg !4904
  %59 = load i32, i32* %13, align 4, !dbg !4905
  %60 = call dereferenceable(8) double* @_ZNSt6vectorIdSaIdEEixEj(%"class.std::vector.8"* %58, i32 %59) #3, !dbg !4906
  %61 = load %"class.std::vector.3"*, %"class.std::vector.3"** %4, align 4, !dbg !4907
  %62 = load i32, i32* %13, align 4, !dbg !4908
  %63 = call dereferenceable(16) %class.Node* @_ZNKSt6vectorI4NodeSaIS0_EEixEj(%"class.std::vector.3"* %61, i32 %62) #3, !dbg !4909
  %64 = getelementptr inbounds %class.Node, %class.Node* %63, i32 0, i32 1, !dbg !4911
  invoke void @_ZSt9make_pairIRdRKlESt4pairINSt17__decay_and_stripIT_E6__typeENS4_IT0_E6__typeEEOS5_OS8_(%"struct.std::pair"* sret %14, double* dereferenceable(8) %60, i32* dereferenceable(4) %64)
          to label %65 unwind label %74, !dbg !4912

; <label>:65:                                     ; preds = %55
  invoke void @_ZN5Graph7connectERKlRKSt4pairIdlE(%class.Graph* %56, i32* dereferenceable(4) %57, %"struct.std::pair"* dereferenceable(16) %14)
          to label %66 unwind label %74, !dbg !4913

; <label>:66:                                     ; preds = %65
  br label %67, !dbg !4915

; <label>:67:                                     ; preds = %66
  %68 = load i32, i32* %13, align 4, !dbg !4916
  %69 = add i32 %68, 1, !dbg !4916
  store i32 %69, i32* %13, align 4, !dbg !4916
  br label %50, !dbg !4918, !llvm.loop !4919

; <label>:70:                                     ; preds = %42
  %71 = landingpad { i8*, i32 }
          cleanup, !dbg !4921
  %72 = extractvalue { i8*, i32 } %71, 0, !dbg !4921
  store i8* %72, i8** %8, align 4, !dbg !4921
  %73 = extractvalue { i8*, i32 } %71, 1, !dbg !4921
  store i32 %73, i32* %9, align 4, !dbg !4921
  br label %82, !dbg !4921

; <label>:74:                                     ; preds = %65, %55, %47, %44
  %75 = landingpad { i8*, i32 }
          cleanup, !dbg !4922
  %76 = extractvalue { i8*, i32 } %75, 0, !dbg !4922
  store i8* %76, i8** %8, align 4, !dbg !4922
  %77 = extractvalue { i8*, i32 } %75, 1, !dbg !4922
  store i32 %77, i32* %9, align 4, !dbg !4922
  %78 = call %struct.PolyadicOperationResult* @_ZN23PolyadicOperationResultD2Ev(%struct.PolyadicOperationResult* %11) #3, !dbg !4922
  br label %82, !dbg !4922

; <label>:79:                                     ; preds = %50
  %80 = call %struct.PolyadicOperationResult* @_ZN23PolyadicOperationResultD2Ev(%struct.PolyadicOperationResult* %11) #3, !dbg !4923
  %81 = call %"class.std::vector.8"* @_ZNSt6vectorIdSaIdEED2Ev(%"class.std::vector.8"* %6) #3, !dbg !4925
  ret void, !dbg !4923

; <label>:82:                                     ; preds = %74, %70
  %83 = call %"class.std::vector.8"* @_ZNSt6vectorIdSaIdEED2Ev(%"class.std::vector.8"* %6) #3, !dbg !4927
  br label %84, !dbg !4927

; <label>:84:                                     ; preds = %82, %37
  %85 = load i8*, i8** %8, align 4, !dbg !4928
  %86 = load i32, i32* %9, align 4, !dbg !4928
  %87 = insertvalue { i8*, i32 } undef, i8* %85, 0, !dbg !4928
  %88 = insertvalue { i8*, i32 } %87, i32 %86, 1, !dbg !4928
  resume { i8*, i32 } %88, !dbg !4928
}

; Function Attrs: inlinehint nounwind
define linkonce_odr %struct.PolyadicOperationResult* @_ZN23PolyadicOperationResultD2Ev(%struct.PolyadicOperationResult* returned) unnamed_addr #6 comdat align 2 !dbg !4929 !xidane.fname !4933 !xidane.function_declaration_type !2492 !xidane.function_declaration_filename !4934 {
  %2 = alloca %struct.PolyadicOperationResult*, align 4
  store %struct.PolyadicOperationResult* %0, %struct.PolyadicOperationResult** %2, align 4
  call void @llvm.dbg.declare(metadata %struct.PolyadicOperationResult** %2, metadata !4935, metadata !4203), !dbg !4937
  %3 = load %struct.PolyadicOperationResult*, %struct.PolyadicOperationResult** %2, align 4
  %4 = getelementptr inbounds %struct.PolyadicOperationResult, %struct.PolyadicOperationResult* %3, i32 0, i32 1, !dbg !4938
  %5 = call %"class.std::vector.8"* @_ZNSt6vectorIdSaIdEED2Ev(%"class.std::vector.8"* %4) #3, !dbg !4938
  ret %struct.PolyadicOperationResult* %3, !dbg !4940
}

define void @_ZplRK4NodeS1_(%class.Node* noalias sret, %class.Node* dereferenceable(16), %class.Node* dereferenceable(16)) #0 !dbg !4941 !xidane.fname !4944 !xidane.function_declaration_type !4945 !xidane.function_declaration_filename !4201 {
  %4 = alloca %class.Node*, align 4
  %5 = alloca %class.Node*, align 4
  %6 = alloca %class.anon, align 1
  store %class.Node* %1, %class.Node** %4, align 4
  call void @llvm.dbg.declare(metadata %class.Node** %4, metadata !4946, metadata !4203), !dbg !4947
  store %class.Node* %2, %class.Node** %5, align 4
  call void @llvm.dbg.declare(metadata %class.Node** %5, metadata !4948, metadata !4203), !dbg !4949
  %7 = load %class.Node*, %class.Node** %4, align 4, !dbg !4950
  %8 = load %class.Node*, %class.Node** %5, align 4, !dbg !4951
  %9 = call void (%struct.DyadicOperationResult*, double*, double*)* @"_ZZplRK4NodeS1_ENK3$_0cvPF21DyadicOperationResultRKdS5_EEv"(%class.anon* %6), !dbg !4952
  call void @_ZN4Node16dyadic_operationERKS_S1_PF21DyadicOperationResultRKdS4_E(%class.Node* sret %0, %class.Node* dereferenceable(16) %7, %class.Node* dereferenceable(16) %8, void (%struct.DyadicOperationResult*, double*, double*)* %9), !dbg !4953
  ret void, !dbg !4955
}

; Function Attrs: inlinehint nounwind
define internal void (%struct.DyadicOperationResult*, double*, double*)* @"_ZZplRK4NodeS1_ENK3$_0cvPF21DyadicOperationResultRKdS5_EEv"(%class.anon*) #6 align 2 !dbg !4956 !xidane.fname !4963 !xidane.function_declaration_type !4964 !xidane.function_declaration_filename !4965 {
  %2 = alloca %class.anon*, align 4
  store %class.anon* %0, %class.anon** %2, align 4
  call void @llvm.dbg.declare(metadata %class.anon** %2, metadata !4966, metadata !4203), !dbg !4968
  %3 = load %class.anon*, %class.anon** %2, align 4
  ret void (%struct.DyadicOperationResult*, double*, double*)* @"_ZZplRK4NodeS1_EN3$_08__invokeERKdS4_", !dbg !4969
}

define void @_ZmiRK4NodeS1_(%class.Node* noalias sret, %class.Node* dereferenceable(16), %class.Node* dereferenceable(16)) #0 !dbg !4970 !xidane.fname !4971 !xidane.function_declaration_type !4945 !xidane.function_declaration_filename !4201 {
  %4 = alloca %class.Node*, align 4
  %5 = alloca %class.Node*, align 4
  %6 = alloca %class.anon.23, align 1
  store %class.Node* %1, %class.Node** %4, align 4
  call void @llvm.dbg.declare(metadata %class.Node** %4, metadata !4972, metadata !4203), !dbg !4973
  store %class.Node* %2, %class.Node** %5, align 4
  call void @llvm.dbg.declare(metadata %class.Node** %5, metadata !4974, metadata !4203), !dbg !4975
  %7 = load %class.Node*, %class.Node** %4, align 4, !dbg !4976
  %8 = load %class.Node*, %class.Node** %5, align 4, !dbg !4977
  %9 = call void (%struct.DyadicOperationResult*, double*, double*)* @"_ZZmiRK4NodeS1_ENK3$_1cvPF21DyadicOperationResultRKdS5_EEv"(%class.anon.23* %6), !dbg !4978
  call void @_ZN4Node16dyadic_operationERKS_S1_PF21DyadicOperationResultRKdS4_E(%class.Node* sret %0, %class.Node* dereferenceable(16) %7, %class.Node* dereferenceable(16) %8, void (%struct.DyadicOperationResult*, double*, double*)* %9), !dbg !4979
  ret void, !dbg !4981
}

; Function Attrs: inlinehint nounwind
define internal void (%struct.DyadicOperationResult*, double*, double*)* @"_ZZmiRK4NodeS1_ENK3$_1cvPF21DyadicOperationResultRKdS5_EEv"(%class.anon.23*) #6 align 2 !dbg !4982 !xidane.fname !4963 !xidane.function_declaration_type !4964 !xidane.function_declaration_filename !4965 {
  %2 = alloca %class.anon.23*, align 4
  store %class.anon.23* %0, %class.anon.23** %2, align 4
  call void @llvm.dbg.declare(metadata %class.anon.23** %2, metadata !4989, metadata !4203), !dbg !4991
  %3 = load %class.anon.23*, %class.anon.23** %2, align 4
  ret void (%struct.DyadicOperationResult*, double*, double*)* @"_ZZmiRK4NodeS1_EN3$_18__invokeERKdS4_", !dbg !4992
}

define void @_ZmlRK4NodeS1_(%class.Node* noalias sret, %class.Node* dereferenceable(16), %class.Node* dereferenceable(16)) #0 !dbg !4993 !xidane.fname !4353 !xidane.function_declaration_type !4945 !xidane.function_declaration_filename !4201 {
  %4 = alloca %class.Node*, align 4
  %5 = alloca %class.Node*, align 4
  %6 = alloca %class.anon.25, align 1
  store %class.Node* %1, %class.Node** %4, align 4
  call void @llvm.dbg.declare(metadata %class.Node** %4, metadata !4994, metadata !4203), !dbg !4995
  store %class.Node* %2, %class.Node** %5, align 4
  call void @llvm.dbg.declare(metadata %class.Node** %5, metadata !4996, metadata !4203), !dbg !4997
  %7 = load %class.Node*, %class.Node** %4, align 4, !dbg !4998
  %8 = load %class.Node*, %class.Node** %5, align 4, !dbg !4999
  %9 = call void (%struct.DyadicOperationResult*, double*, double*)* @"_ZZmlRK4NodeS1_ENK3$_2cvPF21DyadicOperationResultRKdS5_EEv"(%class.anon.25* %6), !dbg !5000
  call void @_ZN4Node16dyadic_operationERKS_S1_PF21DyadicOperationResultRKdS4_E(%class.Node* sret %0, %class.Node* dereferenceable(16) %7, %class.Node* dereferenceable(16) %8, void (%struct.DyadicOperationResult*, double*, double*)* %9), !dbg !5001
  ret void, !dbg !5003
}

; Function Attrs: inlinehint nounwind
define internal void (%struct.DyadicOperationResult*, double*, double*)* @"_ZZmlRK4NodeS1_ENK3$_2cvPF21DyadicOperationResultRKdS5_EEv"(%class.anon.25*) #6 align 2 !dbg !5004 !xidane.fname !4963 !xidane.function_declaration_type !4964 !xidane.function_declaration_filename !4965 {
  %2 = alloca %class.anon.25*, align 4
  store %class.anon.25* %0, %class.anon.25** %2, align 4
  call void @llvm.dbg.declare(metadata %class.anon.25** %2, metadata !5011, metadata !4203), !dbg !5013
  %3 = load %class.anon.25*, %class.anon.25** %2, align 4
  ret void (%struct.DyadicOperationResult*, double*, double*)* @"_ZZmlRK4NodeS1_EN3$_28__invokeERKdS4_", !dbg !5014
}

define void @_ZdvRK4NodeS1_(%class.Node* noalias sret, %class.Node* dereferenceable(16), %class.Node* dereferenceable(16)) #0 !dbg !5015 !xidane.fname !5016 !xidane.function_declaration_type !4945 !xidane.function_declaration_filename !4201 {
  %4 = alloca %class.Node*, align 4
  %5 = alloca %class.Node*, align 4
  %6 = alloca %class.anon.27, align 1
  store %class.Node* %1, %class.Node** %4, align 4
  call void @llvm.dbg.declare(metadata %class.Node** %4, metadata !5017, metadata !4203), !dbg !5018
  store %class.Node* %2, %class.Node** %5, align 4
  call void @llvm.dbg.declare(metadata %class.Node** %5, metadata !5019, metadata !4203), !dbg !5020
  %7 = load %class.Node*, %class.Node** %4, align 4, !dbg !5021
  %8 = load %class.Node*, %class.Node** %5, align 4, !dbg !5022
  %9 = call void (%struct.DyadicOperationResult*, double*, double*)* @"_ZZdvRK4NodeS1_ENK3$_3cvPF21DyadicOperationResultRKdS5_EEv"(%class.anon.27* %6), !dbg !5023
  call void @_ZN4Node16dyadic_operationERKS_S1_PF21DyadicOperationResultRKdS4_E(%class.Node* sret %0, %class.Node* dereferenceable(16) %7, %class.Node* dereferenceable(16) %8, void (%struct.DyadicOperationResult*, double*, double*)* %9), !dbg !5024
  ret void, !dbg !5026
}

; Function Attrs: inlinehint nounwind
define internal void (%struct.DyadicOperationResult*, double*, double*)* @"_ZZdvRK4NodeS1_ENK3$_3cvPF21DyadicOperationResultRKdS5_EEv"(%class.anon.27*) #6 align 2 !dbg !5027 !xidane.fname !4963 !xidane.function_declaration_type !4964 !xidane.function_declaration_filename !4965 {
  %2 = alloca %class.anon.27*, align 4
  store %class.anon.27* %0, %class.anon.27** %2, align 4
  call void @llvm.dbg.declare(metadata %class.anon.27** %2, metadata !5034, metadata !4203), !dbg !5036
  %3 = load %class.anon.27*, %class.anon.27** %2, align 4
  ret void (%struct.DyadicOperationResult*, double*, double*)* @"_ZZdvRK4NodeS1_EN3$_38__invokeERKdS4_", !dbg !5037
}

define dereferenceable(16) %class.Node* @_ZN4NodepLERKS_(%class.Node*, %class.Node* dereferenceable(16)) #0 align 2 !dbg !5038 !xidane.fname !5039 !xidane.function_declaration_type !5040 !xidane.function_declaration_filename !4201 {
  %3 = alloca %class.Node*, align 4
  %4 = alloca %class.Node*, align 4
  %5 = alloca %class.Node, align 8
  store %class.Node* %0, %class.Node** %3, align 4
  call void @llvm.dbg.declare(metadata %class.Node** %3, metadata !5041, metadata !4203), !dbg !5042
  store %class.Node* %1, %class.Node** %4, align 4
  call void @llvm.dbg.declare(metadata %class.Node** %4, metadata !5043, metadata !4203), !dbg !5044
  %6 = load %class.Node*, %class.Node** %3, align 4
  %7 = load %class.Node*, %class.Node** %4, align 4, !dbg !5045
  call void @_ZplRK4NodeS1_(%class.Node* sret %5, %class.Node* dereferenceable(16) %6, %class.Node* dereferenceable(16) %7), !dbg !5046
  %8 = bitcast %class.Node* %6 to i8*, !dbg !5047
  %9 = bitcast %class.Node* %5 to i8*, !dbg !5047
  call void @llvm.memcpy.p0i8.p0i8.i32(i8* %8, i8* %9, i32 12, i32 8, i1 false), !dbg !5048
  ret %class.Node* %6, !dbg !5050
}

; Function Attrs: argmemonly nounwind
declare void @llvm.memcpy.p0i8.p0i8.i32(i8* nocapture writeonly, i8* nocapture readonly, i32, i32, i1) #7

define dereferenceable(16) %class.Node* @_ZN4NodemIERKS_(%class.Node*, %class.Node* dereferenceable(16)) #0 align 2 !dbg !5051 !xidane.fname !5052 !xidane.function_declaration_type !5040 !xidane.function_declaration_filename !4201 {
  %3 = alloca %class.Node*, align 4
  %4 = alloca %class.Node*, align 4
  %5 = alloca %class.Node, align 8
  store %class.Node* %0, %class.Node** %3, align 4
  call void @llvm.dbg.declare(metadata %class.Node** %3, metadata !5053, metadata !4203), !dbg !5054
  store %class.Node* %1, %class.Node** %4, align 4
  call void @llvm.dbg.declare(metadata %class.Node** %4, metadata !5055, metadata !4203), !dbg !5056
  %6 = load %class.Node*, %class.Node** %3, align 4
  %7 = load %class.Node*, %class.Node** %4, align 4, !dbg !5057
  call void @_ZmiRK4NodeS1_(%class.Node* sret %5, %class.Node* dereferenceable(16) %6, %class.Node* dereferenceable(16) %7), !dbg !5058
  %8 = bitcast %class.Node* %6 to i8*, !dbg !5059
  %9 = bitcast %class.Node* %5 to i8*, !dbg !5059
  call void @llvm.memcpy.p0i8.p0i8.i32(i8* %8, i8* %9, i32 12, i32 8, i1 false), !dbg !5060
  ret %class.Node* %6, !dbg !5062
}

define dereferenceable(16) %class.Node* @_ZN4NodemLERKS_(%class.Node*, %class.Node* dereferenceable(16)) #0 align 2 !dbg !5063 !xidane.fname !5064 !xidane.function_declaration_type !5040 !xidane.function_declaration_filename !4201 {
  %3 = alloca %class.Node*, align 4
  %4 = alloca %class.Node*, align 4
  %5 = alloca %class.Node, align 8
  store %class.Node* %0, %class.Node** %3, align 4
  call void @llvm.dbg.declare(metadata %class.Node** %3, metadata !5065, metadata !4203), !dbg !5066
  store %class.Node* %1, %class.Node** %4, align 4
  call void @llvm.dbg.declare(metadata %class.Node** %4, metadata !5067, metadata !4203), !dbg !5068
  %6 = load %class.Node*, %class.Node** %3, align 4
  %7 = load %class.Node*, %class.Node** %4, align 4, !dbg !5069
  call void @_ZmlRK4NodeS1_(%class.Node* sret %5, %class.Node* dereferenceable(16) %6, %class.Node* dereferenceable(16) %7), !dbg !5070
  %8 = bitcast %class.Node* %6 to i8*, !dbg !5071
  %9 = bitcast %class.Node* %5 to i8*, !dbg !5071
  call void @llvm.memcpy.p0i8.p0i8.i32(i8* %8, i8* %9, i32 12, i32 8, i1 false), !dbg !5072
  ret %class.Node* %6, !dbg !5074
}

define dereferenceable(16) %class.Node* @_ZN4NodedVERKS_(%class.Node*, %class.Node* dereferenceable(16)) #0 align 2 !dbg !5075 !xidane.fname !5076 !xidane.function_declaration_type !5040 !xidane.function_declaration_filename !4201 {
  %3 = alloca %class.Node*, align 4
  %4 = alloca %class.Node*, align 4
  %5 = alloca %class.Node, align 8
  store %class.Node* %0, %class.Node** %3, align 4
  call void @llvm.dbg.declare(metadata %class.Node** %3, metadata !5077, metadata !4203), !dbg !5078
  store %class.Node* %1, %class.Node** %4, align 4
  call void @llvm.dbg.declare(metadata %class.Node** %4, metadata !5079, metadata !4203), !dbg !5080
  %6 = load %class.Node*, %class.Node** %3, align 4
  %7 = load %class.Node*, %class.Node** %4, align 4, !dbg !5081
  call void @_ZdvRK4NodeS1_(%class.Node* sret %5, %class.Node* dereferenceable(16) %6, %class.Node* dereferenceable(16) %7), !dbg !5082
  %8 = bitcast %class.Node* %6 to i8*, !dbg !5083
  %9 = bitcast %class.Node* %5 to i8*, !dbg !5083
  call void @llvm.memcpy.p0i8.p0i8.i32(i8* %8, i8* %9, i32 12, i32 8, i1 false), !dbg !5084
  ret %class.Node* %6, !dbg !5086
}

; Function Attrs: nounwind
define zeroext i1 @_ZeqRK4NodeS1_(%class.Node* dereferenceable(16), %class.Node* dereferenceable(16)) #5 !dbg !5087 !xidane.fname !5090 !xidane.function_declaration_type !5091 !xidane.function_declaration_filename !4201 {
  %3 = alloca %class.Node*, align 4
  %4 = alloca %class.Node*, align 4
  store %class.Node* %0, %class.Node** %3, align 4
  call void @llvm.dbg.declare(metadata %class.Node** %3, metadata !5092, metadata !4203), !dbg !5093
  store %class.Node* %1, %class.Node** %4, align 4
  call void @llvm.dbg.declare(metadata %class.Node** %4, metadata !5094, metadata !4203), !dbg !5095
  %5 = load %class.Node*, %class.Node** %3, align 4, !dbg !5096
  %6 = getelementptr inbounds %class.Node, %class.Node* %5, i32 0, i32 0, !dbg !5097
  %7 = load double, double* %6, align 8, !dbg !5097
  %8 = load %class.Node*, %class.Node** %4, align 4, !dbg !5098
  %9 = getelementptr inbounds %class.Node, %class.Node* %8, i32 0, i32 0, !dbg !5099
  %10 = load double, double* %9, align 8, !dbg !5099
  %11 = fcmp oeq double %7, %10, !dbg !5100
  ret i1 %11, !dbg !5101
}

; Function Attrs: nounwind
define zeroext i1 @_ZltRK4NodeS1_(%class.Node* dereferenceable(16), %class.Node* dereferenceable(16)) #5 !dbg !5102 !xidane.fname !5103 !xidane.function_declaration_type !5091 !xidane.function_declaration_filename !4201 {
  %3 = alloca %class.Node*, align 4
  %4 = alloca %class.Node*, align 4
  store %class.Node* %0, %class.Node** %3, align 4
  call void @llvm.dbg.declare(metadata %class.Node** %3, metadata !5104, metadata !4203), !dbg !5105
  store %class.Node* %1, %class.Node** %4, align 4
  call void @llvm.dbg.declare(metadata %class.Node** %4, metadata !5106, metadata !4203), !dbg !5107
  %5 = load %class.Node*, %class.Node** %3, align 4, !dbg !5108
  %6 = getelementptr inbounds %class.Node, %class.Node* %5, i32 0, i32 0, !dbg !5109
  %7 = load double, double* %6, align 8, !dbg !5109
  %8 = load %class.Node*, %class.Node** %4, align 4, !dbg !5110
  %9 = getelementptr inbounds %class.Node, %class.Node* %8, i32 0, i32 0, !dbg !5111
  %10 = load double, double* %9, align 8, !dbg !5111
  %11 = fcmp olt double %7, %10, !dbg !5112
  ret i1 %11, !dbg !5113
}

; Function Attrs: nounwind
define zeroext i1 @_ZgtRK4NodeS1_(%class.Node* dereferenceable(16), %class.Node* dereferenceable(16)) #5 !dbg !5114 !xidane.fname !5115 !xidane.function_declaration_type !5091 !xidane.function_declaration_filename !4201 {
  %3 = alloca %class.Node*, align 4
  %4 = alloca %class.Node*, align 4
  store %class.Node* %0, %class.Node** %3, align 4
  call void @llvm.dbg.declare(metadata %class.Node** %3, metadata !5116, metadata !4203), !dbg !5117
  store %class.Node* %1, %class.Node** %4, align 4
  call void @llvm.dbg.declare(metadata %class.Node** %4, metadata !5118, metadata !4203), !dbg !5119
  %5 = load %class.Node*, %class.Node** %3, align 4, !dbg !5120
  %6 = getelementptr inbounds %class.Node, %class.Node* %5, i32 0, i32 0, !dbg !5121
  %7 = load double, double* %6, align 8, !dbg !5121
  %8 = load %class.Node*, %class.Node** %4, align 4, !dbg !5122
  %9 = getelementptr inbounds %class.Node, %class.Node* %8, i32 0, i32 0, !dbg !5123
  %10 = load double, double* %9, align 8, !dbg !5123
  %11 = fcmp ogt double %7, %10, !dbg !5124
  ret i1 %11, !dbg !5125
}

; Function Attrs: nounwind
define zeroext i1 @_ZleRK4NodeS1_(%class.Node* dereferenceable(16), %class.Node* dereferenceable(16)) #5 !dbg !5126 !xidane.fname !5127 !xidane.function_declaration_type !5091 !xidane.function_declaration_filename !4201 {
  %3 = alloca %class.Node*, align 4
  %4 = alloca %class.Node*, align 4
  store %class.Node* %0, %class.Node** %3, align 4
  call void @llvm.dbg.declare(metadata %class.Node** %3, metadata !5128, metadata !4203), !dbg !5129
  store %class.Node* %1, %class.Node** %4, align 4
  call void @llvm.dbg.declare(metadata %class.Node** %4, metadata !5130, metadata !4203), !dbg !5131
  %5 = load %class.Node*, %class.Node** %3, align 4, !dbg !5132
  %6 = getelementptr inbounds %class.Node, %class.Node* %5, i32 0, i32 0, !dbg !5133
  %7 = load double, double* %6, align 8, !dbg !5133
  %8 = load %class.Node*, %class.Node** %4, align 4, !dbg !5134
  %9 = getelementptr inbounds %class.Node, %class.Node* %8, i32 0, i32 0, !dbg !5135
  %10 = load double, double* %9, align 8, !dbg !5135
  %11 = fcmp ole double %7, %10, !dbg !5136
  ret i1 %11, !dbg !5137
}

; Function Attrs: nounwind
define zeroext i1 @_ZgeRK4NodeS1_(%class.Node* dereferenceable(16), %class.Node* dereferenceable(16)) #5 !dbg !5138 !xidane.fname !5139 !xidane.function_declaration_type !5091 !xidane.function_declaration_filename !4201 {
  %3 = alloca %class.Node*, align 4
  %4 = alloca %class.Node*, align 4
  store %class.Node* %0, %class.Node** %3, align 4
  call void @llvm.dbg.declare(metadata %class.Node** %3, metadata !5140, metadata !4203), !dbg !5141
  store %class.Node* %1, %class.Node** %4, align 4
  call void @llvm.dbg.declare(metadata %class.Node** %4, metadata !5142, metadata !4203), !dbg !5143
  %5 = load %class.Node*, %class.Node** %3, align 4, !dbg !5144
  %6 = getelementptr inbounds %class.Node, %class.Node* %5, i32 0, i32 0, !dbg !5145
  %7 = load double, double* %6, align 8, !dbg !5145
  %8 = load %class.Node*, %class.Node** %4, align 4, !dbg !5146
  %9 = getelementptr inbounds %class.Node, %class.Node* %8, i32 0, i32 0, !dbg !5147
  %10 = load double, double* %9, align 8, !dbg !5147
  %11 = fcmp oge double %7, %10, !dbg !5148
  ret i1 %11, !dbg !5149
}

define void @_Z3sinRK4Node(%class.Node* noalias sret, %class.Node* dereferenceable(16)) #0 !dbg !5150 !xidane.fname !5153 !xidane.function_declaration_type !5154 !xidane.function_declaration_filename !4201 {
  %3 = alloca %class.Node*, align 4
  %4 = alloca %class.anon.29, align 1
  store %class.Node* %1, %class.Node** %3, align 4
  call void @llvm.dbg.declare(metadata %class.Node** %3, metadata !5155, metadata !4203), !dbg !5156
  %5 = load %class.Node*, %class.Node** %3, align 4, !dbg !5157
  %6 = call void (%struct.MonadicOperationResult*, double*)* @"_ZZ3sinRK4NodeENK3$_4cvPF22MonadicOperationResultRKdEEv"(%class.anon.29* %4), !dbg !5158
  call void @_ZN4Node17monadic_operationERKS_PF22MonadicOperationResultRKdE(%class.Node* sret %0, %class.Node* dereferenceable(16) %5, void (%struct.MonadicOperationResult*, double*)* %6), !dbg !5159
  ret void, !dbg !5161
}

; Function Attrs: inlinehint nounwind
define internal void (%struct.MonadicOperationResult*, double*)* @"_ZZ3sinRK4NodeENK3$_4cvPF22MonadicOperationResultRKdEEv"(%class.anon.29*) #6 align 2 !dbg !5162 !xidane.fname !5169 !xidane.function_declaration_type !5170 !xidane.function_declaration_filename !4965 {
  %2 = alloca %class.anon.29*, align 4
  store %class.anon.29* %0, %class.anon.29** %2, align 4
  call void @llvm.dbg.declare(metadata %class.anon.29** %2, metadata !5171, metadata !4203), !dbg !5173
  %3 = load %class.anon.29*, %class.anon.29** %2, align 4
  ret void (%struct.MonadicOperationResult*, double*)* @"_ZZ3sinRK4NodeEN3$_48__invokeERKd", !dbg !5174
}

define void @_Z3cosRK4Node(%class.Node* noalias sret, %class.Node* dereferenceable(16)) #0 !dbg !5175 !xidane.fname !5176 !xidane.function_declaration_type !5154 !xidane.function_declaration_filename !4201 {
  %3 = alloca %class.Node*, align 4
  %4 = alloca %class.anon.31, align 1
  store %class.Node* %1, %class.Node** %3, align 4
  call void @llvm.dbg.declare(metadata %class.Node** %3, metadata !5177, metadata !4203), !dbg !5178
  %5 = load %class.Node*, %class.Node** %3, align 4, !dbg !5179
  %6 = call void (%struct.MonadicOperationResult*, double*)* @"_ZZ3cosRK4NodeENK3$_5cvPF22MonadicOperationResultRKdEEv"(%class.anon.31* %4), !dbg !5180
  call void @_ZN4Node17monadic_operationERKS_PF22MonadicOperationResultRKdE(%class.Node* sret %0, %class.Node* dereferenceable(16) %5, void (%struct.MonadicOperationResult*, double*)* %6), !dbg !5181
  ret void, !dbg !5183
}

; Function Attrs: inlinehint nounwind
define internal void (%struct.MonadicOperationResult*, double*)* @"_ZZ3cosRK4NodeENK3$_5cvPF22MonadicOperationResultRKdEEv"(%class.anon.31*) #6 align 2 !dbg !5184 !xidane.fname !5169 !xidane.function_declaration_type !5170 !xidane.function_declaration_filename !4965 {
  %2 = alloca %class.anon.31*, align 4
  store %class.anon.31* %0, %class.anon.31** %2, align 4
  call void @llvm.dbg.declare(metadata %class.anon.31** %2, metadata !5191, metadata !4203), !dbg !5193
  %3 = load %class.anon.31*, %class.anon.31** %2, align 4
  ret void (%struct.MonadicOperationResult*, double*)* @"_ZZ3cosRK4NodeEN3$_58__invokeERKd", !dbg !5194
}

define void @_Z3tanRK4Node(%class.Node* noalias sret, %class.Node* dereferenceable(16)) #0 !dbg !5195 !xidane.fname !5196 !xidane.function_declaration_type !5154 !xidane.function_declaration_filename !4201 {
  %3 = alloca %class.Node*, align 4
  %4 = alloca %class.anon.33, align 1
  store %class.Node* %1, %class.Node** %3, align 4
  call void @llvm.dbg.declare(metadata %class.Node** %3, metadata !5197, metadata !4203), !dbg !5198
  %5 = load %class.Node*, %class.Node** %3, align 4, !dbg !5199
  %6 = call void (%struct.MonadicOperationResult*, double*)* @"_ZZ3tanRK4NodeENK3$_6cvPF22MonadicOperationResultRKdEEv"(%class.anon.33* %4), !dbg !5200
  call void @_ZN4Node17monadic_operationERKS_PF22MonadicOperationResultRKdE(%class.Node* sret %0, %class.Node* dereferenceable(16) %5, void (%struct.MonadicOperationResult*, double*)* %6), !dbg !5201
  ret void, !dbg !5203
}

; Function Attrs: inlinehint nounwind
define internal void (%struct.MonadicOperationResult*, double*)* @"_ZZ3tanRK4NodeENK3$_6cvPF22MonadicOperationResultRKdEEv"(%class.anon.33*) #6 align 2 !dbg !5204 !xidane.fname !5169 !xidane.function_declaration_type !5170 !xidane.function_declaration_filename !4965 {
  %2 = alloca %class.anon.33*, align 4
  store %class.anon.33* %0, %class.anon.33** %2, align 4
  call void @llvm.dbg.declare(metadata %class.anon.33** %2, metadata !5211, metadata !4203), !dbg !5213
  %3 = load %class.anon.33*, %class.anon.33** %2, align 4
  ret void (%struct.MonadicOperationResult*, double*)* @"_ZZ3tanRK4NodeEN3$_68__invokeERKd", !dbg !5214
}

define void @_Z4sinhRK4Node(%class.Node* noalias sret, %class.Node* dereferenceable(16)) #0 !dbg !5215 !xidane.fname !5216 !xidane.function_declaration_type !5154 !xidane.function_declaration_filename !4201 {
  %3 = alloca %class.Node*, align 4
  %4 = alloca %class.anon.35, align 1
  store %class.Node* %1, %class.Node** %3, align 4
  call void @llvm.dbg.declare(metadata %class.Node** %3, metadata !5217, metadata !4203), !dbg !5218
  %5 = load %class.Node*, %class.Node** %3, align 4, !dbg !5219
  %6 = call void (%struct.MonadicOperationResult*, double*)* @"_ZZ4sinhRK4NodeENK3$_7cvPF22MonadicOperationResultRKdEEv"(%class.anon.35* %4), !dbg !5220
  call void @_ZN4Node17monadic_operationERKS_PF22MonadicOperationResultRKdE(%class.Node* sret %0, %class.Node* dereferenceable(16) %5, void (%struct.MonadicOperationResult*, double*)* %6), !dbg !5221
  ret void, !dbg !5223
}

; Function Attrs: inlinehint nounwind
define internal void (%struct.MonadicOperationResult*, double*)* @"_ZZ4sinhRK4NodeENK3$_7cvPF22MonadicOperationResultRKdEEv"(%class.anon.35*) #6 align 2 !dbg !5224 !xidane.fname !5169 !xidane.function_declaration_type !5170 !xidane.function_declaration_filename !4965 {
  %2 = alloca %class.anon.35*, align 4
  store %class.anon.35* %0, %class.anon.35** %2, align 4
  call void @llvm.dbg.declare(metadata %class.anon.35** %2, metadata !5231, metadata !4203), !dbg !5233
  %3 = load %class.anon.35*, %class.anon.35** %2, align 4
  ret void (%struct.MonadicOperationResult*, double*)* @"_ZZ4sinhRK4NodeEN3$_78__invokeERKd", !dbg !5234
}

define void @_Z4coshRK4Node(%class.Node* noalias sret, %class.Node* dereferenceable(16)) #0 !dbg !5235 !xidane.fname !5236 !xidane.function_declaration_type !5154 !xidane.function_declaration_filename !4201 {
  %3 = alloca %class.Node*, align 4
  %4 = alloca %class.anon.37, align 1
  store %class.Node* %1, %class.Node** %3, align 4
  call void @llvm.dbg.declare(metadata %class.Node** %3, metadata !5237, metadata !4203), !dbg !5238
  %5 = load %class.Node*, %class.Node** %3, align 4, !dbg !5239
  %6 = call void (%struct.MonadicOperationResult*, double*)* @"_ZZ4coshRK4NodeENK3$_8cvPF22MonadicOperationResultRKdEEv"(%class.anon.37* %4), !dbg !5240
  call void @_ZN4Node17monadic_operationERKS_PF22MonadicOperationResultRKdE(%class.Node* sret %0, %class.Node* dereferenceable(16) %5, void (%struct.MonadicOperationResult*, double*)* %6), !dbg !5241
  ret void, !dbg !5243
}

; Function Attrs: inlinehint nounwind
define internal void (%struct.MonadicOperationResult*, double*)* @"_ZZ4coshRK4NodeENK3$_8cvPF22MonadicOperationResultRKdEEv"(%class.anon.37*) #6 align 2 !dbg !5244 !xidane.fname !5169 !xidane.function_declaration_type !5170 !xidane.function_declaration_filename !4965 {
  %2 = alloca %class.anon.37*, align 4
  store %class.anon.37* %0, %class.anon.37** %2, align 4
  call void @llvm.dbg.declare(metadata %class.anon.37** %2, metadata !5251, metadata !4203), !dbg !5253
  %3 = load %class.anon.37*, %class.anon.37** %2, align 4
  ret void (%struct.MonadicOperationResult*, double*)* @"_ZZ4coshRK4NodeEN3$_88__invokeERKd", !dbg !5254
}

define void @_Z4asinRK4Node(%class.Node* noalias sret, %class.Node* dereferenceable(16)) #0 !dbg !5255 !xidane.fname !5256 !xidane.function_declaration_type !5154 !xidane.function_declaration_filename !4201 {
  %3 = alloca %class.Node*, align 4
  %4 = alloca %class.anon.39, align 1
  store %class.Node* %1, %class.Node** %3, align 4
  call void @llvm.dbg.declare(metadata %class.Node** %3, metadata !5257, metadata !4203), !dbg !5258
  %5 = load %class.Node*, %class.Node** %3, align 4, !dbg !5259
  %6 = call void (%struct.MonadicOperationResult*, double*)* @"_ZZ4asinRK4NodeENK3$_9cvPF22MonadicOperationResultRKdEEv"(%class.anon.39* %4), !dbg !5260
  call void @_ZN4Node17monadic_operationERKS_PF22MonadicOperationResultRKdE(%class.Node* sret %0, %class.Node* dereferenceable(16) %5, void (%struct.MonadicOperationResult*, double*)* %6), !dbg !5261
  ret void, !dbg !5263
}

; Function Attrs: inlinehint nounwind
define internal void (%struct.MonadicOperationResult*, double*)* @"_ZZ4asinRK4NodeENK3$_9cvPF22MonadicOperationResultRKdEEv"(%class.anon.39*) #6 align 2 !dbg !5264 !xidane.fname !5169 !xidane.function_declaration_type !5170 !xidane.function_declaration_filename !4965 {
  %2 = alloca %class.anon.39*, align 4
  store %class.anon.39* %0, %class.anon.39** %2, align 4
  call void @llvm.dbg.declare(metadata %class.anon.39** %2, metadata !5271, metadata !4203), !dbg !5273
  %3 = load %class.anon.39*, %class.anon.39** %2, align 4
  ret void (%struct.MonadicOperationResult*, double*)* @"_ZZ4asinRK4NodeEN3$_98__invokeERKd", !dbg !5274
}

define void @_Z4acosRK4Node(%class.Node* noalias sret, %class.Node* dereferenceable(16)) #0 !dbg !5275 !xidane.fname !5276 !xidane.function_declaration_type !5154 !xidane.function_declaration_filename !4201 {
  %3 = alloca %class.Node*, align 4
  %4 = alloca %class.anon.41, align 1
  store %class.Node* %1, %class.Node** %3, align 4
  call void @llvm.dbg.declare(metadata %class.Node** %3, metadata !5277, metadata !4203), !dbg !5278
  %5 = load %class.Node*, %class.Node** %3, align 4, !dbg !5279
  %6 = call void (%struct.MonadicOperationResult*, double*)* @"_ZZ4acosRK4NodeENK4$_10cvPF22MonadicOperationResultRKdEEv"(%class.anon.41* %4), !dbg !5280
  call void @_ZN4Node17monadic_operationERKS_PF22MonadicOperationResultRKdE(%class.Node* sret %0, %class.Node* dereferenceable(16) %5, void (%struct.MonadicOperationResult*, double*)* %6), !dbg !5281
  ret void, !dbg !5283
}

; Function Attrs: inlinehint nounwind
define internal void (%struct.MonadicOperationResult*, double*)* @"_ZZ4acosRK4NodeENK4$_10cvPF22MonadicOperationResultRKdEEv"(%class.anon.41*) #6 align 2 !dbg !5284 !xidane.fname !5169 !xidane.function_declaration_type !5170 !xidane.function_declaration_filename !4965 {
  %2 = alloca %class.anon.41*, align 4
  store %class.anon.41* %0, %class.anon.41** %2, align 4
  call void @llvm.dbg.declare(metadata %class.anon.41** %2, metadata !5291, metadata !4203), !dbg !5293
  %3 = load %class.anon.41*, %class.anon.41** %2, align 4
  ret void (%struct.MonadicOperationResult*, double*)* @"_ZZ4acosRK4NodeEN4$_108__invokeERKd", !dbg !5294
}

define void @_Z4atanRK4Node(%class.Node* noalias sret, %class.Node* dereferenceable(16)) #0 !dbg !5295 !xidane.fname !5296 !xidane.function_declaration_type !5154 !xidane.function_declaration_filename !4201 {
  %3 = alloca %class.Node*, align 4
  %4 = alloca %class.anon.43, align 1
  store %class.Node* %1, %class.Node** %3, align 4
  call void @llvm.dbg.declare(metadata %class.Node** %3, metadata !5297, metadata !4203), !dbg !5298
  %5 = load %class.Node*, %class.Node** %3, align 4, !dbg !5299
  %6 = call void (%struct.MonadicOperationResult*, double*)* @"_ZZ4atanRK4NodeENK4$_11cvPF22MonadicOperationResultRKdEEv"(%class.anon.43* %4), !dbg !5300
  call void @_ZN4Node17monadic_operationERKS_PF22MonadicOperationResultRKdE(%class.Node* sret %0, %class.Node* dereferenceable(16) %5, void (%struct.MonadicOperationResult*, double*)* %6), !dbg !5301
  ret void, !dbg !5303
}

; Function Attrs: inlinehint nounwind
define internal void (%struct.MonadicOperationResult*, double*)* @"_ZZ4atanRK4NodeENK4$_11cvPF22MonadicOperationResultRKdEEv"(%class.anon.43*) #6 align 2 !dbg !5304 !xidane.fname !5169 !xidane.function_declaration_type !5170 !xidane.function_declaration_filename !4965 {
  %2 = alloca %class.anon.43*, align 4
  store %class.anon.43* %0, %class.anon.43** %2, align 4
  call void @llvm.dbg.declare(metadata %class.anon.43** %2, metadata !5311, metadata !4203), !dbg !5313
  %3 = load %class.anon.43*, %class.anon.43** %2, align 4
  ret void (%struct.MonadicOperationResult*, double*)* @"_ZZ4atanRK4NodeEN4$_118__invokeERKd", !dbg !5314
}

define void @_Z4tanhRK4Node(%class.Node* noalias sret, %class.Node* dereferenceable(16)) #0 !dbg !5315 !xidane.fname !5316 !xidane.function_declaration_type !5154 !xidane.function_declaration_filename !4201 {
  %3 = alloca %class.Node*, align 4
  %4 = alloca %class.anon.45, align 1
  store %class.Node* %1, %class.Node** %3, align 4
  call void @llvm.dbg.declare(metadata %class.Node** %3, metadata !5317, metadata !4203), !dbg !5318
  %5 = load %class.Node*, %class.Node** %3, align 4, !dbg !5319
  %6 = call void (%struct.MonadicOperationResult*, double*)* @"_ZZ4tanhRK4NodeENK4$_12cvPF22MonadicOperationResultRKdEEv"(%class.anon.45* %4), !dbg !5320
  call void @_ZN4Node17monadic_operationERKS_PF22MonadicOperationResultRKdE(%class.Node* sret %0, %class.Node* dereferenceable(16) %5, void (%struct.MonadicOperationResult*, double*)* %6), !dbg !5321
  ret void, !dbg !5323
}

; Function Attrs: inlinehint nounwind
define internal void (%struct.MonadicOperationResult*, double*)* @"_ZZ4tanhRK4NodeENK4$_12cvPF22MonadicOperationResultRKdEEv"(%class.anon.45*) #6 align 2 !dbg !5324 !xidane.fname !5169 !xidane.function_declaration_type !5170 !xidane.function_declaration_filename !4965 {
  %2 = alloca %class.anon.45*, align 4
  store %class.anon.45* %0, %class.anon.45** %2, align 4
  call void @llvm.dbg.declare(metadata %class.anon.45** %2, metadata !5331, metadata !4203), !dbg !5333
  %3 = load %class.anon.45*, %class.anon.45** %2, align 4
  ret void (%struct.MonadicOperationResult*, double*)* @"_ZZ4tanhRK4NodeEN4$_128__invokeERKd", !dbg !5334
}

define void @_Z3logRK4NodeS1_(%class.Node* noalias sret, %class.Node* dereferenceable(16), %class.Node* dereferenceable(16)) #0 !dbg !5335 !xidane.fname !5336 !xidane.function_declaration_type !4945 !xidane.function_declaration_filename !4201 {
  %4 = alloca %class.Node*, align 4
  %5 = alloca %class.Node*, align 4
  %6 = alloca %class.anon.47, align 1
  store %class.Node* %1, %class.Node** %4, align 4
  call void @llvm.dbg.declare(metadata %class.Node** %4, metadata !5337, metadata !4203), !dbg !5338
  store %class.Node* %2, %class.Node** %5, align 4
  call void @llvm.dbg.declare(metadata %class.Node** %5, metadata !5339, metadata !4203), !dbg !5340
  %7 = load %class.Node*, %class.Node** %4, align 4, !dbg !5341
  %8 = load %class.Node*, %class.Node** %5, align 4, !dbg !5342
  %9 = call void (%struct.DyadicOperationResult*, double*, double*)* @"_ZZ3logRK4NodeS1_ENK4$_13cvPF21DyadicOperationResultRKdS5_EEv"(%class.anon.47* %6), !dbg !5343
  call void @_ZN4Node16dyadic_operationERKS_S1_PF21DyadicOperationResultRKdS4_E(%class.Node* sret %0, %class.Node* dereferenceable(16) %7, %class.Node* dereferenceable(16) %8, void (%struct.DyadicOperationResult*, double*, double*)* %9), !dbg !5344
  ret void, !dbg !5346
}

; Function Attrs: inlinehint nounwind
define internal void (%struct.DyadicOperationResult*, double*, double*)* @"_ZZ3logRK4NodeS1_ENK4$_13cvPF21DyadicOperationResultRKdS5_EEv"(%class.anon.47*) #6 align 2 !dbg !5347 !xidane.fname !4963 !xidane.function_declaration_type !4964 !xidane.function_declaration_filename !4965 {
  %2 = alloca %class.anon.47*, align 4
  store %class.anon.47* %0, %class.anon.47** %2, align 4
  call void @llvm.dbg.declare(metadata %class.anon.47** %2, metadata !5354, metadata !4203), !dbg !5356
  %3 = load %class.anon.47*, %class.anon.47** %2, align 4
  ret void (%struct.DyadicOperationResult*, double*, double*)* @"_ZZ3logRK4NodeS1_EN4$_138__invokeERKdS4_", !dbg !5357
}

define void @_Z5log10RK4Node(%class.Node* noalias sret, %class.Node* dereferenceable(16)) #0 !dbg !5358 !xidane.fname !5359 !xidane.function_declaration_type !5154 !xidane.function_declaration_filename !4201 {
  %3 = alloca %class.Node*, align 4
  %4 = alloca %class.anon.49, align 1
  store %class.Node* %1, %class.Node** %3, align 4
  call void @llvm.dbg.declare(metadata %class.Node** %3, metadata !5360, metadata !4203), !dbg !5361
  %5 = load %class.Node*, %class.Node** %3, align 4, !dbg !5362
  %6 = call void (%struct.MonadicOperationResult*, double*)* @"_ZZ5log10RK4NodeENK4$_14cvPF22MonadicOperationResultRKdEEv"(%class.anon.49* %4), !dbg !5363
  call void @_ZN4Node17monadic_operationERKS_PF22MonadicOperationResultRKdE(%class.Node* sret %0, %class.Node* dereferenceable(16) %5, void (%struct.MonadicOperationResult*, double*)* %6), !dbg !5364
  ret void, !dbg !5366
}

; Function Attrs: inlinehint nounwind
define internal void (%struct.MonadicOperationResult*, double*)* @"_ZZ5log10RK4NodeENK4$_14cvPF22MonadicOperationResultRKdEEv"(%class.anon.49*) #6 align 2 !dbg !5367 !xidane.fname !5169 !xidane.function_declaration_type !5170 !xidane.function_declaration_filename !4965 {
  %2 = alloca %class.anon.49*, align 4
  store %class.anon.49* %0, %class.anon.49** %2, align 4
  call void @llvm.dbg.declare(metadata %class.anon.49** %2, metadata !5374, metadata !4203), !dbg !5376
  %3 = load %class.anon.49*, %class.anon.49** %2, align 4
  ret void (%struct.MonadicOperationResult*, double*)* @"_ZZ5log10RK4NodeEN4$_148__invokeERKd", !dbg !5377
}

define void @_Z2lnRK4Node(%class.Node* noalias sret, %class.Node* dereferenceable(16)) #0 !dbg !5378 !xidane.fname !5379 !xidane.function_declaration_type !5154 !xidane.function_declaration_filename !4201 {
  %3 = alloca %class.Node*, align 4
  %4 = alloca %class.anon.51, align 1
  store %class.Node* %1, %class.Node** %3, align 4
  call void @llvm.dbg.declare(metadata %class.Node** %3, metadata !5380, metadata !4203), !dbg !5381
  %5 = load %class.Node*, %class.Node** %3, align 4, !dbg !5382
  %6 = call void (%struct.MonadicOperationResult*, double*)* @"_ZZ2lnRK4NodeENK4$_15cvPF22MonadicOperationResultRKdEEv"(%class.anon.51* %4), !dbg !5383
  call void @_ZN4Node17monadic_operationERKS_PF22MonadicOperationResultRKdE(%class.Node* sret %0, %class.Node* dereferenceable(16) %5, void (%struct.MonadicOperationResult*, double*)* %6), !dbg !5384
  ret void, !dbg !5386
}

; Function Attrs: inlinehint nounwind
define internal void (%struct.MonadicOperationResult*, double*)* @"_ZZ2lnRK4NodeENK4$_15cvPF22MonadicOperationResultRKdEEv"(%class.anon.51*) #6 align 2 !dbg !5387 !xidane.fname !5169 !xidane.function_declaration_type !5170 !xidane.function_declaration_filename !4965 {
  %2 = alloca %class.anon.51*, align 4
  store %class.anon.51* %0, %class.anon.51** %2, align 4
  call void @llvm.dbg.declare(metadata %class.anon.51** %2, metadata !5394, metadata !4203), !dbg !5396
  %3 = load %class.anon.51*, %class.anon.51** %2, align 4
  ret void (%struct.MonadicOperationResult*, double*)* @"_ZZ2lnRK4NodeEN4$_158__invokeERKd", !dbg !5397
}

define void @_Z3powRK4NodeS1_(%class.Node* noalias sret, %class.Node* dereferenceable(16), %class.Node* dereferenceable(16)) #0 !dbg !5398 !xidane.fname !5399 !xidane.function_declaration_type !4945 !xidane.function_declaration_filename !4201 {
  %4 = alloca %class.Node*, align 4
  %5 = alloca %class.Node*, align 4
  %6 = alloca %class.anon.53, align 1
  store %class.Node* %1, %class.Node** %4, align 4
  call void @llvm.dbg.declare(metadata %class.Node** %4, metadata !5400, metadata !4203), !dbg !5401
  store %class.Node* %2, %class.Node** %5, align 4
  call void @llvm.dbg.declare(metadata %class.Node** %5, metadata !5402, metadata !4203), !dbg !5403
  %7 = load %class.Node*, %class.Node** %4, align 4, !dbg !5404
  %8 = load %class.Node*, %class.Node** %5, align 4, !dbg !5405
  %9 = call void (%struct.DyadicOperationResult*, double*, double*)* @"_ZZ3powRK4NodeS1_ENK4$_16cvPF21DyadicOperationResultRKdS5_EEv"(%class.anon.53* %6), !dbg !5406
  call void @_ZN4Node16dyadic_operationERKS_S1_PF21DyadicOperationResultRKdS4_E(%class.Node* sret %0, %class.Node* dereferenceable(16) %7, %class.Node* dereferenceable(16) %8, void (%struct.DyadicOperationResult*, double*, double*)* %9), !dbg !5407
  ret void, !dbg !5409
}

; Function Attrs: inlinehint nounwind
define internal void (%struct.DyadicOperationResult*, double*, double*)* @"_ZZ3powRK4NodeS1_ENK4$_16cvPF21DyadicOperationResultRKdS5_EEv"(%class.anon.53*) #6 align 2 !dbg !5410 !xidane.fname !4963 !xidane.function_declaration_type !4964 !xidane.function_declaration_filename !4965 {
  %2 = alloca %class.anon.53*, align 4
  store %class.anon.53* %0, %class.anon.53** %2, align 4
  call void @llvm.dbg.declare(metadata %class.anon.53** %2, metadata !5417, metadata !4203), !dbg !5419
  %3 = load %class.anon.53*, %class.anon.53** %2, align 4
  ret void (%struct.DyadicOperationResult*, double*, double*)* @"_ZZ3powRK4NodeS1_EN4$_168__invokeERKdS4_", !dbg !5420
}

define void @_Z3expRK4Node(%class.Node* noalias sret, %class.Node* dereferenceable(16)) #0 !dbg !5421 !xidane.fname !5422 !xidane.function_declaration_type !5154 !xidane.function_declaration_filename !4201 {
  %3 = alloca %class.Node*, align 4
  %4 = alloca %class.anon.55, align 1
  store %class.Node* %1, %class.Node** %3, align 4
  call void @llvm.dbg.declare(metadata %class.Node** %3, metadata !5423, metadata !4203), !dbg !5424
  %5 = load %class.Node*, %class.Node** %3, align 4, !dbg !5425
  %6 = call void (%struct.MonadicOperationResult*, double*)* @"_ZZ3expRK4NodeENK4$_17cvPF22MonadicOperationResultRKdEEv"(%class.anon.55* %4), !dbg !5426
  call void @_ZN4Node17monadic_operationERKS_PF22MonadicOperationResultRKdE(%class.Node* sret %0, %class.Node* dereferenceable(16) %5, void (%struct.MonadicOperationResult*, double*)* %6), !dbg !5427
  ret void, !dbg !5429
}

; Function Attrs: inlinehint nounwind
define internal void (%struct.MonadicOperationResult*, double*)* @"_ZZ3expRK4NodeENK4$_17cvPF22MonadicOperationResultRKdEEv"(%class.anon.55*) #6 align 2 !dbg !5430 !xidane.fname !5169 !xidane.function_declaration_type !5170 !xidane.function_declaration_filename !4965 {
  %2 = alloca %class.anon.55*, align 4
  store %class.anon.55* %0, %class.anon.55** %2, align 4
  call void @llvm.dbg.declare(metadata %class.anon.55** %2, metadata !5437, metadata !4203), !dbg !5439
  %3 = load %class.anon.55*, %class.anon.55** %2, align 4
  ret void (%struct.MonadicOperationResult*, double*)* @"_ZZ3expRK4NodeEN4$_178__invokeERKd", !dbg !5440
}

define void @_Z4sqrtRK4Node(%class.Node* noalias sret, %class.Node* dereferenceable(16)) #0 !dbg !5441 !xidane.fname !5442 !xidane.function_declaration_type !5154 !xidane.function_declaration_filename !4201 {
  %3 = alloca %class.Node*, align 4
  %4 = alloca %class.anon.57, align 1
  store %class.Node* %1, %class.Node** %3, align 4
  call void @llvm.dbg.declare(metadata %class.Node** %3, metadata !5443, metadata !4203), !dbg !5444
  %5 = load %class.Node*, %class.Node** %3, align 4, !dbg !5445
  %6 = call void (%struct.MonadicOperationResult*, double*)* @"_ZZ4sqrtRK4NodeENK4$_18cvPF22MonadicOperationResultRKdEEv"(%class.anon.57* %4), !dbg !5446
  call void @_ZN4Node17monadic_operationERKS_PF22MonadicOperationResultRKdE(%class.Node* sret %0, %class.Node* dereferenceable(16) %5, void (%struct.MonadicOperationResult*, double*)* %6), !dbg !5447
  ret void, !dbg !5449
}

; Function Attrs: inlinehint nounwind
define internal void (%struct.MonadicOperationResult*, double*)* @"_ZZ4sqrtRK4NodeENK4$_18cvPF22MonadicOperationResultRKdEEv"(%class.anon.57*) #6 align 2 !dbg !5450 !xidane.fname !5169 !xidane.function_declaration_type !5170 !xidane.function_declaration_filename !4965 {
  %2 = alloca %class.anon.57*, align 4
  store %class.anon.57* %0, %class.anon.57** %2, align 4
  call void @llvm.dbg.declare(metadata %class.anon.57** %2, metadata !5457, metadata !4203), !dbg !5459
  %3 = load %class.anon.57*, %class.anon.57** %2, align 4
  ret void (%struct.MonadicOperationResult*, double*)* @"_ZZ4sqrtRK4NodeEN4$_188__invokeERKd", !dbg !5460
}

define void @_Z3absRK4Node(%class.Node* noalias sret, %class.Node* dereferenceable(16)) #0 !dbg !5461 !xidane.fname !5462 !xidane.function_declaration_type !5154 !xidane.function_declaration_filename !4201 {
  %3 = alloca %class.Node*, align 4
  %4 = alloca %class.anon.59, align 1
  store %class.Node* %1, %class.Node** %3, align 4
  call void @llvm.dbg.declare(metadata %class.Node** %3, metadata !5463, metadata !4203), !dbg !5464
  %5 = load %class.Node*, %class.Node** %3, align 4, !dbg !5465
  %6 = call void (%struct.MonadicOperationResult*, double*)* @"_ZZ3absRK4NodeENK4$_19cvPF22MonadicOperationResultRKdEEv"(%class.anon.59* %4), !dbg !5466
  call void @_ZN4Node17monadic_operationERKS_PF22MonadicOperationResultRKdE(%class.Node* sret %0, %class.Node* dereferenceable(16) %5, void (%struct.MonadicOperationResult*, double*)* %6), !dbg !5467
  ret void, !dbg !5469
}

; Function Attrs: inlinehint nounwind
define internal void (%struct.MonadicOperationResult*, double*)* @"_ZZ3absRK4NodeENK4$_19cvPF22MonadicOperationResultRKdEEv"(%class.anon.59*) #6 align 2 !dbg !5470 !xidane.fname !5169 !xidane.function_declaration_type !5170 !xidane.function_declaration_filename !4965 {
  %2 = alloca %class.anon.59*, align 4
  store %class.anon.59* %0, %class.anon.59** %2, align 4
  call void @llvm.dbg.declare(metadata %class.anon.59** %2, metadata !5477, metadata !4203), !dbg !5479
  %3 = load %class.anon.59*, %class.anon.59** %2, align 4
  ret void (%struct.MonadicOperationResult*, double*)* @"_ZZ3absRK4NodeEN4$_198__invokeERKd", !dbg !5480
}

define void @_Z3minRK4NodeS1_(%class.Node* noalias sret, %class.Node* dereferenceable(16), %class.Node* dereferenceable(16)) #0 !dbg !5481 !xidane.fname !5482 !xidane.function_declaration_type !4945 !xidane.function_declaration_filename !4201 {
  %4 = alloca %class.Node*, align 4
  %5 = alloca %class.Node*, align 4
  %6 = alloca %class.anon.61, align 1
  store %class.Node* %1, %class.Node** %4, align 4
  call void @llvm.dbg.declare(metadata %class.Node** %4, metadata !5483, metadata !4203), !dbg !5484
  store %class.Node* %2, %class.Node** %5, align 4
  call void @llvm.dbg.declare(metadata %class.Node** %5, metadata !5485, metadata !4203), !dbg !5486
  %7 = load %class.Node*, %class.Node** %4, align 4, !dbg !5487
  %8 = load %class.Node*, %class.Node** %5, align 4, !dbg !5488
  %9 = call void (%struct.DyadicOperationResult*, double*, double*)* @"_ZZ3minRK4NodeS1_ENK4$_20cvPF21DyadicOperationResultRKdS5_EEv"(%class.anon.61* %6), !dbg !5489
  call void @_ZN4Node16dyadic_operationERKS_S1_PF21DyadicOperationResultRKdS4_E(%class.Node* sret %0, %class.Node* dereferenceable(16) %7, %class.Node* dereferenceable(16) %8, void (%struct.DyadicOperationResult*, double*, double*)* %9), !dbg !5490
  ret void, !dbg !5492
}

; Function Attrs: inlinehint nounwind
define internal void (%struct.DyadicOperationResult*, double*, double*)* @"_ZZ3minRK4NodeS1_ENK4$_20cvPF21DyadicOperationResultRKdS5_EEv"(%class.anon.61*) #6 align 2 !dbg !5493 !xidane.fname !4963 !xidane.function_declaration_type !4964 !xidane.function_declaration_filename !4965 {
  %2 = alloca %class.anon.61*, align 4
  store %class.anon.61* %0, %class.anon.61** %2, align 4
  call void @llvm.dbg.declare(metadata %class.anon.61** %2, metadata !5500, metadata !4203), !dbg !5502
  %3 = load %class.anon.61*, %class.anon.61** %2, align 4
  ret void (%struct.DyadicOperationResult*, double*, double*)* @"_ZZ3minRK4NodeS1_EN4$_208__invokeERKdS4_", !dbg !5503
}

define void @_Z3maxRK4NodeS1_(%class.Node* noalias sret, %class.Node* dereferenceable(16), %class.Node* dereferenceable(16)) #0 !dbg !5504 !xidane.fname !5505 !xidane.function_declaration_type !4945 !xidane.function_declaration_filename !4201 {
  %4 = alloca %class.Node*, align 4
  %5 = alloca %class.Node*, align 4
  %6 = alloca %class.anon.63, align 1
  store %class.Node* %1, %class.Node** %4, align 4
  call void @llvm.dbg.declare(metadata %class.Node** %4, metadata !5506, metadata !4203), !dbg !5507
  store %class.Node* %2, %class.Node** %5, align 4
  call void @llvm.dbg.declare(metadata %class.Node** %5, metadata !5508, metadata !4203), !dbg !5509
  %7 = load %class.Node*, %class.Node** %4, align 4, !dbg !5510
  %8 = load %class.Node*, %class.Node** %5, align 4, !dbg !5511
  %9 = call void (%struct.DyadicOperationResult*, double*, double*)* @"_ZZ3maxRK4NodeS1_ENK4$_21cvPF21DyadicOperationResultRKdS5_EEv"(%class.anon.63* %6), !dbg !5512
  call void @_ZN4Node16dyadic_operationERKS_S1_PF21DyadicOperationResultRKdS4_E(%class.Node* sret %0, %class.Node* dereferenceable(16) %7, %class.Node* dereferenceable(16) %8, void (%struct.DyadicOperationResult*, double*, double*)* %9), !dbg !5513
  ret void, !dbg !5515
}

; Function Attrs: inlinehint nounwind
define internal void (%struct.DyadicOperationResult*, double*, double*)* @"_ZZ3maxRK4NodeS1_ENK4$_21cvPF21DyadicOperationResultRKdS5_EEv"(%class.anon.63*) #6 align 2 !dbg !5516 !xidane.fname !4963 !xidane.function_declaration_type !4964 !xidane.function_declaration_filename !4965 {
  %2 = alloca %class.anon.63*, align 4
  store %class.anon.63* %0, %class.anon.63** %2, align 4
  call void @llvm.dbg.declare(metadata %class.anon.63** %2, metadata !5523, metadata !4203), !dbg !5525
  %3 = load %class.anon.63*, %class.anon.63** %2, align 4
  ret void (%struct.DyadicOperationResult*, double*, double*)* @"_ZZ3maxRK4NodeS1_EN4$_218__invokeERKdS4_", !dbg !5526
}

define dereferenceable(140) %"class.std::basic_ostream"* @_ZlsRSoRK4Node(%"class.std::basic_ostream"* dereferenceable(140), %class.Node* dereferenceable(16)) #0 !dbg !5527 !xidane.fname !5535 !xidane.function_declaration_type !5536 !xidane.function_declaration_filename !4201 {
  %3 = alloca %"class.std::basic_ostream"*, align 4
  %4 = alloca %class.Node*, align 4
  store %"class.std::basic_ostream"* %0, %"class.std::basic_ostream"** %3, align 4
  call void @llvm.dbg.declare(metadata %"class.std::basic_ostream"** %3, metadata !5537, metadata !4203), !dbg !5538
  store %class.Node* %1, %class.Node** %4, align 4
  call void @llvm.dbg.declare(metadata %class.Node** %4, metadata !5539, metadata !4203), !dbg !5540
  %5 = load %"class.std::basic_ostream"*, %"class.std::basic_ostream"** %3, align 4, !dbg !5541
  %6 = load %class.Node*, %class.Node** %4, align 4, !dbg !5542
  %7 = getelementptr inbounds %class.Node, %class.Node* %6, i32 0, i32 0, !dbg !5543
  %8 = load double, double* %7, align 8, !dbg !5543
  %9 = call dereferenceable(140) %"class.std::basic_ostream"* @_ZNSolsEd(%"class.std::basic_ostream"* %5, double %8), !dbg !5544
  %10 = load %"class.std::basic_ostream"*, %"class.std::basic_ostream"** %3, align 4, !dbg !5545
  ret %"class.std::basic_ostream"* %10, !dbg !5546
}

declare !xidane.fname !5535 !xidane.function_declaration_type !5547 !xidane.function_declaration_filename !5548 dereferenceable(140) %"class.std::basic_ostream"* @_ZNSolsEd(%"class.std::basic_ostream"*, double) #1

; Function Attrs: nounwind
define linkonce_odr dereferenceable(8) double* @_ZSt7forwardIRdEOT_RNSt16remove_referenceIS1_E4typeE(double* dereferenceable(8)) #5 comdat !dbg !5549 !xidane.fname !5558 !xidane.function_declaration_type !5559 !xidane.function_declaration_filename !5560 {
  %2 = alloca double*, align 4
  store double* %0, double** %2, align 4
  call void @llvm.dbg.declare(metadata double** %2, metadata !5561, metadata !4203), !dbg !5562
  %3 = load double*, double** %2, align 4, !dbg !5563
  ret double* %3, !dbg !5564
}

; Function Attrs: nounwind
define linkonce_odr dereferenceable(4) i32* @_ZSt7forwardIRKlEOT_RNSt16remove_referenceIS2_E4typeE(i32* dereferenceable(4)) #5 comdat !dbg !5565 !xidane.fname !5558 !xidane.function_declaration_type !5573 !xidane.function_declaration_filename !5560 {
  %2 = alloca i32*, align 4
  store i32* %0, i32** %2, align 4
  call void @llvm.dbg.declare(metadata i32** %2, metadata !5574, metadata !4203), !dbg !5575
  %3 = load i32*, i32** %2, align 4, !dbg !5576
  ret i32* %3, !dbg !5577
}

; Function Attrs: nounwind
define linkonce_odr %"struct.std::pair"* @_ZNSt4pairIdlEC2IRdLb1EEEOT_RKl(%"struct.std::pair"* returned, double* dereferenceable(8), i32* dereferenceable(4)) unnamed_addr #5 comdat align 2 !dbg !5578 !xidane.fname !5584 !xidane.function_declaration_type !5585 !xidane.function_declaration_filename !4786 {
  %4 = alloca %"struct.std::pair"*, align 4
  %5 = alloca double*, align 4
  %6 = alloca i32*, align 4
  store %"struct.std::pair"* %0, %"struct.std::pair"** %4, align 4
  call void @llvm.dbg.declare(metadata %"struct.std::pair"** %4, metadata !5586, metadata !4203), !dbg !5587
  store double* %1, double** %5, align 4
  call void @llvm.dbg.declare(metadata double** %5, metadata !5588, metadata !4203), !dbg !5589
  store i32* %2, i32** %6, align 4
  call void @llvm.dbg.declare(metadata i32** %6, metadata !5590, metadata !4203), !dbg !5591
  %7 = load %"struct.std::pair"*, %"struct.std::pair"** %4, align 4
  %8 = getelementptr inbounds %"struct.std::pair", %"struct.std::pair"* %7, i32 0, i32 0, !dbg !5592
  %9 = load double*, double** %5, align 4, !dbg !5593
  %10 = call dereferenceable(8) double* @_ZSt7forwardIRdEOT_RNSt16remove_referenceIS1_E4typeE(double* dereferenceable(8) %9) #3, !dbg !5594
  %11 = load double, double* %10, align 8, !dbg !5594
  store double %11, double* %8, align 8, !dbg !5592
  %12 = getelementptr inbounds %"struct.std::pair", %"struct.std::pair"* %7, i32 0, i32 1, !dbg !5595
  %13 = load i32*, i32** %6, align 4, !dbg !5596
  %14 = load i32, i32* %13, align 4, !dbg !5596
  store i32 %14, i32* %12, align 8, !dbg !5595
  ret %"struct.std::pair"* %7, !dbg !5597
}

; Function Attrs: inlinehint
define internal void @"_ZZplRK4NodeS1_EN3$_08__invokeERKdS4_"(%struct.DyadicOperationResult* noalias sret, double* dereferenceable(8), double* dereferenceable(8)) #8 align 2 !dbg !5598 !xidane.fname !5600 !xidane.function_declaration_type !5601 !xidane.function_declaration_filename !4965 {
  %4 = alloca double*, align 4
  %5 = alloca double*, align 4
  store double* %1, double** %4, align 4
  call void @llvm.dbg.declare(metadata double** %4, metadata !5602, metadata !4203), !dbg !5603
  store double* %2, double** %5, align 4
  call void @llvm.dbg.declare(metadata double** %5, metadata !5604, metadata !4203), !dbg !5603
  %6 = load double*, double** %4, align 4, !dbg !5605
  %7 = load double*, double** %5, align 4, !dbg !5605
  call void @"_ZZplRK4NodeS1_ENK3$_0clERKdS4_"(%struct.DyadicOperationResult* sret %0, %class.anon* undef, double* dereferenceable(8) %6, double* dereferenceable(8) %7), !dbg !5605
  ret void, !dbg !5605
}

; Function Attrs: inlinehint
define internal void @"_ZZplRK4NodeS1_ENK3$_0clERKdS4_"(%struct.DyadicOperationResult* noalias sret, %class.anon*, double* dereferenceable(8), double* dereferenceable(8)) #8 align 2 !dbg !5606 !xidane.fname !5610 !xidane.function_declaration_type !5601 !xidane.function_declaration_filename !4965 {
  %5 = alloca %class.anon*, align 4
  %6 = alloca double*, align 4
  %7 = alloca double*, align 4
  store %class.anon* %1, %class.anon** %5, align 4
  call void @llvm.dbg.declare(metadata %class.anon** %5, metadata !5611, metadata !4203), !dbg !5612
  store double* %2, double** %6, align 4
  call void @llvm.dbg.declare(metadata double** %6, metadata !5613, metadata !4203), !dbg !5614
  store double* %3, double** %7, align 4
  call void @llvm.dbg.declare(metadata double** %7, metadata !5615, metadata !4203), !dbg !5616
  %8 = load %class.anon*, %class.anon** %5, align 4
  %9 = load double*, double** %6, align 4, !dbg !5617
  %10 = load double, double* %9, align 8, !dbg !5617
  %11 = load double*, double** %7, align 4, !dbg !5618
  %12 = load double, double* %11, align 8, !dbg !5618
  %13 = fadd double %10, %12, !dbg !5619
  %14 = call %struct.DyadicOperationResult* @_ZN21DyadicOperationResultC2Eddd(%struct.DyadicOperationResult* %0, double %13, double 1.000000e+00, double 1.000000e+00), !dbg !5620
  ret void, !dbg !5621
}

; Function Attrs: nounwind
define linkonce_odr %struct.DyadicOperationResult* @_ZN21DyadicOperationResultC2Eddd(%struct.DyadicOperationResult* returned, double, double, double) unnamed_addr #5 comdat align 2 !dbg !5622 !xidane.fname !5623 !xidane.function_declaration_type !5624 !xidane.function_declaration_filename !5625 {
  %5 = alloca %struct.DyadicOperationResult*, align 4
  %6 = alloca double, align 8
  %7 = alloca double, align 8
  %8 = alloca double, align 8
  store %struct.DyadicOperationResult* %0, %struct.DyadicOperationResult** %5, align 4
  call void @llvm.dbg.declare(metadata %struct.DyadicOperationResult** %5, metadata !5626, metadata !4203), !dbg !5628
  store double %1, double* %6, align 8
  call void @llvm.dbg.declare(metadata double* %6, metadata !5629, metadata !4203), !dbg !5630
  store double %2, double* %7, align 8
  call void @llvm.dbg.declare(metadata double* %7, metadata !5631, metadata !4203), !dbg !5632
  store double %3, double* %8, align 8
  call void @llvm.dbg.declare(metadata double* %8, metadata !5633, metadata !4203), !dbg !5634
  %9 = load %struct.DyadicOperationResult*, %struct.DyadicOperationResult** %5, align 4
  %10 = load double, double* %6, align 8, !dbg !5635
  %11 = getelementptr inbounds %struct.DyadicOperationResult, %struct.DyadicOperationResult* %9, i32 0, i32 0, !dbg !5637
  store double %10, double* %11, align 8, !dbg !5638
  %12 = load double, double* %7, align 8, !dbg !5639
  %13 = getelementptr inbounds %struct.DyadicOperationResult, %struct.DyadicOperationResult* %9, i32 0, i32 1, !dbg !5640
  store double %12, double* %13, align 8, !dbg !5641
  %14 = load double, double* %8, align 8, !dbg !5642
  %15 = getelementptr inbounds %struct.DyadicOperationResult, %struct.DyadicOperationResult* %9, i32 0, i32 2, !dbg !5643
  store double %14, double* %15, align 8, !dbg !5644
  ret %struct.DyadicOperationResult* %9, !dbg !5645
}

; Function Attrs: inlinehint
define internal void @"_ZZmiRK4NodeS1_EN3$_18__invokeERKdS4_"(%struct.DyadicOperationResult* noalias sret, double* dereferenceable(8), double* dereferenceable(8)) #8 align 2 !dbg !5646 !xidane.fname !5600 !xidane.function_declaration_type !5601 !xidane.function_declaration_filename !4965 {
  %4 = alloca double*, align 4
  %5 = alloca double*, align 4
  store double* %1, double** %4, align 4
  call void @llvm.dbg.declare(metadata double** %4, metadata !5648, metadata !4203), !dbg !5649
  store double* %2, double** %5, align 4
  call void @llvm.dbg.declare(metadata double** %5, metadata !5650, metadata !4203), !dbg !5649
  %6 = load double*, double** %4, align 4, !dbg !5651
  %7 = load double*, double** %5, align 4, !dbg !5651
  call void @"_ZZmiRK4NodeS1_ENK3$_1clERKdS4_"(%struct.DyadicOperationResult* sret %0, %class.anon.23* undef, double* dereferenceable(8) %6, double* dereferenceable(8) %7), !dbg !5651
  ret void, !dbg !5651
}

; Function Attrs: inlinehint
define internal void @"_ZZmiRK4NodeS1_ENK3$_1clERKdS4_"(%struct.DyadicOperationResult* noalias sret, %class.anon.23*, double* dereferenceable(8), double* dereferenceable(8)) #8 align 2 !dbg !5652 !xidane.fname !5610 !xidane.function_declaration_type !5601 !xidane.function_declaration_filename !4965 {
  %5 = alloca %class.anon.23*, align 4
  %6 = alloca double*, align 4
  %7 = alloca double*, align 4
  store %class.anon.23* %1, %class.anon.23** %5, align 4
  call void @llvm.dbg.declare(metadata %class.anon.23** %5, metadata !5656, metadata !4203), !dbg !5657
  store double* %2, double** %6, align 4
  call void @llvm.dbg.declare(metadata double** %6, metadata !5658, metadata !4203), !dbg !5659
  store double* %3, double** %7, align 4
  call void @llvm.dbg.declare(metadata double** %7, metadata !5660, metadata !4203), !dbg !5661
  %8 = load %class.anon.23*, %class.anon.23** %5, align 4
  %9 = load double*, double** %6, align 4, !dbg !5662
  %10 = load double, double* %9, align 8, !dbg !5662
  %11 = load double*, double** %7, align 4, !dbg !5663
  %12 = load double, double* %11, align 8, !dbg !5663
  %13 = fsub double %10, %12, !dbg !5664
  %14 = call %struct.DyadicOperationResult* @_ZN21DyadicOperationResultC2Eddd(%struct.DyadicOperationResult* %0, double %13, double 1.000000e+00, double -1.000000e+00), !dbg !5665
  ret void, !dbg !5666
}

; Function Attrs: inlinehint
define internal void @"_ZZmlRK4NodeS1_EN3$_28__invokeERKdS4_"(%struct.DyadicOperationResult* noalias sret, double* dereferenceable(8), double* dereferenceable(8)) #8 align 2 !dbg !5667 !xidane.fname !5600 !xidane.function_declaration_type !5601 !xidane.function_declaration_filename !4965 {
  %4 = alloca double*, align 4
  %5 = alloca double*, align 4
  store double* %1, double** %4, align 4
  call void @llvm.dbg.declare(metadata double** %4, metadata !5669, metadata !4203), !dbg !5670
  store double* %2, double** %5, align 4
  call void @llvm.dbg.declare(metadata double** %5, metadata !5671, metadata !4203), !dbg !5670
  %6 = load double*, double** %4, align 4, !dbg !5672
  %7 = load double*, double** %5, align 4, !dbg !5672
  call void @"_ZZmlRK4NodeS1_ENK3$_2clERKdS4_"(%struct.DyadicOperationResult* sret %0, %class.anon.25* undef, double* dereferenceable(8) %6, double* dereferenceable(8) %7), !dbg !5672
  ret void, !dbg !5672
}

; Function Attrs: inlinehint
define internal void @"_ZZmlRK4NodeS1_ENK3$_2clERKdS4_"(%struct.DyadicOperationResult* noalias sret, %class.anon.25*, double* dereferenceable(8), double* dereferenceable(8)) #8 align 2 !dbg !5673 !xidane.fname !5610 !xidane.function_declaration_type !5601 !xidane.function_declaration_filename !4965 {
  %5 = alloca %class.anon.25*, align 4
  %6 = alloca double*, align 4
  %7 = alloca double*, align 4
  store %class.anon.25* %1, %class.anon.25** %5, align 4
  call void @llvm.dbg.declare(metadata %class.anon.25** %5, metadata !5677, metadata !4203), !dbg !5678
  store double* %2, double** %6, align 4
  call void @llvm.dbg.declare(metadata double** %6, metadata !5679, metadata !4203), !dbg !5680
  store double* %3, double** %7, align 4
  call void @llvm.dbg.declare(metadata double** %7, metadata !5681, metadata !4203), !dbg !5682
  %8 = load %class.anon.25*, %class.anon.25** %5, align 4
  %9 = load double*, double** %6, align 4, !dbg !5683
  %10 = load double, double* %9, align 8, !dbg !5683
  %11 = load double*, double** %7, align 4, !dbg !5684
  %12 = load double, double* %11, align 8, !dbg !5684
  %13 = fmul double %10, %12, !dbg !5685
  %14 = load double*, double** %7, align 4, !dbg !5686
  %15 = load double, double* %14, align 8, !dbg !5686
  %16 = load double*, double** %6, align 4, !dbg !5687
  %17 = load double, double* %16, align 8, !dbg !5687
  %18 = call %struct.DyadicOperationResult* @_ZN21DyadicOperationResultC2Eddd(%struct.DyadicOperationResult* %0, double %13, double %15, double %17), !dbg !5688
  ret void, !dbg !5689
}

; Function Attrs: inlinehint
define internal void @"_ZZdvRK4NodeS1_EN3$_38__invokeERKdS4_"(%struct.DyadicOperationResult* noalias sret, double* dereferenceable(8), double* dereferenceable(8)) #8 align 2 !dbg !5690 !xidane.fname !5600 !xidane.function_declaration_type !5601 !xidane.function_declaration_filename !4965 {
  %4 = alloca double*, align 4
  %5 = alloca double*, align 4
  store double* %1, double** %4, align 4
  call void @llvm.dbg.declare(metadata double** %4, metadata !5692, metadata !4203), !dbg !5693
  store double* %2, double** %5, align 4
  call void @llvm.dbg.declare(metadata double** %5, metadata !5694, metadata !4203), !dbg !5693
  %6 = load double*, double** %4, align 4, !dbg !5695
  %7 = load double*, double** %5, align 4, !dbg !5695
  call void @"_ZZdvRK4NodeS1_ENK3$_3clERKdS4_"(%struct.DyadicOperationResult* sret %0, %class.anon.27* undef, double* dereferenceable(8) %6, double* dereferenceable(8) %7), !dbg !5695
  ret void, !dbg !5695
}

; Function Attrs: inlinehint
define internal void @"_ZZdvRK4NodeS1_ENK3$_3clERKdS4_"(%struct.DyadicOperationResult* noalias sret, %class.anon.27*, double* dereferenceable(8), double* dereferenceable(8)) #8 align 2 !dbg !5696 !xidane.fname !5610 !xidane.function_declaration_type !5601 !xidane.function_declaration_filename !4965 {
  %5 = alloca %class.anon.27*, align 4
  %6 = alloca double*, align 4
  %7 = alloca double*, align 4
  store %class.anon.27* %1, %class.anon.27** %5, align 4
  call void @llvm.dbg.declare(metadata %class.anon.27** %5, metadata !5700, metadata !4203), !dbg !5701
  store double* %2, double** %6, align 4
  call void @llvm.dbg.declare(metadata double** %6, metadata !5702, metadata !4203), !dbg !5703
  store double* %3, double** %7, align 4
  call void @llvm.dbg.declare(metadata double** %7, metadata !5704, metadata !4203), !dbg !5705
  %8 = load %class.anon.27*, %class.anon.27** %5, align 4
  %9 = load double*, double** %6, align 4, !dbg !5706
  %10 = load double, double* %9, align 8, !dbg !5706
  %11 = load double*, double** %7, align 4, !dbg !5707
  %12 = load double, double* %11, align 8, !dbg !5707
  %13 = fdiv double %10, %12, !dbg !5708
  %14 = load double*, double** %7, align 4, !dbg !5709
  %15 = load double, double* %14, align 8, !dbg !5709
  %16 = fdiv double 1.000000e+00, %15, !dbg !5710
  %17 = load double*, double** %6, align 4, !dbg !5711
  %18 = load double, double* %17, align 8, !dbg !5711
  %19 = fmul double -1.000000e+00, %18, !dbg !5712
  %20 = load double*, double** %7, align 4, !dbg !5713
  %21 = load double, double* %20, align 8, !dbg !5713
  %22 = load double*, double** %7, align 4, !dbg !5714
  %23 = load double, double* %22, align 8, !dbg !5714
  %24 = fmul double %21, %23, !dbg !5715
  %25 = fdiv double %19, %24, !dbg !5716
  %26 = call %struct.DyadicOperationResult* @_ZN21DyadicOperationResultC2Eddd(%struct.DyadicOperationResult* %0, double %13, double %16, double %25), !dbg !5717
  ret void, !dbg !5718
}

; Function Attrs: inlinehint
define internal void @"_ZZ3sinRK4NodeEN3$_48__invokeERKd"(%struct.MonadicOperationResult* noalias sret, double* dereferenceable(8)) #8 align 2 !dbg !5719 !xidane.fname !5600 !xidane.function_declaration_type !5721 !xidane.function_declaration_filename !4965 {
  %3 = alloca double*, align 4
  store double* %1, double** %3, align 4
  call void @llvm.dbg.declare(metadata double** %3, metadata !5722, metadata !4203), !dbg !5723
  %4 = load double*, double** %3, align 4, !dbg !5724
  call void @"_ZZ3sinRK4NodeENK3$_4clERKd"(%struct.MonadicOperationResult* sret %0, %class.anon.29* undef, double* dereferenceable(8) %4), !dbg !5724
  ret void, !dbg !5724
}

; Function Attrs: inlinehint
define internal void @"_ZZ3sinRK4NodeENK3$_4clERKd"(%struct.MonadicOperationResult* noalias sret, %class.anon.29*, double* dereferenceable(8)) #8 align 2 !dbg !5725 !xidane.fname !5610 !xidane.function_declaration_type !5721 !xidane.function_declaration_filename !4965 {
  %4 = alloca %class.anon.29*, align 4
  %5 = alloca double*, align 4
  store %class.anon.29* %1, %class.anon.29** %4, align 4
  call void @llvm.dbg.declare(metadata %class.anon.29** %4, metadata !5729, metadata !4203), !dbg !5730
  store double* %2, double** %5, align 4
  call void @llvm.dbg.declare(metadata double** %5, metadata !5731, metadata !4203), !dbg !5732
  %6 = load %class.anon.29*, %class.anon.29** %4, align 4
  %7 = load double*, double** %5, align 4, !dbg !5733
  %8 = load double, double* %7, align 8, !dbg !5733
  %9 = call double @sin(double %8) #3, !dbg !5734
  %10 = load double*, double** %5, align 4, !dbg !5735
  %11 = load double, double* %10, align 8, !dbg !5735
  %12 = call double @cos(double %11) #3, !dbg !5736
  %13 = call %struct.MonadicOperationResult* @_ZN22MonadicOperationResultC2Edd(%struct.MonadicOperationResult* %0, double %9, double %12), !dbg !5738
  ret void, !dbg !5740
}

; Function Attrs: nounwind
declare !xidane.fname !5153 !xidane.function_declaration_type !5741 !xidane.function_declaration_filename !5742 !xidane.ExternC !5743 double @sin(double) #2

; Function Attrs: nounwind
declare !xidane.fname !5176 !xidane.function_declaration_type !5741 !xidane.function_declaration_filename !5742 !xidane.ExternC !5743 double @cos(double) #2

; Function Attrs: nounwind
define linkonce_odr %struct.MonadicOperationResult* @_ZN22MonadicOperationResultC2Edd(%struct.MonadicOperationResult* returned, double, double) unnamed_addr #5 comdat align 2 !dbg !5744 !xidane.fname !5745 !xidane.function_declaration_type !5746 !xidane.function_declaration_filename !5747 {
  %4 = alloca %struct.MonadicOperationResult*, align 4
  %5 = alloca double, align 8
  %6 = alloca double, align 8
  store %struct.MonadicOperationResult* %0, %struct.MonadicOperationResult** %4, align 4
  call void @llvm.dbg.declare(metadata %struct.MonadicOperationResult** %4, metadata !5748, metadata !4203), !dbg !5750
  store double %1, double* %5, align 8
  call void @llvm.dbg.declare(metadata double* %5, metadata !5751, metadata !4203), !dbg !5752
  store double %2, double* %6, align 8
  call void @llvm.dbg.declare(metadata double* %6, metadata !5753, metadata !4203), !dbg !5754
  %7 = load %struct.MonadicOperationResult*, %struct.MonadicOperationResult** %4, align 4
  %8 = load double, double* %5, align 8, !dbg !5755
  %9 = getelementptr inbounds %struct.MonadicOperationResult, %struct.MonadicOperationResult* %7, i32 0, i32 0, !dbg !5757
  store double %8, double* %9, align 8, !dbg !5758
  %10 = load double, double* %6, align 8, !dbg !5759
  %11 = getelementptr inbounds %struct.MonadicOperationResult, %struct.MonadicOperationResult* %7, i32 0, i32 1, !dbg !5760
  store double %10, double* %11, align 8, !dbg !5761
  ret %struct.MonadicOperationResult* %7, !dbg !5762
}

; Function Attrs: inlinehint
define internal void @"_ZZ3cosRK4NodeEN3$_58__invokeERKd"(%struct.MonadicOperationResult* noalias sret, double* dereferenceable(8)) #8 align 2 !dbg !5763 !xidane.fname !5600 !xidane.function_declaration_type !5721 !xidane.function_declaration_filename !4965 {
  %3 = alloca double*, align 4
  store double* %1, double** %3, align 4
  call void @llvm.dbg.declare(metadata double** %3, metadata !5765, metadata !4203), !dbg !5766
  %4 = load double*, double** %3, align 4, !dbg !5767
  call void @"_ZZ3cosRK4NodeENK3$_5clERKd"(%struct.MonadicOperationResult* sret %0, %class.anon.31* undef, double* dereferenceable(8) %4), !dbg !5767
  ret void, !dbg !5767
}

; Function Attrs: inlinehint
define internal void @"_ZZ3cosRK4NodeENK3$_5clERKd"(%struct.MonadicOperationResult* noalias sret, %class.anon.31*, double* dereferenceable(8)) #8 align 2 !dbg !5768 !xidane.fname !5610 !xidane.function_declaration_type !5721 !xidane.function_declaration_filename !4965 {
  %4 = alloca %class.anon.31*, align 4
  %5 = alloca double*, align 4
  store %class.anon.31* %1, %class.anon.31** %4, align 4
  call void @llvm.dbg.declare(metadata %class.anon.31** %4, metadata !5772, metadata !4203), !dbg !5773
  store double* %2, double** %5, align 4
  call void @llvm.dbg.declare(metadata double** %5, metadata !5774, metadata !4203), !dbg !5775
  %6 = load %class.anon.31*, %class.anon.31** %4, align 4
  %7 = load double*, double** %5, align 4, !dbg !5776
  %8 = load double, double* %7, align 8, !dbg !5776
  %9 = call double @cos(double %8) #3, !dbg !5777
  %10 = load double*, double** %5, align 4, !dbg !5778
  %11 = load double, double* %10, align 8, !dbg !5778
  %12 = call double @sin(double %11) #3, !dbg !5779
  %13 = fmul double -1.000000e+00, %12, !dbg !5781
  %14 = call %struct.MonadicOperationResult* @_ZN22MonadicOperationResultC2Edd(%struct.MonadicOperationResult* %0, double %9, double %13), !dbg !5782
  ret void, !dbg !5784
}

; Function Attrs: inlinehint
define internal void @"_ZZ3tanRK4NodeEN3$_68__invokeERKd"(%struct.MonadicOperationResult* noalias sret, double* dereferenceable(8)) #8 align 2 !dbg !5785 !xidane.fname !5600 !xidane.function_declaration_type !5721 !xidane.function_declaration_filename !4965 {
  %3 = alloca double*, align 4
  store double* %1, double** %3, align 4
  call void @llvm.dbg.declare(metadata double** %3, metadata !5787, metadata !4203), !dbg !5788
  %4 = load double*, double** %3, align 4, !dbg !5789
  call void @"_ZZ3tanRK4NodeENK3$_6clERKd"(%struct.MonadicOperationResult* sret %0, %class.anon.33* undef, double* dereferenceable(8) %4), !dbg !5789
  ret void, !dbg !5789
}

; Function Attrs: inlinehint
define internal void @"_ZZ3tanRK4NodeENK3$_6clERKd"(%struct.MonadicOperationResult* noalias sret, %class.anon.33*, double* dereferenceable(8)) #8 align 2 !dbg !5790 !xidane.fname !5610 !xidane.function_declaration_type !5721 !xidane.function_declaration_filename !4965 {
  %4 = alloca %class.anon.33*, align 4
  %5 = alloca double*, align 4
  store %class.anon.33* %1, %class.anon.33** %4, align 4
  call void @llvm.dbg.declare(metadata %class.anon.33** %4, metadata !5794, metadata !4203), !dbg !5795
  store double* %2, double** %5, align 4
  call void @llvm.dbg.declare(metadata double** %5, metadata !5796, metadata !4203), !dbg !5797
  %6 = load %class.anon.33*, %class.anon.33** %4, align 4
  %7 = load double*, double** %5, align 4, !dbg !5798
  %8 = load double, double* %7, align 8, !dbg !5798
  %9 = call double @tan(double %8) #3, !dbg !5799
  %10 = load double*, double** %5, align 4, !dbg !5800
  %11 = load double, double* %10, align 8, !dbg !5800
  %12 = call double @cos(double %11) #3, !dbg !5801
  %13 = call double @pow(double %12, double 2.000000e+00) #3, !dbg !5803
  %14 = fdiv double 1.000000e+00, %13, !dbg !5805
  %15 = call %struct.MonadicOperationResult* @_ZN22MonadicOperationResultC2Edd(%struct.MonadicOperationResult* %0, double %9, double %14), !dbg !5806
  ret void, !dbg !5808
}

; Function Attrs: nounwind
declare !xidane.fname !5196 !xidane.function_declaration_type !5741 !xidane.function_declaration_filename !5742 !xidane.ExternC !5743 double @tan(double) #2

; Function Attrs: nounwind
declare !xidane.fname !5399 !xidane.function_declaration_type !5809 !xidane.function_declaration_filename !5742 !xidane.ExternC !5743 double @pow(double, double) #2

; Function Attrs: inlinehint
define internal void @"_ZZ4sinhRK4NodeEN3$_78__invokeERKd"(%struct.MonadicOperationResult* noalias sret, double* dereferenceable(8)) #8 align 2 !dbg !5810 !xidane.fname !5600 !xidane.function_declaration_type !5721 !xidane.function_declaration_filename !4965 {
  %3 = alloca double*, align 4
  store double* %1, double** %3, align 4
  call void @llvm.dbg.declare(metadata double** %3, metadata !5812, metadata !4203), !dbg !5813
  %4 = load double*, double** %3, align 4, !dbg !5814
  call void @"_ZZ4sinhRK4NodeENK3$_7clERKd"(%struct.MonadicOperationResult* sret %0, %class.anon.35* undef, double* dereferenceable(8) %4), !dbg !5814
  ret void, !dbg !5814
}

; Function Attrs: inlinehint
define internal void @"_ZZ4sinhRK4NodeENK3$_7clERKd"(%struct.MonadicOperationResult* noalias sret, %class.anon.35*, double* dereferenceable(8)) #8 align 2 !dbg !5815 !xidane.fname !5610 !xidane.function_declaration_type !5721 !xidane.function_declaration_filename !4965 {
  %4 = alloca %class.anon.35*, align 4
  %5 = alloca double*, align 4
  store %class.anon.35* %1, %class.anon.35** %4, align 4
  call void @llvm.dbg.declare(metadata %class.anon.35** %4, metadata !5819, metadata !4203), !dbg !5820
  store double* %2, double** %5, align 4
  call void @llvm.dbg.declare(metadata double** %5, metadata !5821, metadata !4203), !dbg !5822
  %6 = load %class.anon.35*, %class.anon.35** %4, align 4
  %7 = load double*, double** %5, align 4, !dbg !5823
  %8 = load double, double* %7, align 8, !dbg !5823
  %9 = call double @sinh(double %8) #3, !dbg !5824
  %10 = load double*, double** %5, align 4, !dbg !5825
  %11 = load double, double* %10, align 8, !dbg !5825
  %12 = call double @cosh(double %11) #3, !dbg !5826
  %13 = call %struct.MonadicOperationResult* @_ZN22MonadicOperationResultC2Edd(%struct.MonadicOperationResult* %0, double %9, double %12), !dbg !5828
  ret void, !dbg !5830
}

; Function Attrs: nounwind
declare !xidane.fname !5216 !xidane.function_declaration_type !5741 !xidane.function_declaration_filename !5742 !xidane.ExternC !5743 double @sinh(double) #2

; Function Attrs: nounwind
declare !xidane.fname !5236 !xidane.function_declaration_type !5741 !xidane.function_declaration_filename !5742 !xidane.ExternC !5743 double @cosh(double) #2

; Function Attrs: inlinehint
define internal void @"_ZZ4coshRK4NodeEN3$_88__invokeERKd"(%struct.MonadicOperationResult* noalias sret, double* dereferenceable(8)) #8 align 2 !dbg !5831 !xidane.fname !5600 !xidane.function_declaration_type !5721 !xidane.function_declaration_filename !4965 {
  %3 = alloca double*, align 4
  store double* %1, double** %3, align 4
  call void @llvm.dbg.declare(metadata double** %3, metadata !5833, metadata !4203), !dbg !5834
  %4 = load double*, double** %3, align 4, !dbg !5835
  call void @"_ZZ4coshRK4NodeENK3$_8clERKd"(%struct.MonadicOperationResult* sret %0, %class.anon.37* undef, double* dereferenceable(8) %4), !dbg !5835
  ret void, !dbg !5835
}

; Function Attrs: inlinehint
define internal void @"_ZZ4coshRK4NodeENK3$_8clERKd"(%struct.MonadicOperationResult* noalias sret, %class.anon.37*, double* dereferenceable(8)) #8 align 2 !dbg !5836 !xidane.fname !5610 !xidane.function_declaration_type !5721 !xidane.function_declaration_filename !4965 {
  %4 = alloca %class.anon.37*, align 4
  %5 = alloca double*, align 4
  store %class.anon.37* %1, %class.anon.37** %4, align 4
  call void @llvm.dbg.declare(metadata %class.anon.37** %4, metadata !5840, metadata !4203), !dbg !5841
  store double* %2, double** %5, align 4
  call void @llvm.dbg.declare(metadata double** %5, metadata !5842, metadata !4203), !dbg !5843
  %6 = load %class.anon.37*, %class.anon.37** %4, align 4
  %7 = load double*, double** %5, align 4, !dbg !5844
  %8 = load double, double* %7, align 8, !dbg !5844
  %9 = call double @cosh(double %8) #3, !dbg !5845
  %10 = load double*, double** %5, align 4, !dbg !5846
  %11 = load double, double* %10, align 8, !dbg !5846
  %12 = call double @sinh(double %11) #3, !dbg !5847
  %13 = call %struct.MonadicOperationResult* @_ZN22MonadicOperationResultC2Edd(%struct.MonadicOperationResult* %0, double %9, double %12), !dbg !5849
  ret void, !dbg !5851
}

; Function Attrs: inlinehint
define internal void @"_ZZ4asinRK4NodeEN3$_98__invokeERKd"(%struct.MonadicOperationResult* noalias sret, double* dereferenceable(8)) #8 align 2 !dbg !5852 !xidane.fname !5600 !xidane.function_declaration_type !5721 !xidane.function_declaration_filename !4965 {
  %3 = alloca double*, align 4
  store double* %1, double** %3, align 4
  call void @llvm.dbg.declare(metadata double** %3, metadata !5854, metadata !4203), !dbg !5855
  %4 = load double*, double** %3, align 4, !dbg !5856
  call void @"_ZZ4asinRK4NodeENK3$_9clERKd"(%struct.MonadicOperationResult* sret %0, %class.anon.39* undef, double* dereferenceable(8) %4), !dbg !5856
  ret void, !dbg !5856
}

; Function Attrs: inlinehint
define internal void @"_ZZ4asinRK4NodeENK3$_9clERKd"(%struct.MonadicOperationResult* noalias sret, %class.anon.39*, double* dereferenceable(8)) #8 align 2 !dbg !5857 !xidane.fname !5610 !xidane.function_declaration_type !5721 !xidane.function_declaration_filename !4965 {
  %4 = alloca %class.anon.39*, align 4
  %5 = alloca double*, align 4
  store %class.anon.39* %1, %class.anon.39** %4, align 4
  call void @llvm.dbg.declare(metadata %class.anon.39** %4, metadata !5861, metadata !4203), !dbg !5862
  store double* %2, double** %5, align 4
  call void @llvm.dbg.declare(metadata double** %5, metadata !5863, metadata !4203), !dbg !5864
  %6 = load %class.anon.39*, %class.anon.39** %4, align 4
  %7 = load double*, double** %5, align 4, !dbg !5865
  %8 = load double, double* %7, align 8, !dbg !5865
  %9 = call double @asin(double %8) #3, !dbg !5866
  %10 = load double*, double** %5, align 4, !dbg !5867
  %11 = load double, double* %10, align 8, !dbg !5867
  %12 = load double*, double** %5, align 4, !dbg !5868
  %13 = load double, double* %12, align 8, !dbg !5868
  %14 = fmul double %11, %13, !dbg !5869
  %15 = fsub double 1.000000e+00, %14, !dbg !5870
  %16 = call double @sqrt(double %15) #3, !dbg !5871
  %17 = fdiv double 1.000000e+00, %16, !dbg !5873
  %18 = call %struct.MonadicOperationResult* @_ZN22MonadicOperationResultC2Edd(%struct.MonadicOperationResult* %0, double %9, double %17), !dbg !5874
  ret void, !dbg !5876
}

; Function Attrs: nounwind
declare !xidane.fname !5256 !xidane.function_declaration_type !5741 !xidane.function_declaration_filename !5742 !xidane.ExternC !5743 double @asin(double) #2

; Function Attrs: nounwind
declare !xidane.fname !5442 !xidane.function_declaration_type !5741 !xidane.function_declaration_filename !5742 !xidane.ExternC !5743 double @sqrt(double) #2

; Function Attrs: inlinehint
define internal void @"_ZZ4acosRK4NodeEN4$_108__invokeERKd"(%struct.MonadicOperationResult* noalias sret, double* dereferenceable(8)) #8 align 2 !dbg !5877 !xidane.fname !5600 !xidane.function_declaration_type !5721 !xidane.function_declaration_filename !4965 {
  %3 = alloca double*, align 4
  store double* %1, double** %3, align 4
  call void @llvm.dbg.declare(metadata double** %3, metadata !5879, metadata !4203), !dbg !5880
  %4 = load double*, double** %3, align 4, !dbg !5881
  call void @"_ZZ4acosRK4NodeENK4$_10clERKd"(%struct.MonadicOperationResult* sret %0, %class.anon.41* undef, double* dereferenceable(8) %4), !dbg !5881
  ret void, !dbg !5881
}

; Function Attrs: inlinehint
define internal void @"_ZZ4acosRK4NodeENK4$_10clERKd"(%struct.MonadicOperationResult* noalias sret, %class.anon.41*, double* dereferenceable(8)) #8 align 2 !dbg !5882 !xidane.fname !5610 !xidane.function_declaration_type !5721 !xidane.function_declaration_filename !4965 {
  %4 = alloca %class.anon.41*, align 4
  %5 = alloca double*, align 4
  store %class.anon.41* %1, %class.anon.41** %4, align 4
  call void @llvm.dbg.declare(metadata %class.anon.41** %4, metadata !5886, metadata !4203), !dbg !5887
  store double* %2, double** %5, align 4
  call void @llvm.dbg.declare(metadata double** %5, metadata !5888, metadata !4203), !dbg !5889
  %6 = load %class.anon.41*, %class.anon.41** %4, align 4
  %7 = load double*, double** %5, align 4, !dbg !5890
  %8 = load double, double* %7, align 8, !dbg !5890
  %9 = call double @acos(double %8) #3, !dbg !5891
  %10 = load double*, double** %5, align 4, !dbg !5892
  %11 = load double, double* %10, align 8, !dbg !5892
  %12 = load double*, double** %5, align 4, !dbg !5893
  %13 = load double, double* %12, align 8, !dbg !5893
  %14 = fmul double %11, %13, !dbg !5894
  %15 = fsub double 1.000000e+00, %14, !dbg !5895
  %16 = call double @sqrt(double %15) #3, !dbg !5896
  %17 = fdiv double -1.000000e+00, %16, !dbg !5898
  %18 = call %struct.MonadicOperationResult* @_ZN22MonadicOperationResultC2Edd(%struct.MonadicOperationResult* %0, double %9, double %17), !dbg !5899
  ret void, !dbg !5901
}

; Function Attrs: nounwind
declare !xidane.fname !5276 !xidane.function_declaration_type !5741 !xidane.function_declaration_filename !5742 !xidane.ExternC !5743 double @acos(double) #2

; Function Attrs: inlinehint
define internal void @"_ZZ4atanRK4NodeEN4$_118__invokeERKd"(%struct.MonadicOperationResult* noalias sret, double* dereferenceable(8)) #8 align 2 !dbg !5902 !xidane.fname !5600 !xidane.function_declaration_type !5721 !xidane.function_declaration_filename !4965 {
  %3 = alloca double*, align 4
  store double* %1, double** %3, align 4
  call void @llvm.dbg.declare(metadata double** %3, metadata !5904, metadata !4203), !dbg !5905
  %4 = load double*, double** %3, align 4, !dbg !5906
  call void @"_ZZ4atanRK4NodeENK4$_11clERKd"(%struct.MonadicOperationResult* sret %0, %class.anon.43* undef, double* dereferenceable(8) %4), !dbg !5906
  ret void, !dbg !5906
}

; Function Attrs: inlinehint
define internal void @"_ZZ4atanRK4NodeENK4$_11clERKd"(%struct.MonadicOperationResult* noalias sret, %class.anon.43*, double* dereferenceable(8)) #8 align 2 !dbg !5907 !xidane.fname !5610 !xidane.function_declaration_type !5721 !xidane.function_declaration_filename !4965 {
  %4 = alloca %class.anon.43*, align 4
  %5 = alloca double*, align 4
  store %class.anon.43* %1, %class.anon.43** %4, align 4
  call void @llvm.dbg.declare(metadata %class.anon.43** %4, metadata !5911, metadata !4203), !dbg !5912
  store double* %2, double** %5, align 4
  call void @llvm.dbg.declare(metadata double** %5, metadata !5913, metadata !4203), !dbg !5914
  %6 = load %class.anon.43*, %class.anon.43** %4, align 4
  %7 = load double*, double** %5, align 4, !dbg !5915
  %8 = load double, double* %7, align 8, !dbg !5915
  %9 = call double @atan(double %8) #3, !dbg !5916
  %10 = load double*, double** %5, align 4, !dbg !5917
  %11 = load double, double* %10, align 8, !dbg !5917
  %12 = load double*, double** %5, align 4, !dbg !5918
  %13 = load double, double* %12, align 8, !dbg !5918
  %14 = fmul double %11, %13, !dbg !5919
  %15 = fadd double 1.000000e+00, %14, !dbg !5920
  %16 = fdiv double 1.000000e+00, %15, !dbg !5921
  %17 = call %struct.MonadicOperationResult* @_ZN22MonadicOperationResultC2Edd(%struct.MonadicOperationResult* %0, double %9, double %16), !dbg !5922
  ret void, !dbg !5924
}

; Function Attrs: nounwind
declare !xidane.fname !5296 !xidane.function_declaration_type !5741 !xidane.function_declaration_filename !5742 !xidane.ExternC !5743 double @atan(double) #2

; Function Attrs: inlinehint
define internal void @"_ZZ4tanhRK4NodeEN4$_128__invokeERKd"(%struct.MonadicOperationResult* noalias sret, double* dereferenceable(8)) #8 align 2 !dbg !5925 !xidane.fname !5600 !xidane.function_declaration_type !5721 !xidane.function_declaration_filename !4965 {
  %3 = alloca double*, align 4
  store double* %1, double** %3, align 4
  call void @llvm.dbg.declare(metadata double** %3, metadata !5927, metadata !4203), !dbg !5928
  %4 = load double*, double** %3, align 4, !dbg !5929
  call void @"_ZZ4tanhRK4NodeENK4$_12clERKd"(%struct.MonadicOperationResult* sret %0, %class.anon.45* undef, double* dereferenceable(8) %4), !dbg !5929
  ret void, !dbg !5929
}

; Function Attrs: inlinehint
define internal void @"_ZZ4tanhRK4NodeENK4$_12clERKd"(%struct.MonadicOperationResult* noalias sret, %class.anon.45*, double* dereferenceable(8)) #8 align 2 !dbg !5930 !xidane.fname !5610 !xidane.function_declaration_type !5721 !xidane.function_declaration_filename !4965 {
  %4 = alloca %class.anon.45*, align 4
  %5 = alloca double*, align 4
  store %class.anon.45* %1, %class.anon.45** %4, align 4
  call void @llvm.dbg.declare(metadata %class.anon.45** %4, metadata !5934, metadata !4203), !dbg !5935
  store double* %2, double** %5, align 4
  call void @llvm.dbg.declare(metadata double** %5, metadata !5936, metadata !4203), !dbg !5937
  %6 = load %class.anon.45*, %class.anon.45** %4, align 4
  %7 = load double*, double** %5, align 4, !dbg !5938
  %8 = load double, double* %7, align 8, !dbg !5938
  %9 = call double @tanh(double %8) #3, !dbg !5939
  %10 = load double*, double** %5, align 4, !dbg !5940
  %11 = load double, double* %10, align 8, !dbg !5940
  %12 = call double @tanh(double %11) #3, !dbg !5941
  %13 = call double @pow(double %12, double 2.000000e+00) #3, !dbg !5943
  %14 = fsub double 1.000000e+00, %13, !dbg !5945
  %15 = call %struct.MonadicOperationResult* @_ZN22MonadicOperationResultC2Edd(%struct.MonadicOperationResult* %0, double %9, double %14), !dbg !5946
  ret void, !dbg !5948
}

; Function Attrs: nounwind
declare !xidane.fname !5316 !xidane.function_declaration_type !5741 !xidane.function_declaration_filename !5742 !xidane.ExternC !5743 double @tanh(double) #2

; Function Attrs: inlinehint
define internal void @"_ZZ3logRK4NodeS1_EN4$_138__invokeERKdS4_"(%struct.DyadicOperationResult* noalias sret, double* dereferenceable(8), double* dereferenceable(8)) #8 align 2 !dbg !5949 !xidane.fname !5600 !xidane.function_declaration_type !5601 !xidane.function_declaration_filename !4965 {
  %4 = alloca double*, align 4
  %5 = alloca double*, align 4
  store double* %1, double** %4, align 4
  call void @llvm.dbg.declare(metadata double** %4, metadata !5951, metadata !4203), !dbg !5952
  store double* %2, double** %5, align 4
  call void @llvm.dbg.declare(metadata double** %5, metadata !5953, metadata !4203), !dbg !5952
  %6 = load double*, double** %4, align 4, !dbg !5954
  %7 = load double*, double** %5, align 4, !dbg !5954
  call void @"_ZZ3logRK4NodeS1_ENK4$_13clERKdS4_"(%struct.DyadicOperationResult* sret %0, %class.anon.47* undef, double* dereferenceable(8) %6, double* dereferenceable(8) %7), !dbg !5954
  ret void, !dbg !5954
}

; Function Attrs: inlinehint
define internal void @"_ZZ3logRK4NodeS1_ENK4$_13clERKdS4_"(%struct.DyadicOperationResult* noalias sret, %class.anon.47*, double* dereferenceable(8), double* dereferenceable(8)) #8 align 2 !dbg !5955 !xidane.fname !5610 !xidane.function_declaration_type !5601 !xidane.function_declaration_filename !4965 {
  %5 = alloca %class.anon.47*, align 4
  %6 = alloca double*, align 4
  %7 = alloca double*, align 4
  store %class.anon.47* %1, %class.anon.47** %5, align 4
  call void @llvm.dbg.declare(metadata %class.anon.47** %5, metadata !5959, metadata !4203), !dbg !5960
  store double* %2, double** %6, align 4
  call void @llvm.dbg.declare(metadata double** %6, metadata !5961, metadata !4203), !dbg !5962
  store double* %3, double** %7, align 4
  call void @llvm.dbg.declare(metadata double** %7, metadata !5963, metadata !4203), !dbg !5964
  %8 = load %class.anon.47*, %class.anon.47** %5, align 4
  %9 = load double*, double** %6, align 4, !dbg !5965
  %10 = load double, double* %9, align 8, !dbg !5965
  %11 = call double @log(double %10) #3, !dbg !5966
  %12 = load double*, double** %7, align 4, !dbg !5967
  %13 = load double, double* %12, align 8, !dbg !5967
  %14 = call double @log(double %13) #3, !dbg !5968
  %15 = fdiv double %11, %14, !dbg !5970
  %16 = load double*, double** %6, align 4, !dbg !5971
  %17 = load double, double* %16, align 8, !dbg !5971
  %18 = load double*, double** %7, align 4, !dbg !5972
  %19 = load double, double* %18, align 8, !dbg !5972
  %20 = call double @log(double %19) #3, !dbg !5973
  %21 = fmul double %17, %20, !dbg !5975
  %22 = fdiv double 1.000000e+00, %21, !dbg !5976
  %23 = load double*, double** %6, align 4, !dbg !5977
  %24 = load double, double* %23, align 8, !dbg !5977
  %25 = call double @log(double %24) #3, !dbg !5978
  %26 = fmul double -1.000000e+00, %25, !dbg !5980
  %27 = load double*, double** %7, align 4, !dbg !5981
  %28 = load double, double* %27, align 8, !dbg !5981
  %29 = load double*, double** %7, align 4, !dbg !5982
  %30 = load double, double* %29, align 8, !dbg !5982
  %31 = call double @log(double %30) #3, !dbg !5983
  %32 = fmul double %28, %31, !dbg !5985
  %33 = fdiv double %26, %32, !dbg !5986
  %34 = call %struct.DyadicOperationResult* @_ZN21DyadicOperationResultC2Eddd(%struct.DyadicOperationResult* %0, double %15, double %22, double %33), !dbg !5987
  ret void, !dbg !5989
}

; Function Attrs: nounwind
declare !xidane.fname !5336 !xidane.function_declaration_type !5741 !xidane.function_declaration_filename !5742 !xidane.ExternC !5743 double @log(double) #2

; Function Attrs: inlinehint
define internal void @"_ZZ5log10RK4NodeEN4$_148__invokeERKd"(%struct.MonadicOperationResult* noalias sret, double* dereferenceable(8)) #8 align 2 !dbg !5990 !xidane.fname !5600 !xidane.function_declaration_type !5721 !xidane.function_declaration_filename !4965 {
  %3 = alloca double*, align 4
  store double* %1, double** %3, align 4
  call void @llvm.dbg.declare(metadata double** %3, metadata !5992, metadata !4203), !dbg !5993
  %4 = load double*, double** %3, align 4, !dbg !5994
  call void @"_ZZ5log10RK4NodeENK4$_14clERKd"(%struct.MonadicOperationResult* sret %0, %class.anon.49* undef, double* dereferenceable(8) %4), !dbg !5994
  ret void, !dbg !5994
}

; Function Attrs: inlinehint
define internal void @"_ZZ5log10RK4NodeENK4$_14clERKd"(%struct.MonadicOperationResult* noalias sret, %class.anon.49*, double* dereferenceable(8)) #8 align 2 !dbg !5995 !xidane.fname !5610 !xidane.function_declaration_type !5721 !xidane.function_declaration_filename !4965 {
  %4 = alloca %class.anon.49*, align 4
  %5 = alloca double*, align 4
  store %class.anon.49* %1, %class.anon.49** %4, align 4
  call void @llvm.dbg.declare(metadata %class.anon.49** %4, metadata !5999, metadata !4203), !dbg !6000
  store double* %2, double** %5, align 4
  call void @llvm.dbg.declare(metadata double** %5, metadata !6001, metadata !4203), !dbg !6002
  %6 = load %class.anon.49*, %class.anon.49** %4, align 4
  %7 = load double*, double** %5, align 4, !dbg !6003
  %8 = load double, double* %7, align 8, !dbg !6003
  %9 = call double @log(double %8) #3, !dbg !6004
  %10 = call double @log(double 1.000000e+01) #3, !dbg !6005
  %11 = fdiv double %9, %10, !dbg !6007
  %12 = load double*, double** %5, align 4, !dbg !6008
  %13 = load double, double* %12, align 8, !dbg !6008
  %14 = call double @log(double 1.000000e+01) #3, !dbg !6009
  %15 = fmul double %13, %14, !dbg !6011
  %16 = fdiv double 1.000000e+00, %15, !dbg !6012
  %17 = call %struct.MonadicOperationResult* @_ZN22MonadicOperationResultC2Edd(%struct.MonadicOperationResult* %0, double %11, double %16), !dbg !6013
  ret void, !dbg !6015
}

; Function Attrs: inlinehint
define internal void @"_ZZ2lnRK4NodeEN4$_158__invokeERKd"(%struct.MonadicOperationResult* noalias sret, double* dereferenceable(8)) #8 align 2 !dbg !6016 !xidane.fname !5600 !xidane.function_declaration_type !5721 !xidane.function_declaration_filename !4965 {
  %3 = alloca double*, align 4
  store double* %1, double** %3, align 4
  call void @llvm.dbg.declare(metadata double** %3, metadata !6018, metadata !4203), !dbg !6019
  %4 = load double*, double** %3, align 4, !dbg !6020
  call void @"_ZZ2lnRK4NodeENK4$_15clERKd"(%struct.MonadicOperationResult* sret %0, %class.anon.51* undef, double* dereferenceable(8) %4), !dbg !6020
  ret void, !dbg !6020
}

; Function Attrs: inlinehint
define internal void @"_ZZ2lnRK4NodeENK4$_15clERKd"(%struct.MonadicOperationResult* noalias sret, %class.anon.51*, double* dereferenceable(8)) #8 align 2 !dbg !6021 !xidane.fname !5610 !xidane.function_declaration_type !5721 !xidane.function_declaration_filename !4965 {
  %4 = alloca %class.anon.51*, align 4
  %5 = alloca double*, align 4
  store %class.anon.51* %1, %class.anon.51** %4, align 4
  call void @llvm.dbg.declare(metadata %class.anon.51** %4, metadata !6025, metadata !4203), !dbg !6026
  store double* %2, double** %5, align 4
  call void @llvm.dbg.declare(metadata double** %5, metadata !6027, metadata !4203), !dbg !6028
  %6 = load %class.anon.51*, %class.anon.51** %4, align 4
  %7 = load double*, double** %5, align 4, !dbg !6029
  %8 = load double, double* %7, align 8, !dbg !6029
  %9 = call double @log(double %8) #3, !dbg !6030
  %10 = load double*, double** %5, align 4, !dbg !6031
  %11 = load double, double* %10, align 8, !dbg !6031
  %12 = call double @log(double %11) #3, !dbg !6032
  %13 = fdiv double 1.000000e+00, %12, !dbg !6034
  %14 = call %struct.MonadicOperationResult* @_ZN22MonadicOperationResultC2Edd(%struct.MonadicOperationResult* %0, double %9, double %13), !dbg !6035
  ret void, !dbg !6037
}

; Function Attrs: inlinehint
define internal void @"_ZZ3powRK4NodeS1_EN4$_168__invokeERKdS4_"(%struct.DyadicOperationResult* noalias sret, double* dereferenceable(8), double* dereferenceable(8)) #8 align 2 !dbg !6038 !xidane.fname !5600 !xidane.function_declaration_type !5601 !xidane.function_declaration_filename !4965 {
  %4 = alloca double*, align 4
  %5 = alloca double*, align 4
  store double* %1, double** %4, align 4
  call void @llvm.dbg.declare(metadata double** %4, metadata !6040, metadata !4203), !dbg !6041
  store double* %2, double** %5, align 4
  call void @llvm.dbg.declare(metadata double** %5, metadata !6042, metadata !4203), !dbg !6041
  %6 = load double*, double** %4, align 4, !dbg !6043
  %7 = load double*, double** %5, align 4, !dbg !6043
  call void @"_ZZ3powRK4NodeS1_ENK4$_16clERKdS4_"(%struct.DyadicOperationResult* sret %0, %class.anon.53* undef, double* dereferenceable(8) %6, double* dereferenceable(8) %7), !dbg !6043
  ret void, !dbg !6043
}

; Function Attrs: inlinehint
define internal void @"_ZZ3powRK4NodeS1_ENK4$_16clERKdS4_"(%struct.DyadicOperationResult* noalias sret, %class.anon.53*, double* dereferenceable(8), double* dereferenceable(8)) #8 align 2 !dbg !6044 !xidane.fname !5610 !xidane.function_declaration_type !5601 !xidane.function_declaration_filename !4965 {
  %5 = alloca %class.anon.53*, align 4
  %6 = alloca double*, align 4
  %7 = alloca double*, align 4
  store %class.anon.53* %1, %class.anon.53** %5, align 4
  call void @llvm.dbg.declare(metadata %class.anon.53** %5, metadata !6048, metadata !4203), !dbg !6049
  store double* %2, double** %6, align 4
  call void @llvm.dbg.declare(metadata double** %6, metadata !6050, metadata !4203), !dbg !6051
  store double* %3, double** %7, align 4
  call void @llvm.dbg.declare(metadata double** %7, metadata !6052, metadata !4203), !dbg !6053
  %8 = load %class.anon.53*, %class.anon.53** %5, align 4
  %9 = load double*, double** %6, align 4, !dbg !6054
  %10 = load double, double* %9, align 8, !dbg !6054
  %11 = fcmp ole double %10, 0.000000e+00, !dbg !6056
  br i1 %11, label %12, label %28, !dbg !6057

; <label>:12:                                     ; preds = %4
  %13 = load double*, double** %6, align 4, !dbg !6058
  %14 = load double, double* %13, align 8, !dbg !6058
  %15 = load double*, double** %7, align 4, !dbg !6060
  %16 = load double, double* %15, align 8, !dbg !6060
  %17 = call double @pow(double %14, double %16) #3, !dbg !6061
  %18 = load double*, double** %7, align 4, !dbg !6062
  %19 = load double, double* %18, align 8, !dbg !6062
  %20 = load double*, double** %6, align 4, !dbg !6063
  %21 = load double, double* %20, align 8, !dbg !6063
  %22 = load double*, double** %7, align 4, !dbg !6064
  %23 = load double, double* %22, align 8, !dbg !6064
  %24 = fsub double %23, 1.000000e+00, !dbg !6065
  %25 = call double @pow(double %21, double %24) #3, !dbg !6066
  %26 = fmul double %19, %25, !dbg !6068
  %27 = call %struct.DyadicOperationResult* @_ZN21DyadicOperationResultC2Eddd(%struct.DyadicOperationResult* %0, double %17, double %26, double 0.000000e+00), !dbg !6069
  br label %53, !dbg !6071

; <label>:28:                                     ; preds = %4
  %29 = load double*, double** %6, align 4, !dbg !6072
  %30 = load double, double* %29, align 8, !dbg !6072
  %31 = load double*, double** %7, align 4, !dbg !6073
  %32 = load double, double* %31, align 8, !dbg !6073
  %33 = call double @pow(double %30, double %32) #3, !dbg !6074
  %34 = load double*, double** %7, align 4, !dbg !6075
  %35 = load double, double* %34, align 8, !dbg !6075
  %36 = load double*, double** %6, align 4, !dbg !6076
  %37 = load double, double* %36, align 8, !dbg !6076
  %38 = load double*, double** %7, align 4, !dbg !6077
  %39 = load double, double* %38, align 8, !dbg !6077
  %40 = fsub double %39, 1.000000e+00, !dbg !6078
  %41 = call double @pow(double %37, double %40) #3, !dbg !6079
  %42 = fmul double %35, %41, !dbg !6081
  %43 = load double*, double** %6, align 4, !dbg !6082
  %44 = load double, double* %43, align 8, !dbg !6082
  %45 = call double @log(double %44) #3, !dbg !6083
  %46 = load double*, double** %6, align 4, !dbg !6085
  %47 = load double, double* %46, align 8, !dbg !6085
  %48 = load double*, double** %7, align 4, !dbg !6086
  %49 = load double, double* %48, align 8, !dbg !6086
  %50 = call double @pow(double %47, double %49) #3, !dbg !6087
  %51 = fmul double %45, %50, !dbg !6089
  %52 = call %struct.DyadicOperationResult* @_ZN21DyadicOperationResultC2Eddd(%struct.DyadicOperationResult* %0, double %33, double %42, double %51), !dbg !6090
  br label %53, !dbg !6092

; <label>:53:                                     ; preds = %28, %12
  ret void, !dbg !6093
}

; Function Attrs: inlinehint
define internal void @"_ZZ3expRK4NodeEN4$_178__invokeERKd"(%struct.MonadicOperationResult* noalias sret, double* dereferenceable(8)) #8 align 2 !dbg !6094 !xidane.fname !5600 !xidane.function_declaration_type !5721 !xidane.function_declaration_filename !4965 {
  %3 = alloca double*, align 4
  store double* %1, double** %3, align 4
  call void @llvm.dbg.declare(metadata double** %3, metadata !6096, metadata !4203), !dbg !6097
  %4 = load double*, double** %3, align 4, !dbg !6098
  call void @"_ZZ3expRK4NodeENK4$_17clERKd"(%struct.MonadicOperationResult* sret %0, %class.anon.55* undef, double* dereferenceable(8) %4), !dbg !6098
  ret void, !dbg !6098
}

; Function Attrs: inlinehint
define internal void @"_ZZ3expRK4NodeENK4$_17clERKd"(%struct.MonadicOperationResult* noalias sret, %class.anon.55*, double* dereferenceable(8)) #8 align 2 !dbg !6099 !xidane.fname !5610 !xidane.function_declaration_type !5721 !xidane.function_declaration_filename !4965 {
  %4 = alloca %class.anon.55*, align 4
  %5 = alloca double*, align 4
  store %class.anon.55* %1, %class.anon.55** %4, align 4
  call void @llvm.dbg.declare(metadata %class.anon.55** %4, metadata !6103, metadata !4203), !dbg !6104
  store double* %2, double** %5, align 4
  call void @llvm.dbg.declare(metadata double** %5, metadata !6105, metadata !4203), !dbg !6106
  %6 = load %class.anon.55*, %class.anon.55** %4, align 4
  %7 = load double*, double** %5, align 4, !dbg !6107
  %8 = load double, double* %7, align 8, !dbg !6107
  %9 = call double @exp(double %8) #3, !dbg !6108
  %10 = load double*, double** %5, align 4, !dbg !6109
  %11 = load double, double* %10, align 8, !dbg !6109
  %12 = call double @exp(double %11) #3, !dbg !6110
  %13 = call %struct.MonadicOperationResult* @_ZN22MonadicOperationResultC2Edd(%struct.MonadicOperationResult* %0, double %9, double %12), !dbg !6112
  ret void, !dbg !6114
}

; Function Attrs: nounwind
declare !xidane.fname !5422 !xidane.function_declaration_type !5741 !xidane.function_declaration_filename !5742 !xidane.ExternC !5743 double @exp(double) #2

; Function Attrs: inlinehint
define internal void @"_ZZ4sqrtRK4NodeEN4$_188__invokeERKd"(%struct.MonadicOperationResult* noalias sret, double* dereferenceable(8)) #8 align 2 !dbg !6115 !xidane.fname !5600 !xidane.function_declaration_type !5721 !xidane.function_declaration_filename !4965 {
  %3 = alloca double*, align 4
  store double* %1, double** %3, align 4
  call void @llvm.dbg.declare(metadata double** %3, metadata !6117, metadata !4203), !dbg !6118
  %4 = load double*, double** %3, align 4, !dbg !6119
  call void @"_ZZ4sqrtRK4NodeENK4$_18clERKd"(%struct.MonadicOperationResult* sret %0, %class.anon.57* undef, double* dereferenceable(8) %4), !dbg !6119
  ret void, !dbg !6119
}

; Function Attrs: inlinehint
define internal void @"_ZZ4sqrtRK4NodeENK4$_18clERKd"(%struct.MonadicOperationResult* noalias sret, %class.anon.57*, double* dereferenceable(8)) #8 align 2 !dbg !6120 !xidane.fname !5610 !xidane.function_declaration_type !5721 !xidane.function_declaration_filename !4965 {
  %4 = alloca %class.anon.57*, align 4
  %5 = alloca double*, align 4
  store %class.anon.57* %1, %class.anon.57** %4, align 4
  call void @llvm.dbg.declare(metadata %class.anon.57** %4, metadata !6124, metadata !4203), !dbg !6125
  store double* %2, double** %5, align 4
  call void @llvm.dbg.declare(metadata double** %5, metadata !6126, metadata !4203), !dbg !6127
  %6 = load %class.anon.57*, %class.anon.57** %4, align 4
  %7 = load double*, double** %5, align 4, !dbg !6128
  %8 = load double, double* %7, align 8, !dbg !6128
  %9 = call double @sqrt(double %8) #3, !dbg !6129
  %10 = load double*, double** %5, align 4, !dbg !6130
  %11 = load double, double* %10, align 8, !dbg !6130
  %12 = call double @sqrt(double %11) #3, !dbg !6131
  %13 = fmul double 2.000000e+00, %12, !dbg !6133
  %14 = fdiv double 1.000000e+00, %13, !dbg !6134
  %15 = call %struct.MonadicOperationResult* @_ZN22MonadicOperationResultC2Edd(%struct.MonadicOperationResult* %0, double %9, double %14), !dbg !6135
  ret void, !dbg !6137
}

; Function Attrs: inlinehint
define internal void @"_ZZ3absRK4NodeEN4$_198__invokeERKd"(%struct.MonadicOperationResult* noalias sret, double* dereferenceable(8)) #8 align 2 !dbg !6138 !xidane.fname !5600 !xidane.function_declaration_type !5721 !xidane.function_declaration_filename !4965 {
  %3 = alloca double*, align 4
  store double* %1, double** %3, align 4
  call void @llvm.dbg.declare(metadata double** %3, metadata !6140, metadata !4203), !dbg !6141
  %4 = load double*, double** %3, align 4, !dbg !6142
  call void @"_ZZ3absRK4NodeENK4$_19clERKd"(%struct.MonadicOperationResult* sret %0, %class.anon.59* undef, double* dereferenceable(8) %4), !dbg !6142
  ret void, !dbg !6142
}

; Function Attrs: inlinehint
define internal void @"_ZZ3absRK4NodeENK4$_19clERKd"(%struct.MonadicOperationResult* noalias sret, %class.anon.59*, double* dereferenceable(8)) #8 align 2 !dbg !6143 !xidane.fname !5610 !xidane.function_declaration_type !5721 !xidane.function_declaration_filename !4965 {
  %4 = alloca %class.anon.59*, align 4
  %5 = alloca double*, align 4
  %6 = alloca i32, align 4
  store %class.anon.59* %1, %class.anon.59** %4, align 4
  call void @llvm.dbg.declare(metadata %class.anon.59** %4, metadata !6147, metadata !4203), !dbg !6148
  store double* %2, double** %5, align 4
  call void @llvm.dbg.declare(metadata double** %5, metadata !6149, metadata !4203), !dbg !6150
  %7 = load %class.anon.59*, %class.anon.59** %4, align 4
  call void @llvm.dbg.declare(metadata i32* %6, metadata !6151, metadata !4203), !dbg !6152
  %8 = load double*, double** %5, align 4, !dbg !6153
  %9 = load double, double* %8, align 8, !dbg !6153
  %10 = fcmp oeq double %9, 0.000000e+00, !dbg !6154
  br i1 %10, label %11, label %12, !dbg !6153

; <label>:11:                                     ; preds = %3
  br label %21, !dbg !6155

; <label>:12:                                     ; preds = %3
  %13 = load double*, double** %5, align 4, !dbg !6157
  %14 = load double, double* %13, align 8, !dbg !6157
  %15 = load double*, double** %5, align 4, !dbg !6159
  %16 = load double, double* %15, align 8, !dbg !6159
  %17 = fptosi double %16 to i32, !dbg !6159
  %18 = call i32 @abs(i32 %17) #4, !dbg !6160
  %19 = sitofp i32 %18 to double, !dbg !6160
  %20 = fdiv double %14, %19, !dbg !6161
  br label %21, !dbg !6162

; <label>:21:                                     ; preds = %12, %11
  %22 = phi double [ 0.000000e+00, %11 ], [ %20, %12 ], !dbg !6163
  %23 = fptosi double %22 to i32, !dbg !6163
  store i32 %23, i32* %6, align 4, !dbg !6165
  %24 = load double*, double** %5, align 4, !dbg !6166
  %25 = load double, double* %24, align 8, !dbg !6166
  %26 = fptosi double %25 to i32, !dbg !6166
  %27 = call i32 @abs(i32 %26) #4, !dbg !6167
  %28 = sitofp i32 %27 to double, !dbg !6167
  %29 = load i32, i32* %6, align 4, !dbg !6168
  %30 = sitofp i32 %29 to double, !dbg !6168
  %31 = call %struct.MonadicOperationResult* @_ZN22MonadicOperationResultC2Edd(%struct.MonadicOperationResult* %0, double %28, double %30), !dbg !6169
  ret void, !dbg !6170
}

; Function Attrs: nounwind readnone
declare !xidane.fname !5462 !xidane.function_declaration_type !6171 !xidane.function_declaration_filename !6172 !xidane.ExternC !5743 i32 @abs(i32) #9

; Function Attrs: inlinehint
define internal void @"_ZZ3minRK4NodeS1_EN4$_208__invokeERKdS4_"(%struct.DyadicOperationResult* noalias sret, double* dereferenceable(8), double* dereferenceable(8)) #8 align 2 !dbg !6173 !xidane.fname !5600 !xidane.function_declaration_type !5601 !xidane.function_declaration_filename !4965 {
  %4 = alloca double*, align 4
  %5 = alloca double*, align 4
  store double* %1, double** %4, align 4
  call void @llvm.dbg.declare(metadata double** %4, metadata !6175, metadata !4203), !dbg !6176
  store double* %2, double** %5, align 4
  call void @llvm.dbg.declare(metadata double** %5, metadata !6177, metadata !4203), !dbg !6176
  %6 = load double*, double** %4, align 4, !dbg !6178
  %7 = load double*, double** %5, align 4, !dbg !6178
  call void @"_ZZ3minRK4NodeS1_ENK4$_20clERKdS4_"(%struct.DyadicOperationResult* sret %0, %class.anon.61* undef, double* dereferenceable(8) %6, double* dereferenceable(8) %7), !dbg !6178
  ret void, !dbg !6178
}

; Function Attrs: inlinehint
define internal void @"_ZZ3minRK4NodeS1_ENK4$_20clERKdS4_"(%struct.DyadicOperationResult* noalias sret, %class.anon.61*, double* dereferenceable(8), double* dereferenceable(8)) #8 align 2 !dbg !6179 !xidane.fname !5610 !xidane.function_declaration_type !5601 !xidane.function_declaration_filename !4965 {
  %5 = alloca %class.anon.61*, align 4
  %6 = alloca double*, align 4
  %7 = alloca double*, align 4
  store %class.anon.61* %1, %class.anon.61** %5, align 4
  call void @llvm.dbg.declare(metadata %class.anon.61** %5, metadata !6183, metadata !4203), !dbg !6184
  store double* %2, double** %6, align 4
  call void @llvm.dbg.declare(metadata double** %6, metadata !6185, metadata !4203), !dbg !6186
  store double* %3, double** %7, align 4
  call void @llvm.dbg.declare(metadata double** %7, metadata !6187, metadata !4203), !dbg !6188
  %8 = load %class.anon.61*, %class.anon.61** %5, align 4
  %9 = load double*, double** %6, align 4, !dbg !6189
  %10 = load double, double* %9, align 8, !dbg !6189
  %11 = load double*, double** %7, align 4, !dbg !6191
  %12 = load double, double* %11, align 8, !dbg !6191
  %13 = fcmp olt double %10, %12, !dbg !6192
  br i1 %13, label %14, label %18, !dbg !6193

; <label>:14:                                     ; preds = %4
  %15 = load double*, double** %6, align 4, !dbg !6194
  %16 = load double, double* %15, align 8, !dbg !6194
  %17 = call %struct.DyadicOperationResult* @_ZN21DyadicOperationResultC2Eddd(%struct.DyadicOperationResult* %0, double %16, double 1.000000e+00, double 0.000000e+00), !dbg !6196
  br label %32, !dbg !6197

; <label>:18:                                     ; preds = %4
  %19 = load double*, double** %6, align 4, !dbg !6198
  %20 = load double, double* %19, align 8, !dbg !6198
  %21 = load double*, double** %7, align 4, !dbg !6200
  %22 = load double, double* %21, align 8, !dbg !6200
  %23 = fcmp ogt double %20, %22, !dbg !6201
  br i1 %23, label %24, label %28, !dbg !6202

; <label>:24:                                     ; preds = %18
  %25 = load double*, double** %7, align 4, !dbg !6203
  %26 = load double, double* %25, align 8, !dbg !6203
  %27 = call %struct.DyadicOperationResult* @_ZN21DyadicOperationResultC2Eddd(%struct.DyadicOperationResult* %0, double %26, double 0.000000e+00, double 1.000000e+00), !dbg !6205
  br label %32, !dbg !6206

; <label>:28:                                     ; preds = %18
  %29 = load double*, double** %6, align 4, !dbg !6207
  %30 = load double, double* %29, align 8, !dbg !6207
  %31 = call %struct.DyadicOperationResult* @_ZN21DyadicOperationResultC2Eddd(%struct.DyadicOperationResult* %0, double %30, double 0.000000e+00, double 0.000000e+00), !dbg !6208
  br label %32, !dbg !6209

; <label>:32:                                     ; preds = %28, %24, %14
  ret void, !dbg !6210
}

; Function Attrs: inlinehint
define internal void @"_ZZ3maxRK4NodeS1_EN4$_218__invokeERKdS4_"(%struct.DyadicOperationResult* noalias sret, double* dereferenceable(8), double* dereferenceable(8)) #8 align 2 !dbg !6211 !xidane.fname !5600 !xidane.function_declaration_type !5601 !xidane.function_declaration_filename !4965 {
  %4 = alloca double*, align 4
  %5 = alloca double*, align 4
  store double* %1, double** %4, align 4
  call void @llvm.dbg.declare(metadata double** %4, metadata !6213, metadata !4203), !dbg !6214
  store double* %2, double** %5, align 4
  call void @llvm.dbg.declare(metadata double** %5, metadata !6215, metadata !4203), !dbg !6214
  %6 = load double*, double** %4, align 4, !dbg !6216
  %7 = load double*, double** %5, align 4, !dbg !6216
  call void @"_ZZ3maxRK4NodeS1_ENK4$_21clERKdS4_"(%struct.DyadicOperationResult* sret %0, %class.anon.63* undef, double* dereferenceable(8) %6, double* dereferenceable(8) %7), !dbg !6216
  ret void, !dbg !6216
}

; Function Attrs: inlinehint
define internal void @"_ZZ3maxRK4NodeS1_ENK4$_21clERKdS4_"(%struct.DyadicOperationResult* noalias sret, %class.anon.63*, double* dereferenceable(8), double* dereferenceable(8)) #8 align 2 !dbg !6217 !xidane.fname !5610 !xidane.function_declaration_type !5601 !xidane.function_declaration_filename !4965 {
  %5 = alloca %class.anon.63*, align 4
  %6 = alloca double*, align 4
  %7 = alloca double*, align 4
  store %class.anon.63* %1, %class.anon.63** %5, align 4
  call void @llvm.dbg.declare(metadata %class.anon.63** %5, metadata !6221, metadata !4203), !dbg !6222
  store double* %2, double** %6, align 4
  call void @llvm.dbg.declare(metadata double** %6, metadata !6223, metadata !4203), !dbg !6224
  store double* %3, double** %7, align 4
  call void @llvm.dbg.declare(metadata double** %7, metadata !6225, metadata !4203), !dbg !6226
  %8 = load %class.anon.63*, %class.anon.63** %5, align 4
  %9 = load double*, double** %6, align 4, !dbg !6227
  %10 = load double, double* %9, align 8, !dbg !6227
  %11 = load double*, double** %7, align 4, !dbg !6229
  %12 = load double, double* %11, align 8, !dbg !6229
  %13 = fcmp ogt double %10, %12, !dbg !6230
  br i1 %13, label %14, label %18, !dbg !6231

; <label>:14:                                     ; preds = %4
  %15 = load double*, double** %6, align 4, !dbg !6232
  %16 = load double, double* %15, align 8, !dbg !6232
  %17 = call %struct.DyadicOperationResult* @_ZN21DyadicOperationResultC2Eddd(%struct.DyadicOperationResult* %0, double %16, double 1.000000e+00, double 0.000000e+00), !dbg !6234
  br label %32, !dbg !6235

; <label>:18:                                     ; preds = %4
  %19 = load double*, double** %6, align 4, !dbg !6236
  %20 = load double, double* %19, align 8, !dbg !6236
  %21 = load double*, double** %7, align 4, !dbg !6238
  %22 = load double, double* %21, align 8, !dbg !6238
  %23 = fcmp olt double %20, %22, !dbg !6239
  br i1 %23, label %24, label %28, !dbg !6240

; <label>:24:                                     ; preds = %18
  %25 = load double*, double** %7, align 4, !dbg !6241
  %26 = load double, double* %25, align 8, !dbg !6241
  %27 = call %struct.DyadicOperationResult* @_ZN21DyadicOperationResultC2Eddd(%struct.DyadicOperationResult* %0, double %26, double 0.000000e+00, double 1.000000e+00), !dbg !6243
  br label %32, !dbg !6244

; <label>:28:                                     ; preds = %18
  %29 = load double*, double** %6, align 4, !dbg !6245
  %30 = load double, double* %29, align 8, !dbg !6245
  %31 = call %struct.DyadicOperationResult* @_ZN21DyadicOperationResultC2Eddd(%struct.DyadicOperationResult* %0, double %30, double 0.000000e+00, double 0.000000e+00), !dbg !6246
  br label %32, !dbg !6247

; <label>:32:                                     ; preds = %28, %24, %14
  ret void, !dbg !6248
}

; Function Attrs: inlinehint
define linkonce_odr void @_ZSt8_DestroyIPddEvT_S1_RSaIT0_E(double*, double*, %"class.std::allocator.10"* dereferenceable(1)) #8 comdat !dbg !6249 !xidane.fname !6255 !xidane.function_declaration_type !6256 !xidane.function_declaration_filename !6257 {
  %4 = alloca double*, align 4
  %5 = alloca double*, align 4
  %6 = alloca %"class.std::allocator.10"*, align 4
  store double* %0, double** %4, align 4
  call void @llvm.dbg.declare(metadata double** %4, metadata !6258, metadata !4203), !dbg !6259
  store double* %1, double** %5, align 4
  call void @llvm.dbg.declare(metadata double** %5, metadata !6260, metadata !4203), !dbg !6261
  store %"class.std::allocator.10"* %2, %"class.std::allocator.10"** %6, align 4
  call void @llvm.dbg.declare(metadata %"class.std::allocator.10"** %6, metadata !6262, metadata !4203), !dbg !6263
  %7 = load double*, double** %4, align 4, !dbg !6264
  %8 = load double*, double** %5, align 4, !dbg !6265
  call void @_ZSt8_DestroyIPdEvT_S1_(double* %7, double* %8), !dbg !6266
  ret void, !dbg !6267
}

; Function Attrs: nounwind
define linkonce_odr dereferenceable(1) %"class.std::allocator.10"* @_ZNSt12_Vector_baseIdSaIdEE19_M_get_Tp_allocatorEv(%"struct.std::_Vector_base.9"*) #5 comdat align 2 !dbg !6268 !xidane.fname !6269 !xidane.function_declaration_type !6270 !xidane.function_declaration_filename !4317 {
  %2 = alloca %"struct.std::_Vector_base.9"*, align 4
  store %"struct.std::_Vector_base.9"* %0, %"struct.std::_Vector_base.9"** %2, align 4
  call void @llvm.dbg.declare(metadata %"struct.std::_Vector_base.9"** %2, metadata !6271, metadata !4203), !dbg !6273
  %3 = load %"struct.std::_Vector_base.9"*, %"struct.std::_Vector_base.9"** %2, align 4
  %4 = getelementptr inbounds %"struct.std::_Vector_base.9", %"struct.std::_Vector_base.9"* %3, i32 0, i32 0, !dbg !6274
  %5 = bitcast %"struct.std::_Vector_base<double, std::allocator<double> >::_Vector_impl"* %4 to %"class.std::allocator.10"*, !dbg !6275
  ret %"class.std::allocator.10"* %5, !dbg !6276
}

; Function Attrs: nounwind
define linkonce_odr %"struct.std::_Vector_base.9"* @_ZNSt12_Vector_baseIdSaIdEED2Ev(%"struct.std::_Vector_base.9"* returned) unnamed_addr #5 comdat align 2 personality i8* bitcast (i32 (...)* @__gxx_personality_v0 to i8*) !dbg !6277 !xidane.fname !6278 !xidane.function_declaration_type !2492 !xidane.function_declaration_filename !4317 {
  %2 = alloca %"struct.std::_Vector_base.9"*, align 4
  %3 = alloca i8*
  %4 = alloca i32
  store %"struct.std::_Vector_base.9"* %0, %"struct.std::_Vector_base.9"** %2, align 4
  call void @llvm.dbg.declare(metadata %"struct.std::_Vector_base.9"** %2, metadata !6279, metadata !4203), !dbg !6280
  %5 = load %"struct.std::_Vector_base.9"*, %"struct.std::_Vector_base.9"** %2, align 4
  %6 = getelementptr inbounds %"struct.std::_Vector_base.9", %"struct.std::_Vector_base.9"* %5, i32 0, i32 0, !dbg !6281
  %7 = getelementptr inbounds %"struct.std::_Vector_base<double, std::allocator<double> >::_Vector_impl", %"struct.std::_Vector_base<double, std::allocator<double> >::_Vector_impl"* %6, i32 0, i32 0, !dbg !6283
  %8 = load double*, double** %7, align 4, !dbg !6283
  %9 = getelementptr inbounds %"struct.std::_Vector_base.9", %"struct.std::_Vector_base.9"* %5, i32 0, i32 0, !dbg !6284
  %10 = getelementptr inbounds %"struct.std::_Vector_base<double, std::allocator<double> >::_Vector_impl", %"struct.std::_Vector_base<double, std::allocator<double> >::_Vector_impl"* %9, i32 0, i32 2, !dbg !6285
  %11 = load double*, double** %10, align 4, !dbg !6285
  %12 = getelementptr inbounds %"struct.std::_Vector_base.9", %"struct.std::_Vector_base.9"* %5, i32 0, i32 0, !dbg !6286
  %13 = getelementptr inbounds %"struct.std::_Vector_base<double, std::allocator<double> >::_Vector_impl", %"struct.std::_Vector_base<double, std::allocator<double> >::_Vector_impl"* %12, i32 0, i32 0, !dbg !6287
  %14 = load double*, double** %13, align 4, !dbg !6287
  %15 = ptrtoint double* %11 to i32, !dbg !6288
  %16 = ptrtoint double* %14 to i32, !dbg !6288
  %17 = sub i32 %15, %16, !dbg !6288
  %18 = sdiv exact i32 %17, 8, !dbg !6288
  invoke void @_ZNSt12_Vector_baseIdSaIdEE13_M_deallocateEPdj(%"struct.std::_Vector_base.9"* %5, double* %8, i32 %18)
          to label %19 unwind label %22, !dbg !6289

; <label>:19:                                     ; preds = %1
  %20 = getelementptr inbounds %"struct.std::_Vector_base.9", %"struct.std::_Vector_base.9"* %5, i32 0, i32 0, !dbg !6290
  %21 = call %"struct.std::_Vector_base<double, std::allocator<double> >::_Vector_impl"* @_ZNSt12_Vector_baseIdSaIdEE12_Vector_implD2Ev(%"struct.std::_Vector_base<double, std::allocator<double> >::_Vector_impl"* %20) #3, !dbg !6290
  ret %"struct.std::_Vector_base.9"* %5, !dbg !6290

; <label>:22:                                     ; preds = %1
  %23 = landingpad { i8*, i32 }
          catch i8* null, !dbg !6292
  %24 = extractvalue { i8*, i32 } %23, 0, !dbg !6292
  store i8* %24, i8** %3, align 4, !dbg !6292
  %25 = extractvalue { i8*, i32 } %23, 1, !dbg !6292
  store i32 %25, i32* %4, align 4, !dbg !6292
  %26 = getelementptr inbounds %"struct.std::_Vector_base.9", %"struct.std::_Vector_base.9"* %5, i32 0, i32 0, !dbg !6292
  %27 = call %"struct.std::_Vector_base<double, std::allocator<double> >::_Vector_impl"* @_ZNSt12_Vector_baseIdSaIdEE12_Vector_implD2Ev(%"struct.std::_Vector_base<double, std::allocator<double> >::_Vector_impl"* %26) #3, !dbg !6292
  br label %28, !dbg !6292

; <label>:28:                                     ; preds = %22
  %29 = load i8*, i8** %3, align 4, !dbg !6294
  call void @__clang_call_terminate(i8* %29) #14, !dbg !6294
  unreachable, !dbg !6294
}

; Function Attrs: noinline noreturn nounwind
define linkonce_odr hidden void @__clang_call_terminate(i8*) #10 comdat {
  %2 = call i8* @__cxa_begin_catch(i8* %0) #3
  call void @_ZSt9terminatev() #14
  unreachable
}

declare i8* @__cxa_begin_catch(i8*)

declare void @_ZSt9terminatev()

; Function Attrs: inlinehint
define linkonce_odr void @_ZSt8_DestroyIPdEvT_S1_(double*, double*) #8 comdat !dbg !6296 !xidane.fname !6255 !xidane.function_declaration_type !6300 !xidane.function_declaration_filename !6257 {
  %3 = alloca double*, align 4
  %4 = alloca double*, align 4
  store double* %0, double** %3, align 4
  call void @llvm.dbg.declare(metadata double** %3, metadata !6301, metadata !4203), !dbg !6302
  store double* %1, double** %4, align 4
  call void @llvm.dbg.declare(metadata double** %4, metadata !6303, metadata !4203), !dbg !6304
  %5 = load double*, double** %3, align 4, !dbg !6305
  %6 = load double*, double** %4, align 4, !dbg !6306
  call void @_ZNSt12_Destroy_auxILb1EE9__destroyIPdEEvT_S3_(double* %5, double* %6), !dbg !6307
  ret void, !dbg !6308
}

; Function Attrs: nounwind
define linkonce_odr void @_ZNSt12_Destroy_auxILb1EE9__destroyIPdEEvT_S3_(double*, double*) #5 comdat align 2 !dbg !6309 !xidane.fname !6313 !xidane.function_declaration_type !6300 !xidane.function_declaration_filename !6257 {
  %3 = alloca double*, align 4
  %4 = alloca double*, align 4
  store double* %0, double** %3, align 4
  call void @llvm.dbg.declare(metadata double** %3, metadata !6314, metadata !4203), !dbg !6315
  store double* %1, double** %4, align 4
  call void @llvm.dbg.declare(metadata double** %4, metadata !6316, metadata !4203), !dbg !6317
  ret void, !dbg !6318
}

define linkonce_odr void @_ZNSt12_Vector_baseIdSaIdEE13_M_deallocateEPdj(%"struct.std::_Vector_base.9"*, double*, i32) #0 comdat align 2 !dbg !6319 !xidane.fname !6320 !xidane.function_declaration_type !6321 !xidane.function_declaration_filename !4317 {
  %4 = alloca %"struct.std::_Vector_base.9"*, align 4
  %5 = alloca double*, align 4
  %6 = alloca i32, align 4
  store %"struct.std::_Vector_base.9"* %0, %"struct.std::_Vector_base.9"** %4, align 4
  call void @llvm.dbg.declare(metadata %"struct.std::_Vector_base.9"** %4, metadata !6322, metadata !4203), !dbg !6323
  store double* %1, double** %5, align 4
  call void @llvm.dbg.declare(metadata double** %5, metadata !6324, metadata !4203), !dbg !6325
  store i32 %2, i32* %6, align 4
  call void @llvm.dbg.declare(metadata i32* %6, metadata !6326, metadata !4203), !dbg !6327
  %7 = load %"struct.std::_Vector_base.9"*, %"struct.std::_Vector_base.9"** %4, align 4
  %8 = load double*, double** %5, align 4, !dbg !6328
  %9 = icmp ne double* %8, null, !dbg !6328
  br i1 %9, label %10, label %15, !dbg !6330

; <label>:10:                                     ; preds = %3
  %11 = getelementptr inbounds %"struct.std::_Vector_base.9", %"struct.std::_Vector_base.9"* %7, i32 0, i32 0, !dbg !6331
  %12 = bitcast %"struct.std::_Vector_base<double, std::allocator<double> >::_Vector_impl"* %11 to %"class.std::allocator.10"*, !dbg !6331
  %13 = load double*, double** %5, align 4, !dbg !6332
  %14 = load i32, i32* %6, align 4, !dbg !6333
  call void @_ZNSt16allocator_traitsISaIdEE10deallocateERS0_Pdj(%"class.std::allocator.10"* dereferenceable(1) %12, double* %13, i32 %14), !dbg !6334
  br label %15, !dbg !6334

; <label>:15:                                     ; preds = %10, %3
  ret void, !dbg !6335
}

; Function Attrs: inlinehint nounwind
define linkonce_odr %"struct.std::_Vector_base<double, std::allocator<double> >::_Vector_impl"* @_ZNSt12_Vector_baseIdSaIdEE12_Vector_implD2Ev(%"struct.std::_Vector_base<double, std::allocator<double> >::_Vector_impl"* returned) unnamed_addr #6 comdat align 2 !dbg !6336 !xidane.fname !6338 !xidane.function_declaration_type !2492 !xidane.function_declaration_filename !4317 {
  %2 = alloca %"struct.std::_Vector_base<double, std::allocator<double> >::_Vector_impl"*, align 4
  store %"struct.std::_Vector_base<double, std::allocator<double> >::_Vector_impl"* %0, %"struct.std::_Vector_base<double, std::allocator<double> >::_Vector_impl"** %2, align 4
  call void @llvm.dbg.declare(metadata %"struct.std::_Vector_base<double, std::allocator<double> >::_Vector_impl"** %2, metadata !6339, metadata !4203), !dbg !6341
  %3 = load %"struct.std::_Vector_base<double, std::allocator<double> >::_Vector_impl"*, %"struct.std::_Vector_base<double, std::allocator<double> >::_Vector_impl"** %2, align 4
  %4 = bitcast %"struct.std::_Vector_base<double, std::allocator<double> >::_Vector_impl"* %3 to %"class.std::allocator.10"*, !dbg !6342
  %5 = call %"class.std::allocator.10"* @_ZNSaIdED2Ev(%"class.std::allocator.10"* %4) #3, !dbg !6342
  ret %"struct.std::_Vector_base<double, std::allocator<double> >::_Vector_impl"* %3, !dbg !6344
}

define linkonce_odr void @_ZNSt16allocator_traitsISaIdEE10deallocateERS0_Pdj(%"class.std::allocator.10"* dereferenceable(1), double*, i32) #0 comdat align 2 !dbg !6345 !xidane.fname !6346 !xidane.function_declaration_type !6347 !xidane.function_declaration_filename !6348 {
  %4 = alloca %"class.std::allocator.10"*, align 4
  %5 = alloca double*, align 4
  %6 = alloca i32, align 4
  store %"class.std::allocator.10"* %0, %"class.std::allocator.10"** %4, align 4
  call void @llvm.dbg.declare(metadata %"class.std::allocator.10"** %4, metadata !6349, metadata !4203), !dbg !6350
  store double* %1, double** %5, align 4
  call void @llvm.dbg.declare(metadata double** %5, metadata !6351, metadata !4203), !dbg !6352
  store i32 %2, i32* %6, align 4
  call void @llvm.dbg.declare(metadata i32* %6, metadata !6353, metadata !4203), !dbg !6354
  %7 = load %"class.std::allocator.10"*, %"class.std::allocator.10"** %4, align 4, !dbg !6355
  %8 = bitcast %"class.std::allocator.10"* %7 to %"class.__gnu_cxx::new_allocator.11"*, !dbg !6355
  %9 = load double*, double** %5, align 4, !dbg !6356
  %10 = load i32, i32* %6, align 4, !dbg !6357
  call void @_ZN9__gnu_cxx13new_allocatorIdE10deallocateEPdj(%"class.__gnu_cxx::new_allocator.11"* %8, double* %9, i32 %10), !dbg !6358
  ret void, !dbg !6359
}

; Function Attrs: nounwind
define linkonce_odr void @_ZN9__gnu_cxx13new_allocatorIdE10deallocateEPdj(%"class.__gnu_cxx::new_allocator.11"*, double*, i32) #5 comdat align 2 !dbg !6360 !xidane.fname !6346 !xidane.function_declaration_type !6361 !xidane.function_declaration_filename !6362 {
  %4 = alloca %"class.__gnu_cxx::new_allocator.11"*, align 4
  %5 = alloca double*, align 4
  %6 = alloca i32, align 4
  store %"class.__gnu_cxx::new_allocator.11"* %0, %"class.__gnu_cxx::new_allocator.11"** %4, align 4
  call void @llvm.dbg.declare(metadata %"class.__gnu_cxx::new_allocator.11"** %4, metadata !6363, metadata !4203), !dbg !6365
  store double* %1, double** %5, align 4
  call void @llvm.dbg.declare(metadata double** %5, metadata !6366, metadata !4203), !dbg !6367
  store i32 %2, i32* %6, align 4
  call void @llvm.dbg.declare(metadata i32* %6, metadata !6368, metadata !4203), !dbg !6369
  %7 = load %"class.__gnu_cxx::new_allocator.11"*, %"class.__gnu_cxx::new_allocator.11"** %4, align 4
  %8 = load double*, double** %5, align 4, !dbg !6370
  %9 = bitcast double* %8 to i8*, !dbg !6370
  call void @_ZdlPv(i8* %9) #3, !dbg !6371
  ret void, !dbg !6372
}

; Function Attrs: nobuiltin nounwind
declare !xidane.fname !6373 !xidane.function_declaration_type !6374 void @_ZdlPv(i8*) #11

; Function Attrs: nounwind
define linkonce_odr %"class.__gnu_cxx::new_allocator.11"* @_ZN9__gnu_cxx13new_allocatorIdED2Ev(%"class.__gnu_cxx::new_allocator.11"* returned) unnamed_addr #5 comdat align 2 !dbg !6375 !xidane.fname !6376 !xidane.function_declaration_type !2492 !xidane.function_declaration_filename !6362 {
  %2 = alloca %"class.__gnu_cxx::new_allocator.11"*, align 4
  store %"class.__gnu_cxx::new_allocator.11"* %0, %"class.__gnu_cxx::new_allocator.11"** %2, align 4
  call void @llvm.dbg.declare(metadata %"class.__gnu_cxx::new_allocator.11"** %2, metadata !6377, metadata !4203), !dbg !6378
  %3 = load %"class.__gnu_cxx::new_allocator.11"*, %"class.__gnu_cxx::new_allocator.11"** %2, align 4
  ret %"class.__gnu_cxx::new_allocator.11"* %3, !dbg !6379
}

; Function Attrs: inlinehint
define linkonce_odr void @_ZSt8_DestroyIPSt4pairIdlES1_EvT_S3_RSaIT0_E(%"struct.std::pair"*, %"struct.std::pair"*, %"class.std::allocator.0"* dereferenceable(1)) #8 comdat !dbg !6380 !xidane.fname !6255 !xidane.function_declaration_type !6385 !xidane.function_declaration_filename !6257 {
  %4 = alloca %"struct.std::pair"*, align 4
  %5 = alloca %"struct.std::pair"*, align 4
  %6 = alloca %"class.std::allocator.0"*, align 4
  store %"struct.std::pair"* %0, %"struct.std::pair"** %4, align 4
  call void @llvm.dbg.declare(metadata %"struct.std::pair"** %4, metadata !6386, metadata !4203), !dbg !6387
  store %"struct.std::pair"* %1, %"struct.std::pair"** %5, align 4
  call void @llvm.dbg.declare(metadata %"struct.std::pair"** %5, metadata !6388, metadata !4203), !dbg !6389
  store %"class.std::allocator.0"* %2, %"class.std::allocator.0"** %6, align 4
  call void @llvm.dbg.declare(metadata %"class.std::allocator.0"** %6, metadata !6390, metadata !4203), !dbg !6391
  %7 = load %"struct.std::pair"*, %"struct.std::pair"** %4, align 4, !dbg !6392
  %8 = load %"struct.std::pair"*, %"struct.std::pair"** %5, align 4, !dbg !6393
  call void @_ZSt8_DestroyIPSt4pairIdlEEvT_S3_(%"struct.std::pair"* %7, %"struct.std::pair"* %8), !dbg !6394
  ret void, !dbg !6395
}

; Function Attrs: nounwind
define linkonce_odr dereferenceable(1) %"class.std::allocator.0"* @_ZNSt12_Vector_baseISt4pairIdlESaIS1_EE19_M_get_Tp_allocatorEv(%"struct.std::_Vector_base"*) #5 comdat align 2 !dbg !6396 !xidane.fname !6269 !xidane.function_declaration_type !6270 !xidane.function_declaration_filename !4317 {
  %2 = alloca %"struct.std::_Vector_base"*, align 4
  store %"struct.std::_Vector_base"* %0, %"struct.std::_Vector_base"** %2, align 4
  call void @llvm.dbg.declare(metadata %"struct.std::_Vector_base"** %2, metadata !6397, metadata !4203), !dbg !6399
  %3 = load %"struct.std::_Vector_base"*, %"struct.std::_Vector_base"** %2, align 4
  %4 = getelementptr inbounds %"struct.std::_Vector_base", %"struct.std::_Vector_base"* %3, i32 0, i32 0, !dbg !6400
  %5 = bitcast %"struct.std::_Vector_base<std::pair<double, long>, std::allocator<std::pair<double, long> > >::_Vector_impl"* %4 to %"class.std::allocator.0"*, !dbg !6401
  ret %"class.std::allocator.0"* %5, !dbg !6402
}

; Function Attrs: nounwind
define linkonce_odr %"struct.std::_Vector_base"* @_ZNSt12_Vector_baseISt4pairIdlESaIS1_EED2Ev(%"struct.std::_Vector_base"* returned) unnamed_addr #5 comdat align 2 personality i8* bitcast (i32 (...)* @__gxx_personality_v0 to i8*) !dbg !6403 !xidane.fname !6278 !xidane.function_declaration_type !2492 !xidane.function_declaration_filename !4317 {
  %2 = alloca %"struct.std::_Vector_base"*, align 4
  %3 = alloca i8*
  %4 = alloca i32
  store %"struct.std::_Vector_base"* %0, %"struct.std::_Vector_base"** %2, align 4
  call void @llvm.dbg.declare(metadata %"struct.std::_Vector_base"** %2, metadata !6404, metadata !4203), !dbg !6405
  %5 = load %"struct.std::_Vector_base"*, %"struct.std::_Vector_base"** %2, align 4
  %6 = getelementptr inbounds %"struct.std::_Vector_base", %"struct.std::_Vector_base"* %5, i32 0, i32 0, !dbg !6406
  %7 = getelementptr inbounds %"struct.std::_Vector_base<std::pair<double, long>, std::allocator<std::pair<double, long> > >::_Vector_impl", %"struct.std::_Vector_base<std::pair<double, long>, std::allocator<std::pair<double, long> > >::_Vector_impl"* %6, i32 0, i32 0, !dbg !6408
  %8 = load %"struct.std::pair"*, %"struct.std::pair"** %7, align 4, !dbg !6408
  %9 = getelementptr inbounds %"struct.std::_Vector_base", %"struct.std::_Vector_base"* %5, i32 0, i32 0, !dbg !6409
  %10 = getelementptr inbounds %"struct.std::_Vector_base<std::pair<double, long>, std::allocator<std::pair<double, long> > >::_Vector_impl", %"struct.std::_Vector_base<std::pair<double, long>, std::allocator<std::pair<double, long> > >::_Vector_impl"* %9, i32 0, i32 2, !dbg !6410
  %11 = load %"struct.std::pair"*, %"struct.std::pair"** %10, align 4, !dbg !6410
  %12 = getelementptr inbounds %"struct.std::_Vector_base", %"struct.std::_Vector_base"* %5, i32 0, i32 0, !dbg !6411
  %13 = getelementptr inbounds %"struct.std::_Vector_base<std::pair<double, long>, std::allocator<std::pair<double, long> > >::_Vector_impl", %"struct.std::_Vector_base<std::pair<double, long>, std::allocator<std::pair<double, long> > >::_Vector_impl"* %12, i32 0, i32 0, !dbg !6412
  %14 = load %"struct.std::pair"*, %"struct.std::pair"** %13, align 4, !dbg !6412
  %15 = ptrtoint %"struct.std::pair"* %11 to i32, !dbg !6413
  %16 = ptrtoint %"struct.std::pair"* %14 to i32, !dbg !6413
  %17 = sub i32 %15, %16, !dbg !6413
  %18 = sdiv exact i32 %17, 16, !dbg !6413
  invoke void @_ZNSt12_Vector_baseISt4pairIdlESaIS1_EE13_M_deallocateEPS1_j(%"struct.std::_Vector_base"* %5, %"struct.std::pair"* %8, i32 %18)
          to label %19 unwind label %22, !dbg !6414

; <label>:19:                                     ; preds = %1
  %20 = getelementptr inbounds %"struct.std::_Vector_base", %"struct.std::_Vector_base"* %5, i32 0, i32 0, !dbg !6415
  %21 = call %"struct.std::_Vector_base<std::pair<double, long>, std::allocator<std::pair<double, long> > >::_Vector_impl"* @_ZNSt12_Vector_baseISt4pairIdlESaIS1_EE12_Vector_implD2Ev(%"struct.std::_Vector_base<std::pair<double, long>, std::allocator<std::pair<double, long> > >::_Vector_impl"* %20) #3, !dbg !6415
  ret %"struct.std::_Vector_base"* %5, !dbg !6415

; <label>:22:                                     ; preds = %1
  %23 = landingpad { i8*, i32 }
          catch i8* null, !dbg !6417
  %24 = extractvalue { i8*, i32 } %23, 0, !dbg !6417
  store i8* %24, i8** %3, align 4, !dbg !6417
  %25 = extractvalue { i8*, i32 } %23, 1, !dbg !6417
  store i32 %25, i32* %4, align 4, !dbg !6417
  %26 = getelementptr inbounds %"struct.std::_Vector_base", %"struct.std::_Vector_base"* %5, i32 0, i32 0, !dbg !6417
  %27 = call %"struct.std::_Vector_base<std::pair<double, long>, std::allocator<std::pair<double, long> > >::_Vector_impl"* @_ZNSt12_Vector_baseISt4pairIdlESaIS1_EE12_Vector_implD2Ev(%"struct.std::_Vector_base<std::pair<double, long>, std::allocator<std::pair<double, long> > >::_Vector_impl"* %26) #3, !dbg !6417
  br label %28, !dbg !6417

; <label>:28:                                     ; preds = %22
  %29 = load i8*, i8** %3, align 4, !dbg !6419
  call void @__clang_call_terminate(i8* %29) #14, !dbg !6419
  unreachable, !dbg !6419
}

; Function Attrs: inlinehint
define linkonce_odr void @_ZSt8_DestroyIPSt4pairIdlEEvT_S3_(%"struct.std::pair"*, %"struct.std::pair"*) #8 comdat !dbg !6421 !xidane.fname !6255 !xidane.function_declaration_type !6425 !xidane.function_declaration_filename !6257 {
  %3 = alloca %"struct.std::pair"*, align 4
  %4 = alloca %"struct.std::pair"*, align 4
  store %"struct.std::pair"* %0, %"struct.std::pair"** %3, align 4
  call void @llvm.dbg.declare(metadata %"struct.std::pair"** %3, metadata !6426, metadata !4203), !dbg !6427
  store %"struct.std::pair"* %1, %"struct.std::pair"** %4, align 4
  call void @llvm.dbg.declare(metadata %"struct.std::pair"** %4, metadata !6428, metadata !4203), !dbg !6429
  %5 = load %"struct.std::pair"*, %"struct.std::pair"** %3, align 4, !dbg !6430
  %6 = load %"struct.std::pair"*, %"struct.std::pair"** %4, align 4, !dbg !6431
  call void @_ZNSt12_Destroy_auxILb1EE9__destroyIPSt4pairIdlEEEvT_S5_(%"struct.std::pair"* %5, %"struct.std::pair"* %6), !dbg !6432
  ret void, !dbg !6433
}

; Function Attrs: nounwind
define linkonce_odr void @_ZNSt12_Destroy_auxILb1EE9__destroyIPSt4pairIdlEEEvT_S5_(%"struct.std::pair"*, %"struct.std::pair"*) #5 comdat align 2 !dbg !6434 !xidane.fname !6313 !xidane.function_declaration_type !6425 !xidane.function_declaration_filename !6257 {
  %3 = alloca %"struct.std::pair"*, align 4
  %4 = alloca %"struct.std::pair"*, align 4
  store %"struct.std::pair"* %0, %"struct.std::pair"** %3, align 4
  call void @llvm.dbg.declare(metadata %"struct.std::pair"** %3, metadata !6436, metadata !4203), !dbg !6437
  store %"struct.std::pair"* %1, %"struct.std::pair"** %4, align 4
  call void @llvm.dbg.declare(metadata %"struct.std::pair"** %4, metadata !6438, metadata !4203), !dbg !6439
  ret void, !dbg !6440
}

define linkonce_odr void @_ZNSt12_Vector_baseISt4pairIdlESaIS1_EE13_M_deallocateEPS1_j(%"struct.std::_Vector_base"*, %"struct.std::pair"*, i32) #0 comdat align 2 !dbg !6441 !xidane.fname !6320 !xidane.function_declaration_type !6321 !xidane.function_declaration_filename !4317 {
  %4 = alloca %"struct.std::_Vector_base"*, align 4
  %5 = alloca %"struct.std::pair"*, align 4
  %6 = alloca i32, align 4
  store %"struct.std::_Vector_base"* %0, %"struct.std::_Vector_base"** %4, align 4
  call void @llvm.dbg.declare(metadata %"struct.std::_Vector_base"** %4, metadata !6442, metadata !4203), !dbg !6443
  store %"struct.std::pair"* %1, %"struct.std::pair"** %5, align 4
  call void @llvm.dbg.declare(metadata %"struct.std::pair"** %5, metadata !6444, metadata !4203), !dbg !6445
  store i32 %2, i32* %6, align 4
  call void @llvm.dbg.declare(metadata i32* %6, metadata !6446, metadata !4203), !dbg !6447
  %7 = load %"struct.std::_Vector_base"*, %"struct.std::_Vector_base"** %4, align 4
  %8 = load %"struct.std::pair"*, %"struct.std::pair"** %5, align 4, !dbg !6448
  %9 = icmp ne %"struct.std::pair"* %8, null, !dbg !6448
  br i1 %9, label %10, label %15, !dbg !6450

; <label>:10:                                     ; preds = %3
  %11 = getelementptr inbounds %"struct.std::_Vector_base", %"struct.std::_Vector_base"* %7, i32 0, i32 0, !dbg !6451
  %12 = bitcast %"struct.std::_Vector_base<std::pair<double, long>, std::allocator<std::pair<double, long> > >::_Vector_impl"* %11 to %"class.std::allocator.0"*, !dbg !6451
  %13 = load %"struct.std::pair"*, %"struct.std::pair"** %5, align 4, !dbg !6452
  %14 = load i32, i32* %6, align 4, !dbg !6453
  call void @_ZNSt16allocator_traitsISaISt4pairIdlEEE10deallocateERS2_PS1_j(%"class.std::allocator.0"* dereferenceable(1) %12, %"struct.std::pair"* %13, i32 %14), !dbg !6454
  br label %15, !dbg !6454

; <label>:15:                                     ; preds = %10, %3
  ret void, !dbg !6455
}

; Function Attrs: inlinehint nounwind
define linkonce_odr %"struct.std::_Vector_base<std::pair<double, long>, std::allocator<std::pair<double, long> > >::_Vector_impl"* @_ZNSt12_Vector_baseISt4pairIdlESaIS1_EE12_Vector_implD2Ev(%"struct.std::_Vector_base<std::pair<double, long>, std::allocator<std::pair<double, long> > >::_Vector_impl"* returned) unnamed_addr #6 comdat align 2 !dbg !6456 !xidane.fname !6338 !xidane.function_declaration_type !2492 !xidane.function_declaration_filename !4317 {
  %2 = alloca %"struct.std::_Vector_base<std::pair<double, long>, std::allocator<std::pair<double, long> > >::_Vector_impl"*, align 4
  store %"struct.std::_Vector_base<std::pair<double, long>, std::allocator<std::pair<double, long> > >::_Vector_impl"* %0, %"struct.std::_Vector_base<std::pair<double, long>, std::allocator<std::pair<double, long> > >::_Vector_impl"** %2, align 4
  call void @llvm.dbg.declare(metadata %"struct.std::_Vector_base<std::pair<double, long>, std::allocator<std::pair<double, long> > >::_Vector_impl"** %2, metadata !6458, metadata !4203), !dbg !6460
  %3 = load %"struct.std::_Vector_base<std::pair<double, long>, std::allocator<std::pair<double, long> > >::_Vector_impl"*, %"struct.std::_Vector_base<std::pair<double, long>, std::allocator<std::pair<double, long> > >::_Vector_impl"** %2, align 4
  %4 = bitcast %"struct.std::_Vector_base<std::pair<double, long>, std::allocator<std::pair<double, long> > >::_Vector_impl"* %3 to %"class.std::allocator.0"*, !dbg !6461
  %5 = call %"class.std::allocator.0"* @_ZNSaISt4pairIdlEED2Ev(%"class.std::allocator.0"* %4) #3, !dbg !6461
  ret %"struct.std::_Vector_base<std::pair<double, long>, std::allocator<std::pair<double, long> > >::_Vector_impl"* %3, !dbg !6463
}

define linkonce_odr void @_ZNSt16allocator_traitsISaISt4pairIdlEEE10deallocateERS2_PS1_j(%"class.std::allocator.0"* dereferenceable(1), %"struct.std::pair"*, i32) #0 comdat align 2 !dbg !6464 !xidane.fname !6346 !xidane.function_declaration_type !6347 !xidane.function_declaration_filename !6348 {
  %4 = alloca %"class.std::allocator.0"*, align 4
  %5 = alloca %"struct.std::pair"*, align 4
  %6 = alloca i32, align 4
  store %"class.std::allocator.0"* %0, %"class.std::allocator.0"** %4, align 4
  call void @llvm.dbg.declare(metadata %"class.std::allocator.0"** %4, metadata !6465, metadata !4203), !dbg !6466
  store %"struct.std::pair"* %1, %"struct.std::pair"** %5, align 4
  call void @llvm.dbg.declare(metadata %"struct.std::pair"** %5, metadata !6467, metadata !4203), !dbg !6468
  store i32 %2, i32* %6, align 4
  call void @llvm.dbg.declare(metadata i32* %6, metadata !6469, metadata !4203), !dbg !6470
  %7 = load %"class.std::allocator.0"*, %"class.std::allocator.0"** %4, align 4, !dbg !6471
  %8 = bitcast %"class.std::allocator.0"* %7 to %"class.__gnu_cxx::new_allocator.1"*, !dbg !6471
  %9 = load %"struct.std::pair"*, %"struct.std::pair"** %5, align 4, !dbg !6472
  %10 = load i32, i32* %6, align 4, !dbg !6473
  call void @_ZN9__gnu_cxx13new_allocatorISt4pairIdlEE10deallocateEPS2_j(%"class.__gnu_cxx::new_allocator.1"* %8, %"struct.std::pair"* %9, i32 %10), !dbg !6474
  ret void, !dbg !6475
}

; Function Attrs: nounwind
define linkonce_odr void @_ZN9__gnu_cxx13new_allocatorISt4pairIdlEE10deallocateEPS2_j(%"class.__gnu_cxx::new_allocator.1"*, %"struct.std::pair"*, i32) #5 comdat align 2 !dbg !6476 !xidane.fname !6346 !xidane.function_declaration_type !6361 !xidane.function_declaration_filename !6362 {
  %4 = alloca %"class.__gnu_cxx::new_allocator.1"*, align 4
  %5 = alloca %"struct.std::pair"*, align 4
  %6 = alloca i32, align 4
  store %"class.__gnu_cxx::new_allocator.1"* %0, %"class.__gnu_cxx::new_allocator.1"** %4, align 4
  call void @llvm.dbg.declare(metadata %"class.__gnu_cxx::new_allocator.1"** %4, metadata !6477, metadata !4203), !dbg !6479
  store %"struct.std::pair"* %1, %"struct.std::pair"** %5, align 4
  call void @llvm.dbg.declare(metadata %"struct.std::pair"** %5, metadata !6480, metadata !4203), !dbg !6481
  store i32 %2, i32* %6, align 4
  call void @llvm.dbg.declare(metadata i32* %6, metadata !6482, metadata !4203), !dbg !6483
  %7 = load %"class.__gnu_cxx::new_allocator.1"*, %"class.__gnu_cxx::new_allocator.1"** %4, align 4
  %8 = load %"struct.std::pair"*, %"struct.std::pair"** %5, align 4, !dbg !6484
  %9 = bitcast %"struct.std::pair"* %8 to i8*, !dbg !6484
  call void @_ZdlPv(i8* %9) #3, !dbg !6485
  ret void, !dbg !6486
}

; Function Attrs: nounwind
define linkonce_odr %"class.std::allocator.0"* @_ZNSaISt4pairIdlEED2Ev(%"class.std::allocator.0"* returned) unnamed_addr #5 comdat align 2 !dbg !6487 !xidane.fname !4504 !xidane.function_declaration_type !2492 !xidane.function_declaration_filename !4474 {
  %2 = alloca %"class.std::allocator.0"*, align 4
  store %"class.std::allocator.0"* %0, %"class.std::allocator.0"** %2, align 4
  call void @llvm.dbg.declare(metadata %"class.std::allocator.0"** %2, metadata !6488, metadata !4203), !dbg !6490
  %3 = load %"class.std::allocator.0"*, %"class.std::allocator.0"** %2, align 4
  %4 = bitcast %"class.std::allocator.0"* %3 to %"class.__gnu_cxx::new_allocator.1"*, !dbg !6491
  %5 = call %"class.__gnu_cxx::new_allocator.1"* @_ZN9__gnu_cxx13new_allocatorISt4pairIdlEED2Ev(%"class.__gnu_cxx::new_allocator.1"* %4) #3, !dbg !6491
  ret %"class.std::allocator.0"* %3, !dbg !6493
}

; Function Attrs: nounwind
define linkonce_odr %"class.__gnu_cxx::new_allocator.1"* @_ZN9__gnu_cxx13new_allocatorISt4pairIdlEED2Ev(%"class.__gnu_cxx::new_allocator.1"* returned) unnamed_addr #5 comdat align 2 !dbg !6494 !xidane.fname !6376 !xidane.function_declaration_type !2492 !xidane.function_declaration_filename !6362 {
  %2 = alloca %"class.__gnu_cxx::new_allocator.1"*, align 4
  store %"class.__gnu_cxx::new_allocator.1"* %0, %"class.__gnu_cxx::new_allocator.1"** %2, align 4
  call void @llvm.dbg.declare(metadata %"class.__gnu_cxx::new_allocator.1"** %2, metadata !6495, metadata !4203), !dbg !6496
  %3 = load %"class.__gnu_cxx::new_allocator.1"*, %"class.__gnu_cxx::new_allocator.1"** %2, align 4
  ret %"class.__gnu_cxx::new_allocator.1"* %3, !dbg !6497
}

; Function Attrs: nounwind
define linkonce_odr %"class.__gnu_cxx::__normal_iterator"* @_ZN9__gnu_cxx17__normal_iteratorIPSt4pairIdlESt6vectorIS2_SaIS2_EEEC2ERKS3_(%"class.__gnu_cxx::__normal_iterator"* returned, %"struct.std::pair"** dereferenceable(4)) unnamed_addr #5 comdat align 2 !dbg !6498 !xidane.fname !6499 !xidane.function_declaration_type !6500 !xidane.function_declaration_filename !4339 {
  %3 = alloca %"class.__gnu_cxx::__normal_iterator"*, align 4
  %4 = alloca %"struct.std::pair"**, align 4
  store %"class.__gnu_cxx::__normal_iterator"* %0, %"class.__gnu_cxx::__normal_iterator"** %3, align 4
  call void @llvm.dbg.declare(metadata %"class.__gnu_cxx::__normal_iterator"** %3, metadata !6501, metadata !4203), !dbg !6502
  store %"struct.std::pair"** %1, %"struct.std::pair"*** %4, align 4
  call void @llvm.dbg.declare(metadata %"struct.std::pair"*** %4, metadata !6503, metadata !4203), !dbg !6504
  %5 = load %"class.__gnu_cxx::__normal_iterator"*, %"class.__gnu_cxx::__normal_iterator"** %3, align 4
  %6 = getelementptr inbounds %"class.__gnu_cxx::__normal_iterator", %"class.__gnu_cxx::__normal_iterator"* %5, i32 0, i32 0, !dbg !6505
  %7 = load %"struct.std::pair"**, %"struct.std::pair"*** %4, align 4, !dbg !6506
  %8 = load %"struct.std::pair"*, %"struct.std::pair"** %7, align 4, !dbg !6506
  store %"struct.std::pair"* %8, %"struct.std::pair"** %6, align 4, !dbg !6505
  ret %"class.__gnu_cxx::__normal_iterator"* %5, !dbg !6507
}

; Function Attrs: nounwind
define linkonce_odr dereferenceable(4) %"struct.std::pair"** @_ZNK9__gnu_cxx17__normal_iteratorIPSt4pairIdlESt6vectorIS2_SaIS2_EEE4baseEv(%"class.__gnu_cxx::__normal_iterator"*) #5 comdat align 2 !dbg !6508 !xidane.fname !6509 !xidane.function_declaration_type !6510 !xidane.function_declaration_filename !4339 {
  %2 = alloca %"class.__gnu_cxx::__normal_iterator"*, align 4
  store %"class.__gnu_cxx::__normal_iterator"* %0, %"class.__gnu_cxx::__normal_iterator"** %2, align 4
  call void @llvm.dbg.declare(metadata %"class.__gnu_cxx::__normal_iterator"** %2, metadata !6511, metadata !4203), !dbg !6512
  %3 = load %"class.__gnu_cxx::__normal_iterator"*, %"class.__gnu_cxx::__normal_iterator"** %2, align 4
  %4 = getelementptr inbounds %"class.__gnu_cxx::__normal_iterator", %"class.__gnu_cxx::__normal_iterator"* %3, i32 0, i32 0, !dbg !6513
  ret %"struct.std::pair"** %4, !dbg !6514
}

; Function Attrs: nounwind
define linkonce_odr %"class.__gnu_cxx::new_allocator.11"* @_ZN9__gnu_cxx13new_allocatorIdEC2Ev(%"class.__gnu_cxx::new_allocator.11"* returned) unnamed_addr #5 comdat align 2 !dbg !6515 !xidane.fname !6516 !xidane.function_declaration_type !2492 !xidane.function_declaration_filename !6362 {
  %2 = alloca %"class.__gnu_cxx::new_allocator.11"*, align 4
  store %"class.__gnu_cxx::new_allocator.11"* %0, %"class.__gnu_cxx::new_allocator.11"** %2, align 4
  call void @llvm.dbg.declare(metadata %"class.__gnu_cxx::new_allocator.11"** %2, metadata !6517, metadata !4203), !dbg !6518
  %3 = load %"class.__gnu_cxx::new_allocator.11"*, %"class.__gnu_cxx::new_allocator.11"** %2, align 4
  ret %"class.__gnu_cxx::new_allocator.11"* %3, !dbg !6519
}

define linkonce_odr %"struct.std::_Vector_base.9"* @_ZNSt12_Vector_baseIdSaIdEEC2EjRKS0_(%"struct.std::_Vector_base.9"* returned, i32, %"class.std::allocator.10"* dereferenceable(1)) unnamed_addr #0 comdat align 2 personality i8* bitcast (i32 (...)* @__gxx_personality_v0 to i8*) !dbg !6520 !xidane.fname !6521 !xidane.function_declaration_type !6522 !xidane.function_declaration_filename !4317 {
  %4 = alloca %"struct.std::_Vector_base.9"*, align 4
  %5 = alloca i32, align 4
  %6 = alloca %"class.std::allocator.10"*, align 4
  %7 = alloca i8*
  %8 = alloca i32
  store %"struct.std::_Vector_base.9"* %0, %"struct.std::_Vector_base.9"** %4, align 4
  call void @llvm.dbg.declare(metadata %"struct.std::_Vector_base.9"** %4, metadata !6523, metadata !4203), !dbg !6524
  store i32 %1, i32* %5, align 4
  call void @llvm.dbg.declare(metadata i32* %5, metadata !6525, metadata !4203), !dbg !6526
  store %"class.std::allocator.10"* %2, %"class.std::allocator.10"** %6, align 4
  call void @llvm.dbg.declare(metadata %"class.std::allocator.10"** %6, metadata !6527, metadata !4203), !dbg !6528
  %9 = load %"struct.std::_Vector_base.9"*, %"struct.std::_Vector_base.9"** %4, align 4
  %10 = getelementptr inbounds %"struct.std::_Vector_base.9", %"struct.std::_Vector_base.9"* %9, i32 0, i32 0, !dbg !6529
  %11 = load %"class.std::allocator.10"*, %"class.std::allocator.10"** %6, align 4, !dbg !6530
  %12 = call %"struct.std::_Vector_base<double, std::allocator<double> >::_Vector_impl"* @_ZNSt12_Vector_baseIdSaIdEE12_Vector_implC2ERKS0_(%"struct.std::_Vector_base<double, std::allocator<double> >::_Vector_impl"* %10, %"class.std::allocator.10"* dereferenceable(1) %11) #3, !dbg !6529
  %13 = load i32, i32* %5, align 4, !dbg !6531
  invoke void @_ZNSt12_Vector_baseIdSaIdEE17_M_create_storageEj(%"struct.std::_Vector_base.9"* %9, i32 %13)
          to label %14 unwind label %15, !dbg !6533

; <label>:14:                                     ; preds = %3
  ret %"struct.std::_Vector_base.9"* %9, !dbg !6534

; <label>:15:                                     ; preds = %3
  %16 = landingpad { i8*, i32 }
          cleanup, !dbg !6536
  %17 = extractvalue { i8*, i32 } %16, 0, !dbg !6536
  store i8* %17, i8** %7, align 4, !dbg !6536
  %18 = extractvalue { i8*, i32 } %16, 1, !dbg !6536
  store i32 %18, i32* %8, align 4, !dbg !6536
  %19 = call %"struct.std::_Vector_base<double, std::allocator<double> >::_Vector_impl"* @_ZNSt12_Vector_baseIdSaIdEE12_Vector_implD2Ev(%"struct.std::_Vector_base<double, std::allocator<double> >::_Vector_impl"* %10) #3, !dbg !6536
  br label %20, !dbg !6536

; <label>:20:                                     ; preds = %15
  %21 = load i8*, i8** %7, align 4, !dbg !6538
  %22 = load i32, i32* %8, align 4, !dbg !6538
  %23 = insertvalue { i8*, i32 } undef, i8* %21, 0, !dbg !6538
  %24 = insertvalue { i8*, i32 } %23, i32 %22, 1, !dbg !6538
  resume { i8*, i32 } %24, !dbg !6538
}

define linkonce_odr void @_ZNSt6vectorIdSaIdEE21_M_default_initializeEj(%"class.std::vector.8"*, i32) #0 comdat align 2 !dbg !6540 !xidane.fname !6541 !xidane.function_declaration_type !4696 !xidane.function_declaration_filename !4317 {
  %3 = alloca %"class.std::vector.8"*, align 4
  %4 = alloca i32, align 4
  store %"class.std::vector.8"* %0, %"class.std::vector.8"** %3, align 4
  call void @llvm.dbg.declare(metadata %"class.std::vector.8"** %3, metadata !6542, metadata !4203), !dbg !6543
  store i32 %1, i32* %4, align 4
  call void @llvm.dbg.declare(metadata i32* %4, metadata !6544, metadata !4203), !dbg !6545
  %5 = load %"class.std::vector.8"*, %"class.std::vector.8"** %3, align 4
  %6 = bitcast %"class.std::vector.8"* %5 to %"struct.std::_Vector_base.9"*, !dbg !6546
  %7 = getelementptr inbounds %"struct.std::_Vector_base.9", %"struct.std::_Vector_base.9"* %6, i32 0, i32 0, !dbg !6546
  %8 = getelementptr inbounds %"struct.std::_Vector_base<double, std::allocator<double> >::_Vector_impl", %"struct.std::_Vector_base<double, std::allocator<double> >::_Vector_impl"* %7, i32 0, i32 0, !dbg !6547
  %9 = load double*, double** %8, align 4, !dbg !6547
  %10 = load i32, i32* %4, align 4, !dbg !6548
